---
triple:          'arm64-apple-darwin'
binary-path:     ant
relocations:
  - { offsetInCU: 0x52, offset: 0x52, size: 0x8, addend: 0x0, symName: _latestFeatures, symObjAddr: 0x4D2D8, symBinAddr: 0x100058000, symSize: 0x0 }
  - { offsetInCU: 0x72, offset: 0x72, size: 0x8, addend: 0x0, symName: __ZN8random_t3limE, symObjAddr: 0x4D508, symBinAddr: 0x10004F120, symSize: 0x0 }
  - { offsetInCU: 0x130C3, offset: 0x130C3, size: 0x8, addend: 0x0, symName: __ZNSt3__16chronomiB8ue170006IxNS_5ratioILl1ELl1000000000EEExS3_EENS_11common_typeIJNS0_8durationIT_T0_EENS5_IT1_T2_EEEE4typeERKS8_RKSB_, symObjAddr: 0x370B8, symBinAddr: 0x10003ABC4, symSize: 0x70 }
  - { offsetInCU: 0x13130, offset: 0x13130, size: 0x8, addend: 0x0, symName: __ZNSt3__16chrono13duration_castB8ue170006INS0_8durationIxNS_5ratioILl1ELl1000000000EEEEExS4_EENS_9enable_ifIXsr13__is_durationIT_EE5valueES7_E4typeERKNS2_IT0_T1_EE, symObjAddr: 0x36F74, symBinAddr: 0x10003AA80, symSize: 0x30 }
  - { offsetInCU: 0x13177, offset: 0x13177, size: 0x8, addend: 0x0, symName: __ZNSt3__16chronomiB8ue170006INS0_12steady_clockENS0_8durationIxNS_5ratioILl1ELl1000000000EEEEES6_EENS_11common_typeIJT0_T1_EE4typeERKNS0_10time_pointIT_S8_EERKNSC_ISD_S9_EE, symObjAddr: 0x36FA4, symBinAddr: 0x10003AAB0, symSize: 0x58 }
  - { offsetInCU: 0x136A2, offset: 0x136A2, size: 0x8, addend: 0x0, symName: __ZNSt3__17advanceB8ue170006INS_11__wrap_iterIPKcEEllvEEvRT_T0_, symObjAddr: 0x17A74, symBinAddr: 0x10001B580, symSize: 0x38 }
  - { offsetInCU: 0x139D6, offset: 0x139D6, size: 0x8, addend: 0x0, symName: __ZNSt3__111__sift_downB8ue170006INS_17_ClassicAlgPolicyERNS_6__lessIvvEEPcEEvT1_OT0_NS_15iterator_traitsIS6_E15difference_typeES6_, symObjAddr: 0x1A018, symBinAddr: 0x10001DB24, symSize: 0x204 }
  - { offsetInCU: 0x13A83, offset: 0x13A83, size: 0x8, addend: 0x0, symName: __ZNSt3__117__floyd_sift_downB8ue170006INS_17_ClassicAlgPolicyERNS_6__lessIvvEEPcEET1_S6_OT0_NS_15iterator_traitsIS6_E15difference_typeE, symObjAddr: 0x1A43C, symBinAddr: 0x10001DF48, symSize: 0x100 }
  - { offsetInCU: 0x13B1B, offset: 0x13B1B, size: 0x8, addend: 0x0, symName: __ZNSt3__17advanceB8ue170006INS_11__wrap_iterIPcEEllvEEvRT_T0_, symObjAddr: 0x1AB9C, symBinAddr: 0x10001E6A8, symSize: 0x38 }
  - { offsetInCU: 0x13BAC, offset: 0x13BAC, size: 0x8, addend: 0x0, symName: __ZNSt3__17advanceB8ue170006IPcllvEEvRT_T0_, symObjAddr: 0x1B18C, symBinAddr: 0x10001EC98, symSize: 0x38 }
  - { offsetInCU: 0x13F33, offset: 0x13F33, size: 0x8, addend: 0x0, symName: __ZNSt3__16copy_nB8ue170006IPKcmPcEENS_9enable_ifIXsr37__has_random_access_iterator_categoryIT_EE5valueET1_E4typeES5_T0_S6_, symObjAddr: 0x20BB4, symBinAddr: 0x1000246C0, symSize: 0x44 }
  - { offsetInCU: 0x17B42, offset: 0x17B42, size: 0x8, addend: 0x0, symName: __ZNSt3__17advanceB8ue170006IPillvEEvRT_T0_, symObjAddr: 0x2C720, symBinAddr: 0x10003022C, symSize: 0x38 }
  - { offsetInCU: 0x17F6B, offset: 0x17F6B, size: 0x8, addend: 0x0, symName: __ZNSt3__17advanceB8ue170006IPjllvEEvRT_T0_, symObjAddr: 0x2DE00, symBinAddr: 0x10003190C, symSize: 0x38 }
  - { offsetInCU: 0x202A5, offset: 0x202A5, size: 0x8, addend: 0x0, symName: __ZNSt3__113__fill_n_trueB8ue170006INS_6vectorIbNS_9allocatorIbEEEEEEvNS_14__bit_iteratorIT_Lb0EXLi0EEEENS6_9size_typeE, symObjAddr: 0x3E98C, symBinAddr: 0x100042498, symSize: 0x160 }
  - { offsetInCU: 0x2036A, offset: 0x2036A, size: 0x8, addend: 0x0, symName: __ZNSt3__114__fill_n_falseB8ue170006INS_6vectorIbNS_9allocatorIbEEEEEEvNS_14__bit_iteratorIT_Lb0EXLi0EEEENS6_9size_typeE, symObjAddr: 0x3EB20, symBinAddr: 0x10004262C, symSize: 0x15C }
  - { offsetInCU: 0x2214A, offset: 0x2214A, size: 0x8, addend: 0x0, symName: __ZNSt3__111__sift_downB8ue170006INS_17_ClassicAlgPolicyERNS_6__lessIvvEEPNS_4pairIdiEEEEvT1_OT0_NS_15iterator_traitsIS8_E15difference_typeES8_, symObjAddr: 0x413B8, symBinAddr: 0x100044EC4, symSize: 0x20C }
  - { offsetInCU: 0x221F7, offset: 0x221F7, size: 0x8, addend: 0x0, symName: __ZNSt3__117__floyd_sift_downB8ue170006INS_17_ClassicAlgPolicyERNS_6__lessIvvEEPNS_4pairIdiEEEET1_S8_OT0_NS_15iterator_traitsIS8_E15difference_typeE, symObjAddr: 0x41968, symBinAddr: 0x100045474, symSize: 0x100 }
  - { offsetInCU: 0x2228F, offset: 0x2228F, size: 0x8, addend: 0x0, symName: __ZNSt3__111__introsortINS_17_ClassicAlgPolicyERNS_6__lessIvvEEPNS_4pairIdiEELb0EEEvT1_S8_T0_NS_15iterator_traitsIS8_E15difference_typeEb, symObjAddr: 0x41C98, symBinAddr: 0x1000457A4, symSize: 0x43C }
  - { offsetInCU: 0x223BA, offset: 0x223BA, size: 0x8, addend: 0x0, symName: __ZNSt3__126__insertion_sort_unguardedB8ue170006INS_17_ClassicAlgPolicyERNS_6__lessIvvEEPNS_4pairIdiEEEEvT1_S8_T0_, symObjAddr: 0x42324, symBinAddr: 0x100045E30, symSize: 0x120 }
  - { offsetInCU: 0x224AA, offset: 0x224AA, size: 0x8, addend: 0x0, symName: __ZNSt3__131__partition_with_equals_on_leftB8ue170006INS_17_ClassicAlgPolicyEPNS_4pairIdiEERNS_6__lessIvvEEEET0_S8_S8_T1_, symObjAddr: 0x42650, symBinAddr: 0x10004615C, symSize: 0x20C }
  - { offsetInCU: 0x22565, offset: 0x22565, size: 0x8, addend: 0x0, symName: __ZNSt3__118__bitset_partitionB8ue170006INS_17_ClassicAlgPolicyEPNS_4pairIdiEERNS_6__lessIvvEEEENS2_IT0_bEES8_S8_T1_, symObjAddr: 0x4285C, symBinAddr: 0x100046368, symSize: 0x32C }
  - { offsetInCU: 0x22661, offset: 0x22661, size: 0x8, addend: 0x0, symName: __ZNSt3__124__swap_bitmap_pos_withinB8ue170006INS_17_ClassicAlgPolicyEPNS_4pairIdiEEEEvRT0_S6_RyS7_, symObjAddr: 0x43798, symBinAddr: 0x1000472A4, symSize: 0x1E0 }
  - { offsetInCU: 0x2272E, offset: 0x2272E, size: 0x8, addend: 0x0, symName: __ZNSt3__132__partition_with_equals_on_rightB8ue170006INS_17_ClassicAlgPolicyEPNS_4pairIdiEERNS_6__lessIvvEEEENS2_IT0_bEES8_S8_T1_, symObjAddr: 0x42B88, symBinAddr: 0x100046694, symSize: 0x224 }
  - { offsetInCU: 0x227F8, offset: 0x227F8, size: 0x8, addend: 0x0, symName: __ZNSt3__127__insertion_sort_incompleteB8ue170006INS_17_ClassicAlgPolicyERNS_6__lessIvvEEPNS_4pairIdiEEEEbT1_S8_T0_, symObjAddr: 0x42DAC, symBinAddr: 0x1000468B8, symSize: 0x304 }
  - { offsetInCU: 0x24510, offset: 0x24510, size: 0x8, addend: 0x0, symName: __ZNSt3__124__put_character_sequenceB8ue170006IcNS_11char_traitsIcEEEERNS_13basic_ostreamIT_T0_EES7_PKS4_m, symObjAddr: 0x45AA8, symBinAddr: 0x1000495B4, symSize: 0x1F4 }
  - { offsetInCU: 0x25687, offset: 0x25687, size: 0x8, addend: 0x0, symName: __ZNSt3__1plB8ue170006IcNS_11char_traitsIcEENS_9allocatorIcEEEENS_12basic_stringIT_T0_T1_EERKS9_PKS6_, symObjAddr: 0x16C4, symBinAddr: 0x1000051D0, symSize: 0x11C }
  - { offsetInCU: 0x25B2F, offset: 0x25B2F, size: 0x8, addend: 0x0, symName: __ZNSt3__1plB8ue170006IcNS_11char_traitsIcEENS_9allocatorIcEEEENS_12basic_stringIT_T0_T1_EERKS9_SB_, symObjAddr: 0x413C, symBinAddr: 0x100007C48, symSize: 0x134 }
  - { offsetInCU: 0x25BD0, offset: 0x25BD0, size: 0x8, addend: 0x0, symName: __ZNSt3__1neB8ue170006IcNS_11char_traitsIcEENS_9allocatorIcEEEEbRKNS_12basic_stringIT_T0_T1_EEPKS6_, symObjAddr: 0x45BC, symBinAddr: 0x1000080C8, symSize: 0x34 }
  - { offsetInCU: 0x25C28, offset: 0x25C28, size: 0x8, addend: 0x0, symName: __ZNSt3__1eqB8ue170006IcNS_11char_traitsIcEENS_9allocatorIcEEEEbRKNS_12basic_stringIT_T0_T1_EEPKS6_, symObjAddr: 0x4C04, symBinAddr: 0x100008710, symSize: 0xC0 }
  - { offsetInCU: 0x25DFA, offset: 0x25DFA, size: 0x8, addend: 0x0, symName: __ZNSt3__1miB8ue170006I11__mbstate_tEExRKNS_4fposIT_EES6_, symObjAddr: 0x5378, symBinAddr: 0x100008E84, symSize: 0x40 }
  - { offsetInCU: 0x25E48, offset: 0x25E48, size: 0x8, addend: 0x0, symName: __ZNSt3__1neB8ue170006IPiEEbRKNS_11__wrap_iterIT_EES6_, symObjAddr: 0x14F3C, symBinAddr: 0x100018A48, symSize: 0x34 }
  - { offsetInCU: 0x25E8B, offset: 0x25E8B, size: 0x8, addend: 0x0, symName: __ZNSt3__1neB8ue170006IPKjEEbRKNS_11__wrap_iterIT_EES7_, symObjAddr: 0x1567C, symBinAddr: 0x100019188, symSize: 0x34 }
  - { offsetInCU: 0x25ECE, offset: 0x25ECE, size: 0x8, addend: 0x0, symName: __ZNSt3__19make_pairB8ue170006IRdjEENS_4pairINS_18__unwrap_ref_decayIT_E4typeENS3_IT0_E4typeEEEOS4_OS7_, symObjAddr: 0x16A40, symBinAddr: 0x10001A54C, symSize: 0x38 }
  - { offsetInCU: 0x25FCA, offset: 0x25FCA, size: 0x8, addend: 0x0, symName: __ZNSt3__14sortB8ue170006INS_11__wrap_iterIPNS_4pairIdiEEEEEEvT_S6_, symObjAddr: 0x16AD8, symBinAddr: 0x10001A5E4, symSize: 0x3C }
  - { offsetInCU: 0x2600C, offset: 0x2600C, size: 0x8, addend: 0x0, symName: __ZNSt3__1gtB8ue170006IddddEEbRKNS_4pairIT_T0_EERKNS1_IT1_T2_EE, symObjAddr: 0x16F54, symBinAddr: 0x10001AA60, symSize: 0x30 }
  - { offsetInCU: 0x2606D, offset: 0x2606D, size: 0x8, addend: 0x0, symName: __ZNSt3__1lsB8ue170006INS_11char_traitsIcEEEERNS_13basic_ostreamIcT_EES6_c, symObjAddr: 0x1714C, symBinAddr: 0x10001AC58, symSize: 0x34 }
  - { offsetInCU: 0x260B3, offset: 0x260B3, size: 0x8, addend: 0x0, symName: __ZNSt3__1lsB8ue170006INS_11char_traitsIcEEEERNS_13basic_ostreamIcT_EES6_PKc, symObjAddr: 0x17180, symBinAddr: 0x10001AC8C, symSize: 0x48 }
  - { offsetInCU: 0x260F9, offset: 0x260F9, size: 0x8, addend: 0x0, symName: __ZNSt3__1neB8ue170006IPdEEbRKNS_11__wrap_iterIT_EES6_, symObjAddr: 0x1725C, symBinAddr: 0x10001AD68, symSize: 0x34 }
  - { offsetInCU: 0x2613C, offset: 0x2613C, size: 0x8, addend: 0x0, symName: __ZNSt3__113binary_searchB8ue170006INS_11__wrap_iterIPKcEEcEEbT_S5_RKT0_, symObjAddr: 0x17564, symBinAddr: 0x10001B070, symSize: 0x48 }
  - { offsetInCU: 0x26196, offset: 0x26196, size: 0x8, addend: 0x0, symName: __ZNSt3__113binary_searchB8ue170006INS_11__wrap_iterIPKcEEcNS_6__lessIvvEEEEbT_S7_RKT0_T1_, symObjAddr: 0x1760C, symBinAddr: 0x10001B118, symSize: 0xB8 }
  - { offsetInCU: 0x26207, offset: 0x26207, size: 0x8, addend: 0x0, symName: __ZNSt3__111lower_boundB8ue170006INS_11__wrap_iterIPKcEEcRNS_6__lessIvvEEEET_S8_S8_RKT0_T1_, symObjAddr: 0x176C4, symBinAddr: 0x10001B1D0, symSize: 0x5C }
  - { offsetInCU: 0x26286, offset: 0x26286, size: 0x8, addend: 0x0, symName: __ZNSt3__1neB8ue170006IPKcEEbRKNS_11__wrap_iterIT_EES7_, symObjAddr: 0x17720, symBinAddr: 0x10001B22C, symSize: 0x34 }
  - { offsetInCU: 0x26370, offset: 0x26370, size: 0x8, addend: 0x0, symName: __ZNSt3__113__lower_boundB8ue170006INS_17_ClassicAlgPolicyENS_11__wrap_iterIPKcEES5_cNS_10__identityENS_6__lessIvvEEEET0_S9_T1_RKT2_RT4_RT3_, symObjAddr: 0x177A0, symBinAddr: 0x10001B2AC, symSize: 0x108 }
  - { offsetInCU: 0x2670C, offset: 0x2670C, size: 0x8, addend: 0x0, symName: __ZNSt3__115__half_positiveB8ue170006IlEENS_9enable_ifIXsr11is_integralIT_EE5valueES2_E4typeES2_, symObjAddr: 0x178E4, symBinAddr: 0x10001B3F0, symSize: 0x1C }
  - { offsetInCU: 0x26741, offset: 0x26741, size: 0x8, addend: 0x0, symName: __ZNSt3__18__invokeB8ue170006IRNS_6__lessIvvEEJRKcS5_EEEDTclclsr3stdE7declvalIT_EEspclsr3stdE7declvalIT0_EEEEOS6_DpOS7_, symObjAddr: 0x1792C, symBinAddr: 0x10001B438, symSize: 0x38 }
  - { offsetInCU: 0x267A6, offset: 0x267A6, size: 0x8, addend: 0x0, symName: __ZNSt3__18__invokeB8ue170006IRNS_10__identityEJRKcEEEDTclclsr3stdE7declvalIT_EEspclsr3stdE7declvalIT0_EEEEOS5_DpOS6_, symObjAddr: 0x17964, symBinAddr: 0x10001B470, symSize: 0x2C }
  - { offsetInCU: 0x267F7, offset: 0x267F7, size: 0x8, addend: 0x0, symName: __ZNSt3__18distanceB8ue170006INS_11__wrap_iterIPKcEEEENS_15iterator_traitsIT_E15difference_typeES6_S6_, symObjAddr: 0x179B0, symBinAddr: 0x10001B4BC, symSize: 0x3C }
  - { offsetInCU: 0x2683A, offset: 0x2683A, size: 0x8, addend: 0x0, symName: __ZNSt3__110__distanceB8ue170006INS_11__wrap_iterIPKcEEEENS_15iterator_traitsIT_E15difference_typeES6_S6_NS_26random_access_iterator_tagE, symObjAddr: 0x179EC, symBinAddr: 0x10001B4F8, symSize: 0x30 }
  - { offsetInCU: 0x26887, offset: 0x26887, size: 0x8, addend: 0x0, symName: __ZNSt3__1miB8ue170006IPKcS2_EENS_11__wrap_iterIT_E15difference_typeERKS5_RKNS3_IT0_EE, symObjAddr: 0x17A1C, symBinAddr: 0x10001B528, symSize: 0x40 }
  - { offsetInCU: 0x268D3, offset: 0x268D3, size: 0x8, addend: 0x0, symName: __ZNSt3__121__convert_to_integralB8ue170006El, symObjAddr: 0x17AAC, symBinAddr: 0x10001B5B8, symSize: 0x14 }
  - { offsetInCU: 0x268FF, offset: 0x268FF, size: 0x8, addend: 0x0, symName: __ZNSt3__19__advanceB8ue170006INS_11__wrap_iterIPKcEEEEvRT_NS_15iterator_traitsIS5_E15difference_typeENS_26random_access_iterator_tagE, symObjAddr: 0x17AC0, symBinAddr: 0x10001B5CC, symSize: 0x2C }
  - { offsetInCU: 0x26998, offset: 0x26998, size: 0x8, addend: 0x0, symName: __ZNSt3__1eqB8ue170006IPKcEEbRKNS_11__wrap_iterIT_EES7_, symObjAddr: 0x17B2C, symBinAddr: 0x10001B638, symSize: 0x48 }
  - { offsetInCU: 0x269DB, offset: 0x269DB, size: 0x8, addend: 0x0, symName: __ZNSt3__14sortB8ue170006INS_11__wrap_iterIPcEEEEvT_S4_, symObjAddr: 0x17EB4, symBinAddr: 0x10001B9C0, symSize: 0x3C }
  - { offsetInCU: 0x26A1D, offset: 0x26A1D, size: 0x8, addend: 0x0, symName: __ZNSt3__113binary_searchB8ue170006INS_11__wrap_iterIPcEEcEEbT_S4_RKT0_, symObjAddr: 0x17F50, symBinAddr: 0x10001BA5C, symSize: 0x48 }
  - { offsetInCU: 0x26A77, offset: 0x26A77, size: 0x8, addend: 0x0, symName: __ZNSt3__112__to_addressB8ue170006IcEEPT_S2_, symObjAddr: 0x182DC, symBinAddr: 0x10001BDE8, symSize: 0x14 }
  - { offsetInCU: 0x26AAC, offset: 0x26AAC, size: 0x8, addend: 0x0, symName: __ZNSt3__13maxB8ue170006ImEERKT_S3_S3_, symObjAddr: 0x186DC, symBinAddr: 0x10001C1E8, symSize: 0x2C }
  - { offsetInCU: 0x26AEF, offset: 0x26AEF, size: 0x8, addend: 0x0, symName: __ZNSt3__13minB8ue170006ImEERKT_S3_S3_, symObjAddr: 0x18708, symBinAddr: 0x10001C214, symSize: 0x2C }
  - { offsetInCU: 0x26D33, offset: 0x26D33, size: 0x8, addend: 0x0, symName: __ZNSt3__13minB8ue170006ImNS_6__lessIvvEEEERKT_S5_S5_T0_, symObjAddr: 0x18794, symBinAddr: 0x10001C2A0, symSize: 0x54 }
  - { offsetInCU: 0x26D8D, offset: 0x26D8D, size: 0x8, addend: 0x0, symName: __ZNSt3__120__throw_length_errorB8ue170006EPKc, symObjAddr: 0x18870, symBinAddr: 0x10001C37C, symSize: 0x64 }
  - { offsetInCU: 0x26DB7, offset: 0x26DB7, size: 0x8, addend: 0x0, symName: __ZNSt3__13maxB8ue170006ImNS_6__lessIvvEEEERKT_S5_S5_T0_, symObjAddr: 0x189B4, symBinAddr: 0x10001C4C0, symSize: 0x54 }
  - { offsetInCU: 0x26E11, offset: 0x26E11, size: 0x8, addend: 0x0, symName: __ZNSt3__119__allocate_at_leastB8ue170006INS_9allocatorIcEEEENS_19__allocation_resultINS_16allocator_traitsIT_E7pointerEEERS5_m, symObjAddr: 0x18B18, symBinAddr: 0x10001C624, symSize: 0x40 }
  - { offsetInCU: 0x26E54, offset: 0x26E54, size: 0x8, addend: 0x0, symName: __ZNSt3__130__libcpp_is_constant_evaluatedB8ue170006Ev, symObjAddr: 0x18CE4, symBinAddr: 0x10001C7F0, symSize: 0xC }
  - { offsetInCU: 0x26E71, offset: 0x26E71, size: 0x8, addend: 0x0, symName: __ZNSt3__117__libcpp_allocateB8ue170006Emm, symObjAddr: 0x18CF0, symBinAddr: 0x10001C7FC, symSize: 0x28 }
  - { offsetInCU: 0x26EAE, offset: 0x26EAE, size: 0x8, addend: 0x0, symName: __ZNSt3__121__libcpp_operator_newB8ue170006IJmEEEPvDpT_, symObjAddr: 0x18D18, symBinAddr: 0x10001C824, symSize: 0x24 }
  - { offsetInCU: 0x26EE7, offset: 0x26EE7, size: 0x8, addend: 0x0, symName: __ZNSt3__142__uninitialized_allocator_move_if_noexceptB8ue170006INS_9allocatorIcEENS_16reverse_iteratorIPcEES5_cvEET1_RT_T0_S9_S6_, symObjAddr: 0x18E58, symBinAddr: 0x10001C964, symSize: 0xE8 }
  - { offsetInCU: 0x26F64, offset: 0x26F64, size: 0x8, addend: 0x0, symName: __ZNSt3__14swapB8ue170006IPcEEvRT_S3_, symObjAddr: 0x18F8C, symBinAddr: 0x10001CA98, symSize: 0x3C }
  - { offsetInCU: 0x26FB5, offset: 0x26FB5, size: 0x8, addend: 0x0, symName: __ZNSt3__1neB8ue170006IPcS1_EEbRKNS_16reverse_iteratorIT_EERKNS2_IT0_EE, symObjAddr: 0x190BC, symBinAddr: 0x10001CBC8, symSize: 0x48 }
  - { offsetInCU: 0x27026, offset: 0x27026, size: 0x8, addend: 0x0, symName: __ZNSt3__114__construct_atB8ue170006IcJcEPcEEPT_S3_DpOT0_, symObjAddr: 0x19104, symBinAddr: 0x10001CC10, symSize: 0x2C }
  - { offsetInCU: 0x27096, offset: 0x27096, size: 0x8, addend: 0x0, symName: __ZNSt3__112__to_addressB8ue170006INS_16reverse_iteratorIPcEEvEEu7__decayIDTclsr19__to_address_helperIT_EE6__callclsr3stdE7declvalIRKS4_EEEEES6_, symObjAddr: 0x19130, symBinAddr: 0x10001CC3C, symSize: 0x24 }
  - { offsetInCU: 0x270CC, offset: 0x270CC, size: 0x8, addend: 0x0, symName: __ZNSt3__14moveB8ue170006INS_16reverse_iteratorIPcEES3_EET0_T_S5_S4_, symObjAddr: 0x1919C, symBinAddr: 0x10001CCA8, symSize: 0x78 }
  - { offsetInCU: 0x2714F, offset: 0x2714F, size: 0x8, addend: 0x0, symName: __ZNSt3__16__moveB8ue170006INS_17_ClassicAlgPolicyENS_16reverse_iteratorIPcEES4_S4_EENS_4pairIT0_T2_EES6_T1_S7_, symObjAddr: 0x19284, symBinAddr: 0x10001CD90, symSize: 0x64 }
  - { offsetInCU: 0x271BB, offset: 0x271BB, size: 0x8, addend: 0x0, symName: __ZNSt3__123__dispatch_copy_or_moveB8ue170006INS_17_ClassicAlgPolicyENS_11__move_loopIS1_EENS_14__move_trivialENS_16reverse_iteratorIPcEES7_S7_EENS_4pairIT2_T4_EES9_T3_SA_, symObjAddr: 0x192E8, symBinAddr: 0x10001CDF4, symSize: 0x64 }
  - { offsetInCU: 0x27239, offset: 0x27239, size: 0x8, addend: 0x0, symName: __ZNSt3__121__unwrap_and_dispatchB8ue170006INS_10__overloadINS_11__move_loopINS_17_ClassicAlgPolicyEEENS_14__move_trivialEEENS_16reverse_iteratorIPcEES9_S9_Li0EEENS_4pairIT0_T2_EESB_T1_SC_, symObjAddr: 0x1934C, symBinAddr: 0x10001CE58, symSize: 0x12C }
  - { offsetInCU: 0x272C9, offset: 0x272C9, size: 0x8, addend: 0x0, symName: __ZNSt3__114__unwrap_rangeB8ue170006INS_16reverse_iteratorIPcEES3_EENS_4pairIT0_S5_EET_S7_, symObjAddr: 0x19478, symBinAddr: 0x10001CF84, symSize: 0x84 }
  - { offsetInCU: 0x274D1, offset: 0x274D1, size: 0x8, addend: 0x0, symName: __ZNSt3__113__unwrap_iterB8ue170006INS_16reverse_iteratorIPcEENS_18__unwrap_iter_implIS3_Lb0EEELi0EEEDTclsrT0_8__unwrapclsr3stdE7declvalIT_EEEES7_, symObjAddr: 0x1959C, symBinAddr: 0x10001D0A8, symSize: 0x44 }
  - { offsetInCU: 0x27515, offset: 0x27515, size: 0x8, addend: 0x0, symName: __ZNSt3__19make_pairB8ue170006INS_16reverse_iteratorIPcEES3_EENS_4pairINS_18__unwrap_ref_decayIT_E4typeENS5_IT0_E4typeEEEOS6_OS9_, symObjAddr: 0x195E0, symBinAddr: 0x10001D0EC, symSize: 0x38 }
  - { offsetInCU: 0x27564, offset: 0x27564, size: 0x8, addend: 0x0, symName: __ZNSt3__114__rewrap_rangeB8ue170006INS_16reverse_iteratorIPcEES3_EET_S4_T0_, symObjAddr: 0x19618, symBinAddr: 0x10001D124, symSize: 0x5C }
  - { offsetInCU: 0x275B0, offset: 0x275B0, size: 0x8, addend: 0x0, symName: __ZNSt3__113__rewrap_iterB8ue170006INS_16reverse_iteratorIPcEES3_NS_18__unwrap_iter_implIS3_Lb0EEEEET_S6_T0_, symObjAddr: 0x19674, symBinAddr: 0x10001D180, symSize: 0x88 }
  - { offsetInCU: 0x27671, offset: 0x27671, size: 0x8, addend: 0x0, symName: __ZNSt3__119__libcpp_deallocateB8ue170006EPvmm, symObjAddr: 0x19A94, symBinAddr: 0x10001D5A0, symSize: 0x30 }
  - { offsetInCU: 0x276B9, offset: 0x276B9, size: 0x8, addend: 0x0, symName: __ZNSt3__127__do_deallocate_handle_sizeB8ue170006IJEEEvPvmDpT_, symObjAddr: 0x19AC4, symBinAddr: 0x10001D5D0, symSize: 0x28 }
  - { offsetInCU: 0x276F7, offset: 0x276F7, size: 0x8, addend: 0x0, symName: __ZNSt3__124__libcpp_operator_deleteB8ue170006IJPvEEEvDpT_, symObjAddr: 0x19AEC, symBinAddr: 0x10001D5F8, symSize: 0x24 }
  - { offsetInCU: 0x2772C, offset: 0x2772C, size: 0x8, addend: 0x0, symName: __ZNSt3__14sortB8ue170006INS_11__wrap_iterIPcEENS_6__lessIvvEEEEvT_S6_T0_, symObjAddr: 0x19B98, symBinAddr: 0x10001D6A4, symSize: 0x40 }
  - { offsetInCU: 0x27786, offset: 0x27786, size: 0x8, addend: 0x0, symName: __ZNSt3__111__sort_implB8ue170006INS_17_ClassicAlgPolicyENS_11__wrap_iterIPcEENS_6__lessIvvEEEEvT0_S7_RT1_, symObjAddr: 0x19BD8, symBinAddr: 0x10001D6E4, symSize: 0x108 }
  - { offsetInCU: 0x277EA, offset: 0x277EA, size: 0x8, addend: 0x0, symName: __ZNSt3__123__debug_randomize_rangeB8ue170006INS_17_ClassicAlgPolicyENS_11__wrap_iterIPcEES4_EEvT0_T1_, symObjAddr: 0x19CE0, symBinAddr: 0x10001D7EC, symSize: 0x14 }
  - { offsetInCU: 0x2783A, offset: 0x2783A, size: 0x8, addend: 0x0, symName: __ZNSt3__114__partial_sortB8ue170006INS_17_ClassicAlgPolicyENS_6__lessIvvEEPcS4_EET1_S5_S5_T2_RT0_, symObjAddr: 0x19CF4, symBinAddr: 0x10001D800, symSize: 0x94 }
  - { offsetInCU: 0x278C2, offset: 0x278C2, size: 0x8, addend: 0x0, symName: __ZNSt3__113__unwrap_iterB8ue170006INS_11__wrap_iterIPcEENS_18__unwrap_iter_implIS3_Lb1EEELi0EEEDTclsrT0_8__unwrapclsr3stdE7declvalIT_EEEES7_, symObjAddr: 0x19D88, symBinAddr: 0x10001D894, symSize: 0x2C }
  - { offsetInCU: 0x27906, offset: 0x27906, size: 0x8, addend: 0x0, symName: __ZNSt3__115__sort_dispatchB8ue170006INS_17_ClassicAlgPolicyEcLi0EEEvPT0_S3_RNS_6__lessIvvEE, symObjAddr: 0x19DB4, symBinAddr: 0x10001D8C0, symSize: 0x34 }
  - { offsetInCU: 0x27972, offset: 0x27972, size: 0x8, addend: 0x0, symName: __ZNSt3__135__check_strict_weak_ordering_sortedB8ue170006IPcNS_6__lessIvvEEEEvT_S4_RT0_, symObjAddr: 0x19DE8, symBinAddr: 0x10001D8F4, symSize: 0x18 }
  - { offsetInCU: 0x279C8, offset: 0x279C8, size: 0x8, addend: 0x0, symName: __ZNSt3__123__debug_randomize_rangeB8ue170006INS_17_ClassicAlgPolicyEPcS2_EEvT0_T1_, symObjAddr: 0x19E18, symBinAddr: 0x10001D924, symSize: 0x14 }
  - { offsetInCU: 0x27A18, offset: 0x27A18, size: 0x8, addend: 0x0, symName: __ZNSt3__119__partial_sort_implB8ue170006INS_17_ClassicAlgPolicyERNS_6__lessIvvEEPcS5_EET1_S6_S6_T2_OT0_, symObjAddr: 0x19E2C, symBinAddr: 0x10001D938, symSize: 0x108 }
  - { offsetInCU: 0x27AAE, offset: 0x27AAE, size: 0x8, addend: 0x0, symName: __ZNSt3__111__make_heapB8ue170006INS_17_ClassicAlgPolicyERNS_6__lessIvvEEPcEEvT1_S6_OT0_, symObjAddr: 0x19F34, symBinAddr: 0x10001DA40, symSize: 0xB0 }
  - { offsetInCU: 0x27B50, offset: 0x27B50, size: 0x8, addend: 0x0, symName: __ZNSt3__111__sort_heapB8ue170006INS_17_ClassicAlgPolicyERNS_6__lessIvvEEPcEEvT1_S6_OT0_, symObjAddr: 0x1A21C, symBinAddr: 0x10001DD28, symSize: 0xA0 }
  - { offsetInCU: 0x27BF2, offset: 0x27BF2, size: 0x8, addend: 0x0, symName: __ZNSt3__19iter_swapB8ue170006IPcS1_EEvT_T0_, symObjAddr: 0x1A2BC, symBinAddr: 0x10001DDC8, symSize: 0x2C }
  - { offsetInCU: 0x27C3A, offset: 0x27C3A, size: 0x8, addend: 0x0, symName: __ZNSt3__14swapB8ue170006IcEEvRT_S2_, symObjAddr: 0x1A2E8, symBinAddr: 0x10001DDF4, symSize: 0x3C }
  - { offsetInCU: 0x27C8B, offset: 0x27C8B, size: 0x8, addend: 0x0, symName: __ZNSt3__110__pop_heapB8ue170006INS_17_ClassicAlgPolicyENS_6__lessIvvEEPcEEvT1_S5_RT0_NS_15iterator_traitsIS5_E15difference_typeE, symObjAddr: 0x1A350, symBinAddr: 0x10001DE5C, symSize: 0xEC }
  - { offsetInCU: 0x27D3B, offset: 0x27D3B, size: 0x8, addend: 0x0, symName: __ZNSt3__19__sift_upB8ue170006INS_17_ClassicAlgPolicyERNS_6__lessIvvEEPcEEvT1_S6_OT0_NS_15iterator_traitsIS6_E15difference_typeE, symObjAddr: 0x1A53C, symBinAddr: 0x10001E048, symSize: 0x11C }
  - { offsetInCU: 0x27E3E, offset: 0x27E3E, size: 0x8, addend: 0x0, symName: __ZNSt3__112__to_addressB8ue170006INS_11__wrap_iterIPcEEvEEu7__decayIDTclsr19__to_address_helperIT_EE6__callclsr3stdE7declvalIRKS4_EEEEES6_, symObjAddr: 0x1A680, symBinAddr: 0x10001E18C, symSize: 0x24 }
  - { offsetInCU: 0x27F19, offset: 0x27F19, size: 0x8, addend: 0x0, symName: __ZNSt3__113binary_searchB8ue170006INS_11__wrap_iterIPcEEcNS_6__lessIvvEEEEbT_S6_RKT0_T1_, symObjAddr: 0x1A79C, symBinAddr: 0x10001E2A8, symSize: 0xB8 }
  - { offsetInCU: 0x27F8A, offset: 0x27F8A, size: 0x8, addend: 0x0, symName: __ZNSt3__111lower_boundB8ue170006INS_11__wrap_iterIPcEEcRNS_6__lessIvvEEEET_S7_S7_RKT0_T1_, symObjAddr: 0x1A854, symBinAddr: 0x10001E360, symSize: 0x5C }
  - { offsetInCU: 0x28009, offset: 0x28009, size: 0x8, addend: 0x0, symName: __ZNSt3__1neB8ue170006IPcEEbRKNS_11__wrap_iterIT_EES6_, symObjAddr: 0x1A8B0, symBinAddr: 0x10001E3BC, symSize: 0x34 }
  - { offsetInCU: 0x2804C, offset: 0x2804C, size: 0x8, addend: 0x0, symName: __ZNSt3__113__lower_boundB8ue170006INS_17_ClassicAlgPolicyENS_11__wrap_iterIPcEES4_cNS_10__identityENS_6__lessIvvEEEET0_S8_T1_RKT2_RT4_RT3_, symObjAddr: 0x1A8FC, symBinAddr: 0x10001E408, symSize: 0x108 }
  - { offsetInCU: 0x2811E, offset: 0x2811E, size: 0x8, addend: 0x0, symName: __ZNSt3__18__invokeB8ue170006IRNS_6__lessIvvEEJRcRKcEEEDTclclsr3stdE7declvalIT_EEspclsr3stdE7declvalIT0_EEEEOS7_DpOS8_, symObjAddr: 0x1AA6C, symBinAddr: 0x10001E578, symSize: 0x38 }
  - { offsetInCU: 0x28183, offset: 0x28183, size: 0x8, addend: 0x0, symName: __ZNSt3__18__invokeB8ue170006IRNS_10__identityEJRcEEEDTclclsr3stdE7declvalIT_EEspclsr3stdE7declvalIT0_EEEEOS4_DpOS5_, symObjAddr: 0x1AAA4, symBinAddr: 0x10001E5B0, symSize: 0x2C }
  - { offsetInCU: 0x281D4, offset: 0x281D4, size: 0x8, addend: 0x0, symName: __ZNSt3__18distanceB8ue170006INS_11__wrap_iterIPcEEEENS_15iterator_traitsIT_E15difference_typeES5_S5_, symObjAddr: 0x1AAF0, symBinAddr: 0x10001E5FC, symSize: 0x3C }
  - { offsetInCU: 0x28217, offset: 0x28217, size: 0x8, addend: 0x0, symName: __ZNSt3__110__distanceB8ue170006INS_11__wrap_iterIPcEEEENS_15iterator_traitsIT_E15difference_typeES5_S5_NS_26random_access_iterator_tagE, symObjAddr: 0x1AB2C, symBinAddr: 0x10001E638, symSize: 0x30 }
  - { offsetInCU: 0x28264, offset: 0x28264, size: 0x8, addend: 0x0, symName: __ZNSt3__1miB8ue170006IPcS1_EENS_11__wrap_iterIT_E15difference_typeERKS4_RKNS2_IT0_EE, symObjAddr: 0x1AB5C, symBinAddr: 0x10001E668, symSize: 0x40 }
  - { offsetInCU: 0x282B0, offset: 0x282B0, size: 0x8, addend: 0x0, symName: __ZNSt3__19__advanceB8ue170006INS_11__wrap_iterIPcEEEEvRT_NS_15iterator_traitsIS4_E15difference_typeENS_26random_access_iterator_tagE, symObjAddr: 0x1ABD4, symBinAddr: 0x10001E6E0, symSize: 0x2C }
  - { offsetInCU: 0x282F9, offset: 0x282F9, size: 0x8, addend: 0x0, symName: __ZNSt3__1eqB8ue170006IPcEEbRKNS_11__wrap_iterIT_EES6_, symObjAddr: 0x1AC40, symBinAddr: 0x10001E74C, symSize: 0x48 }
  - { offsetInCU: 0x2833C, offset: 0x2833C, size: 0x8, addend: 0x0, symName: __ZNSt3__18distanceB8ue170006IPcEENS_15iterator_traitsIT_E15difference_typeES3_S3_, symObjAddr: 0x1AE88, symBinAddr: 0x10001E994, symSize: 0x2C }
  - { offsetInCU: 0x2837F, offset: 0x2837F, size: 0x8, addend: 0x0, symName: __ZNSt3__14nextB8ue170006IPcEENS_9enable_ifIXsr29__has_input_iterator_categoryIT_EE5valueES3_E4typeES3_NS_15iterator_traitsIS3_E15difference_typeE, symObjAddr: 0x1AEB4, symBinAddr: 0x10001E9C0, symSize: 0x34 }
  - { offsetInCU: 0x283C2, offset: 0x283C2, size: 0x8, addend: 0x0, symName: __ZNSt3__14copyB8ue170006IPcS1_EET0_T_S3_S2_, symObjAddr: 0x1AEE8, symBinAddr: 0x10001E9F4, symSize: 0x40 }
  - { offsetInCU: 0x2841C, offset: 0x2841C, size: 0x8, addend: 0x0, symName: __ZNSt3__16__copyB8ue170006INS_17_ClassicAlgPolicyEPcS2_S2_EENS_4pairIT0_T2_EES4_T1_S5_, symObjAddr: 0x1AFBC, symBinAddr: 0x10001EAC8, symSize: 0x44 }
  - { offsetInCU: 0x28489, offset: 0x28489, size: 0x8, addend: 0x0, symName: __ZNSt3__19__advanceB8ue170006IPcEEvRT_NS_15iterator_traitsIS2_E15difference_typeENS_26random_access_iterator_tagE, symObjAddr: 0x1B1C4, symBinAddr: 0x10001ECD0, symSize: 0x28 }
  - { offsetInCU: 0x284D1, offset: 0x284D1, size: 0x8, addend: 0x0, symName: __ZNSt3__130__uninitialized_allocator_copyB8ue170006INS_9allocatorIcEEPcS3_S3_EET2_RT_T0_T1_S4_, symObjAddr: 0x1B1EC, symBinAddr: 0x10001ECF8, symSize: 0x80 }
  - { offsetInCU: 0x2856E, offset: 0x2856E, size: 0x8, addend: 0x0, symName: __ZNSt3__114__unwrap_rangeB8ue170006IPcS1_EENS_4pairIT0_S3_EET_S5_, symObjAddr: 0x1B26C, symBinAddr: 0x10001ED78, symSize: 0x60 }
  - { offsetInCU: 0x285BA, offset: 0x285BA, size: 0x8, addend: 0x0, symName: __ZNSt3__135__uninitialized_allocator_copy_implB8ue170006INS_9allocatorIcEEPcS3_S3_EET2_RT_T0_T1_S4_, symObjAddr: 0x1B2CC, symBinAddr: 0x10001EDD8, symSize: 0xFC }
  - { offsetInCU: 0x28658, offset: 0x28658, size: 0x8, addend: 0x0, symName: __ZNSt3__113__unwrap_iterB8ue170006IPcNS_18__unwrap_iter_implIS1_Lb1EEELi0EEEDTclsrT0_8__unwrapclsr3stdE7declvalIT_EEEES5_, symObjAddr: 0x1B3C8, symBinAddr: 0x10001EED4, symSize: 0x24 }
  - { offsetInCU: 0x2869C, offset: 0x2869C, size: 0x8, addend: 0x0, symName: __ZNSt3__113__rewrap_iterB8ue170006IPcS1_NS_18__unwrap_iter_implIS1_Lb1EEEEET_S4_T0_, symObjAddr: 0x1B3EC, symBinAddr: 0x10001EEF8, symSize: 0x50 }
  - { offsetInCU: 0x286F1, offset: 0x286F1, size: 0x8, addend: 0x0, symName: __ZNSt3__19make_pairB8ue170006IPcS1_EENS_4pairINS_18__unwrap_ref_decayIT_E4typeENS3_IT0_E4typeEEEOS4_OS7_, symObjAddr: 0x1B43C, symBinAddr: 0x10001EF48, symSize: 0x38 }
  - { offsetInCU: 0x287ED, offset: 0x287ED, size: 0x8, addend: 0x0, symName: __ZNSt3__122__make_exception_guardB8ue170006INS_29_AllocatorDestroyRangeReverseINS_9allocatorIcEEPcEEEENS_28__exception_guard_exceptionsIT_EES7_, symObjAddr: 0x1B4E4, symBinAddr: 0x10001EFF0, symSize: 0x4C }
  - { offsetInCU: 0x28823, offset: 0x28823, size: 0x8, addend: 0x0, symName: __ZNSt3__119__allocator_destroyB8ue170006INS_9allocatorIcEENS_16reverse_iteratorIPcEES5_EEvRT_T0_T1_, symObjAddr: 0x1B764, symBinAddr: 0x10001F270, symSize: 0x70 }
  - { offsetInCU: 0x288D9, offset: 0x288D9, size: 0x8, addend: 0x0, symName: __ZNSt3__123__dispatch_copy_or_moveB8ue170006INS_17_ClassicAlgPolicyENS_11__copy_loopIS1_EENS_14__copy_trivialEPcS5_S5_EENS_4pairIT2_T4_EES7_T3_S8_, symObjAddr: 0x1B840, symBinAddr: 0x10001F34C, symSize: 0x44 }
  - { offsetInCU: 0x28957, offset: 0x28957, size: 0x8, addend: 0x0, symName: __ZNSt3__121__unwrap_and_dispatchB8ue170006INS_10__overloadINS_11__copy_loopINS_17_ClassicAlgPolicyEEENS_14__copy_trivialEEEPcS7_S7_Li0EEENS_4pairIT0_T2_EES9_T1_SA_, symObjAddr: 0x1B884, symBinAddr: 0x10001F390, symSize: 0xB4 }
  - { offsetInCU: 0x28ADF, offset: 0x28ADF, size: 0x8, addend: 0x0, symName: __ZNSt3__114__rewrap_rangeB8ue170006IPcS1_EET_S2_T0_, symObjAddr: 0x1B980, symBinAddr: 0x10001F48C, symSize: 0x2C }
  - { offsetInCU: 0x28B2B, offset: 0x28B2B, size: 0x8, addend: 0x0, symName: __ZNSt3__119__copy_trivial_implB8ue170006IccEENS_4pairIPT_PT0_EES3_S3_S5_, symObjAddr: 0x1B9AC, symBinAddr: 0x10001F4B8, symSize: 0x78 }
  - { offsetInCU: 0x28B93, offset: 0x28B93, size: 0x8, addend: 0x0, symName: __ZNSt3__119__constexpr_memmoveB8ue170006IccLi0EEEPT_S2_PT0_NS_15__element_countE, symObjAddr: 0x1BA24, symBinAddr: 0x10001F530, symSize: 0xA0 }
  - { offsetInCU: 0x28C01, offset: 0x28C01, size: 0x8, addend: 0x0, symName: __ZNSt3__19make_pairB8ue170006IRPcS1_EENS_4pairINS_18__unwrap_ref_decayIT_E4typeENS4_IT0_E4typeEEEOS5_OS8_, symObjAddr: 0x1BAC4, symBinAddr: 0x10001F5D0, symSize: 0x38 }
  - { offsetInCU: 0x28C50, offset: 0x28C50, size: 0x8, addend: 0x0, symName: __ZNSt3__110__distanceB8ue170006IPcEENS_15iterator_traitsIT_E15difference_typeES3_S3_NS_26random_access_iterator_tagE, symObjAddr: 0x1BCBC, symBinAddr: 0x10001F7C8, symSize: 0x20 }
  - { offsetInCU: 0x28C9D, offset: 0x28C9D, size: 0x8, addend: 0x0, symName: __ZNSt3__112__to_addressB8ue170006IiEEPT_S2_, symObjAddr: 0x1C1B4, symBinAddr: 0x10001FCC0, symSize: 0x14 }
  - { offsetInCU: 0x28CD2, offset: 0x28CD2, size: 0x8, addend: 0x0, symName: __ZNSt3__119__allocate_at_leastB8ue170006INS_9allocatorIiEEEENS_19__allocation_resultINS_16allocator_traitsIT_E7pointerEEERS5_m, symObjAddr: 0x1C7C4, symBinAddr: 0x1000202D0, symSize: 0x40 }
  - { offsetInCU: 0x28D15, offset: 0x28D15, size: 0x8, addend: 0x0, symName: __ZNSt3__142__uninitialized_allocator_move_if_noexceptB8ue170006INS_9allocatorIiEENS_16reverse_iteratorIPiEES5_ivEET1_RT_T0_S9_S6_, symObjAddr: 0x1CA78, symBinAddr: 0x100020584, symSize: 0xE8 }
  - { offsetInCU: 0x28D92, offset: 0x28D92, size: 0x8, addend: 0x0, symName: __ZNSt3__14swapB8ue170006IPiEEvRT_S3_, symObjAddr: 0x1CBAC, symBinAddr: 0x1000206B8, symSize: 0x3C }
  - { offsetInCU: 0x28DE3, offset: 0x28DE3, size: 0x8, addend: 0x0, symName: __ZNSt3__1neB8ue170006IPiS1_EEbRKNS_16reverse_iteratorIT_EERKNS2_IT0_EE, symObjAddr: 0x1CCDC, symBinAddr: 0x1000207E8, symSize: 0x48 }
  - { offsetInCU: 0x28E54, offset: 0x28E54, size: 0x8, addend: 0x0, symName: __ZNSt3__114__construct_atB8ue170006IiJiEPiEEPT_S3_DpOT0_, symObjAddr: 0x1CD24, symBinAddr: 0x100020830, symSize: 0x2C }
  - { offsetInCU: 0x28EC4, offset: 0x28EC4, size: 0x8, addend: 0x0, symName: __ZNSt3__112__to_addressB8ue170006INS_16reverse_iteratorIPiEEvEEu7__decayIDTclsr19__to_address_helperIT_EE6__callclsr3stdE7declvalIRKS4_EEEEES6_, symObjAddr: 0x1CD50, symBinAddr: 0x10002085C, symSize: 0x24 }
  - { offsetInCU: 0x28EFA, offset: 0x28EFA, size: 0x8, addend: 0x0, symName: __ZNSt3__14moveB8ue170006INS_16reverse_iteratorIPiEES3_EET0_T_S5_S4_, symObjAddr: 0x1CDBC, symBinAddr: 0x1000208C8, symSize: 0x78 }
  - { offsetInCU: 0x28F7D, offset: 0x28F7D, size: 0x8, addend: 0x0, symName: __ZNSt3__16__moveB8ue170006INS_17_ClassicAlgPolicyENS_16reverse_iteratorIPiEES4_S4_EENS_4pairIT0_T2_EES6_T1_S7_, symObjAddr: 0x1CEA4, symBinAddr: 0x1000209B0, symSize: 0x64 }
  - { offsetInCU: 0x28FE9, offset: 0x28FE9, size: 0x8, addend: 0x0, symName: __ZNSt3__123__dispatch_copy_or_moveB8ue170006INS_17_ClassicAlgPolicyENS_11__move_loopIS1_EENS_14__move_trivialENS_16reverse_iteratorIPiEES7_S7_EENS_4pairIT2_T4_EES9_T3_SA_, symObjAddr: 0x1CF08, symBinAddr: 0x100020A14, symSize: 0x64 }
  - { offsetInCU: 0x29067, offset: 0x29067, size: 0x8, addend: 0x0, symName: __ZNSt3__121__unwrap_and_dispatchB8ue170006INS_10__overloadINS_11__move_loopINS_17_ClassicAlgPolicyEEENS_14__move_trivialEEENS_16reverse_iteratorIPiEES9_S9_Li0EEENS_4pairIT0_T2_EESB_T1_SC_, symObjAddr: 0x1CF6C, symBinAddr: 0x100020A78, symSize: 0x12C }
  - { offsetInCU: 0x290F7, offset: 0x290F7, size: 0x8, addend: 0x0, symName: __ZNSt3__114__unwrap_rangeB8ue170006INS_16reverse_iteratorIPiEES3_EENS_4pairIT0_S5_EET_S7_, symObjAddr: 0x1D098, symBinAddr: 0x100020BA4, symSize: 0x84 }
  - { offsetInCU: 0x291F0, offset: 0x291F0, size: 0x8, addend: 0x0, symName: __ZNSt3__113__unwrap_iterB8ue170006INS_16reverse_iteratorIPiEENS_18__unwrap_iter_implIS3_Lb0EEELi0EEEDTclsrT0_8__unwrapclsr3stdE7declvalIT_EEEES7_, symObjAddr: 0x1D1BC, symBinAddr: 0x100020CC8, symSize: 0x44 }
  - { offsetInCU: 0x29234, offset: 0x29234, size: 0x8, addend: 0x0, symName: __ZNSt3__19make_pairB8ue170006INS_16reverse_iteratorIPiEES3_EENS_4pairINS_18__unwrap_ref_decayIT_E4typeENS5_IT0_E4typeEEEOS6_OS9_, symObjAddr: 0x1D200, symBinAddr: 0x100020D0C, symSize: 0x38 }
  - { offsetInCU: 0x29283, offset: 0x29283, size: 0x8, addend: 0x0, symName: __ZNSt3__114__rewrap_rangeB8ue170006INS_16reverse_iteratorIPiEES3_EET_S4_T0_, symObjAddr: 0x1D238, symBinAddr: 0x100020D44, symSize: 0x5C }
  - { offsetInCU: 0x292CF, offset: 0x292CF, size: 0x8, addend: 0x0, symName: __ZNSt3__113__rewrap_iterB8ue170006INS_16reverse_iteratorIPiEES3_NS_18__unwrap_iter_implIS3_Lb0EEEEET_S6_T0_, symObjAddr: 0x1D294, symBinAddr: 0x100020DA0, symSize: 0x88 }
  - { offsetInCU: 0x293C3, offset: 0x293C3, size: 0x8, addend: 0x0, symName: __ZNSt3__1neB8ue170006ERKNS_14__map_iteratorINS_15__tree_iteratorINS_12__value_typeINS_12basic_stringIcNS_11char_traitsIcEENS_9allocatorIcEEEE18ValidatorBoundsHitEEPNS_11__tree_nodeISA_PvEElEEEESI_, symObjAddr: 0x1EFF0, symBinAddr: 0x100022AFC, symSize: 0x30 }
  - { offsetInCU: 0x29400, offset: 0x29400, size: 0x8, addend: 0x0, symName: __ZNSt3__1neB8ue170006ERKNS_15__tree_iteratorINS_12__value_typeINS_12basic_stringIcNS_11char_traitsIcEENS_9allocatorIcEEEE18ValidatorBoundsHitEEPNS_11__tree_nodeIS9_PvEElEESG_, symObjAddr: 0x1F1C0, symBinAddr: 0x100022CCC, symSize: 0x34 }
  - { offsetInCU: 0x2943E, offset: 0x2943E, size: 0x8, addend: 0x0, symName: __ZNSt3__1eqB8ue170006ERKNS_15__tree_iteratorINS_12__value_typeINS_12basic_stringIcNS_11char_traitsIcEENS_9allocatorIcEEEE18ValidatorBoundsHitEEPNS_11__tree_nodeIS9_PvEElEESG_, symObjAddr: 0x1F1F4, symBinAddr: 0x100022D00, symSize: 0x30 }
  - { offsetInCU: 0x294E0, offset: 0x294E0, size: 0x8, addend: 0x0, symName: __ZNSt3__116__tree_next_iterB8ue170006IPNS_15__tree_end_nodeIPNS_16__tree_node_baseIPvEEEES5_EET_T0_, symObjAddr: 0x1F328, symBinAddr: 0x100022E34, symSize: 0xA4 }
  - { offsetInCU: 0x2951E, offset: 0x2951E, size: 0x8, addend: 0x0, symName: __ZNSt3__110__tree_minB8ue170006IPNS_16__tree_node_baseIPvEEEET_S5_, symObjAddr: 0x1F3CC, symBinAddr: 0x100022ED8, symSize: 0x40 }
  - { offsetInCU: 0x29553, offset: 0x29553, size: 0x8, addend: 0x0, symName: __ZNSt3__120__tree_is_left_childB8ue170006IPNS_16__tree_node_baseIPvEEEEbT_, symObjAddr: 0x1F40C, symBinAddr: 0x100022F18, symSize: 0x2C }
  - { offsetInCU: 0x29588, offset: 0x29588, size: 0x8, addend: 0x0, symName: __ZNSt3__1neB8ue170006ERKNS_21__tree_const_iteratorINS_12basic_stringIcNS_11char_traitsIcEENS_9allocatorIcEEEEPNS_11__tree_nodeIS6_PvEElEESD_, symObjAddr: 0x1F488, symBinAddr: 0x100022F94, symSize: 0x34 }
  - { offsetInCU: 0x295C6, offset: 0x295C6, size: 0x8, addend: 0x0, symName: __ZNSt3__1eqB8ue170006ERKNS_21__tree_const_iteratorINS_12basic_stringIcNS_11char_traitsIcEENS_9allocatorIcEEEEPNS_11__tree_nodeIS6_PvEElEESD_, symObjAddr: 0x1F658, symBinAddr: 0x100023164, symSize: 0x30 }
  - { offsetInCU: 0x29602, offset: 0x29602, size: 0x8, addend: 0x0, symName: __ZNSt3__1ltB8ue170006IcNS_11char_traitsIcEENS_9allocatorIcEEEEbRKNS_12basic_stringIT_T0_T1_EESB_, symObjAddr: 0x1F830, symBinAddr: 0x10002333C, symSize: 0x38 }
  - { offsetInCU: 0x2965A, offset: 0x2965A, size: 0x8, addend: 0x0, symName: __ZNSt3__112__to_addressB8ue170006IKcEEPT_S3_, symObjAddr: 0x1FB00, symBinAddr: 0x10002360C, symSize: 0x14 }
  - { offsetInCU: 0x296C2, offset: 0x296C2, size: 0x8, addend: 0x0, symName: __ZNSt3__1plB8ue170006IcNS_11char_traitsIcEENS_9allocatorIcEEEENS_12basic_stringIT_T0_T1_EERKS9_S6_, symObjAddr: 0x202C0, symBinAddr: 0x100023DCC, symSize: 0x110 }
  - { offsetInCU: 0x29956, offset: 0x29956, size: 0x8, addend: 0x0, symName: __ZNSt3__14copyB8ue170006IPKcPcEET0_T_S5_S4_, symObjAddr: 0x20BF8, symBinAddr: 0x100024704, symSize: 0x40 }
  - { offsetInCU: 0x299B0, offset: 0x299B0, size: 0x8, addend: 0x0, symName: __ZNSt3__16__copyB8ue170006INS_17_ClassicAlgPolicyEPKcS3_PcEENS_4pairIT0_T2_EES6_T1_S7_, symObjAddr: 0x20C38, symBinAddr: 0x100024744, symSize: 0x44 }
  - { offsetInCU: 0x29A1C, offset: 0x29A1C, size: 0x8, addend: 0x0, symName: __ZNSt3__123__dispatch_copy_or_moveB8ue170006INS_17_ClassicAlgPolicyENS_11__copy_loopIS1_EENS_14__copy_trivialEPKcS6_PcEENS_4pairIT2_T4_EES9_T3_SA_, symObjAddr: 0x20C7C, symBinAddr: 0x100024788, symSize: 0x44 }
  - { offsetInCU: 0x29A9A, offset: 0x29A9A, size: 0x8, addend: 0x0, symName: __ZNSt3__121__unwrap_and_dispatchB8ue170006INS_10__overloadINS_11__copy_loopINS_17_ClassicAlgPolicyEEENS_14__copy_trivialEEEPKcS8_PcLi0EEENS_4pairIT0_T2_EESB_T1_SC_, symObjAddr: 0x20CC0, symBinAddr: 0x1000247CC, symSize: 0xB4 }
  - { offsetInCU: 0x29B28, offset: 0x29B28, size: 0x8, addend: 0x0, symName: __ZNSt3__114__unwrap_rangeB8ue170006IPKcS2_EENS_4pairIT0_S4_EET_S6_, symObjAddr: 0x20D74, symBinAddr: 0x100024880, symSize: 0x60 }
  - { offsetInCU: 0x29C21, offset: 0x29C21, size: 0x8, addend: 0x0, symName: __ZNSt3__19make_pairB8ue170006IPKcPcEENS_4pairINS_18__unwrap_ref_decayIT_E4typeENS5_IT0_E4typeEEEOS6_OS9_, symObjAddr: 0x20E1C, symBinAddr: 0x100024928, symSize: 0x38 }
  - { offsetInCU: 0x29C70, offset: 0x29C70, size: 0x8, addend: 0x0, symName: __ZNSt3__114__rewrap_rangeB8ue170006IPKcS2_EET_S3_T0_, symObjAddr: 0x20E54, symBinAddr: 0x100024960, symSize: 0x2C }
  - { offsetInCU: 0x29CBC, offset: 0x29CBC, size: 0x8, addend: 0x0, symName: __ZNSt3__19make_pairB8ue170006IPKcS2_EENS_4pairINS_18__unwrap_ref_decayIT_E4typeENS4_IT0_E4typeEEEOS5_OS8_, symObjAddr: 0x20E80, symBinAddr: 0x10002498C, symSize: 0x38 }
  - { offsetInCU: 0x29D0B, offset: 0x29D0B, size: 0x8, addend: 0x0, symName: __ZNSt3__113__unwrap_iterB8ue170006IPKcNS_18__unwrap_iter_implIS2_Lb1EEELi0EEEDTclsrT0_8__unwrapclsr3stdE7declvalIT_EEEES6_, symObjAddr: 0x20EB8, symBinAddr: 0x1000249C4, symSize: 0x24 }
  - { offsetInCU: 0x29E4F, offset: 0x29E4F, size: 0x8, addend: 0x0, symName: __ZNSt3__119__copy_trivial_implB8ue170006IKccEENS_4pairIPT_PT0_EES4_S4_S6_, symObjAddr: 0x20F70, symBinAddr: 0x100024A7C, symSize: 0x78 }
  - { offsetInCU: 0x29EB7, offset: 0x29EB7, size: 0x8, addend: 0x0, symName: __ZNSt3__119__constexpr_memmoveB8ue170006IcKcLi0EEEPT_S3_PT0_NS_15__element_countE, symObjAddr: 0x20FE8, symBinAddr: 0x100024AF4, symSize: 0xA0 }
  - { offsetInCU: 0x29F25, offset: 0x29F25, size: 0x8, addend: 0x0, symName: __ZNSt3__19make_pairB8ue170006IRPKcPcEENS_4pairINS_18__unwrap_ref_decayIT_E4typeENS6_IT0_E4typeEEEOS7_OSA_, symObjAddr: 0x21088, symBinAddr: 0x100024B94, symSize: 0x38 }
  - { offsetInCU: 0x29F74, offset: 0x29F74, size: 0x8, addend: 0x0, symName: __ZNSt3__113__rewrap_iterB8ue170006IPKcS2_NS_18__unwrap_iter_implIS2_Lb1EEEEET_S5_T0_, symObjAddr: 0x21130, symBinAddr: 0x100024C3C, symSize: 0x50 }
  - { offsetInCU: 0x29FC9, offset: 0x29FC9, size: 0x8, addend: 0x0, symName: __ZNSt3__16fill_nB8ue170006IPcmcEET_S2_T0_RKT1_, symObjAddr: 0x211C8, symBinAddr: 0x100024CD4, symSize: 0x44 }
  - { offsetInCU: 0x2A02C, offset: 0x2A02C, size: 0x8, addend: 0x0, symName: __ZNSt3__18__fill_nB8ue170006IPcmcEET_S2_T0_RKT1_, symObjAddr: 0x2120C, symBinAddr: 0x100024D18, symSize: 0x64 }
  - { offsetInCU: 0x2A08F, offset: 0x2A08F, size: 0x8, addend: 0x0, symName: __ZNSt3__121__convert_to_integralB8ue170006Em, symObjAddr: 0x21270, symBinAddr: 0x100024D7C, symSize: 0x14 }
  - { offsetInCU: 0x2A0D9, offset: 0x2A0D9, size: 0x8, addend: 0x0, symName: __ZNSt3__127__tree_balance_after_insertB8ue170006IPNS_16__tree_node_baseIPvEEEEvT_S5_, symObjAddr: 0x23414, symBinAddr: 0x100026F20, symSize: 0x27C }
  - { offsetInCU: 0x2A155, offset: 0x2A155, size: 0x8, addend: 0x0, symName: __ZNSt3__118__tree_left_rotateB8ue170006IPNS_16__tree_node_baseIPvEEEEvT_, symObjAddr: 0x236B8, symBinAddr: 0x1000271C4, symSize: 0xEC }
  - { offsetInCU: 0x2A197, offset: 0x2A197, size: 0x8, addend: 0x0, symName: __ZNSt3__119__tree_right_rotateB8ue170006IPNS_16__tree_node_baseIPvEEEEvT_, symObjAddr: 0x237A4, symBinAddr: 0x1000272B0, symSize: 0xCC }
  - { offsetInCU: 0x2A1F7, offset: 0x2A1F7, size: 0x8, addend: 0x0, symName: __ZNSt3__112__to_addressB8ue170006INS_6vectorIiNS_9allocatorIiEEEEEEPT_S6_, symObjAddr: 0x25644, symBinAddr: 0x100029150, symSize: 0x14 }
  - { offsetInCU: 0x2A22C, offset: 0x2A22C, size: 0x8, addend: 0x0, symName: __ZNSt3__119__allocate_at_leastB8ue170006INS_9allocatorINS_6vectorIiNS1_IiEEEEEEEENS_19__allocation_resultINS_16allocator_traitsIT_E7pointerEEERS8_m, symObjAddr: 0x26044, symBinAddr: 0x100029B50, symSize: 0x40 }
  - { offsetInCU: 0x2A26F, offset: 0x2A26F, size: 0x8, addend: 0x0, symName: __ZNSt3__142__uninitialized_allocator_move_if_noexceptB8ue170006INS_9allocatorINS_6vectorIiNS1_IiEEEEEENS_16reverse_iteratorIPS4_EES8_S8_EET2_RT_T0_T1_S9_, symObjAddr: 0x2622C, symBinAddr: 0x100029D38, symSize: 0x134 }
  - { offsetInCU: 0x2A30F, offset: 0x2A30F, size: 0x8, addend: 0x0, symName: __ZNSt3__14swapB8ue170006IPNS_6vectorIiNS_9allocatorIiEEEEEEvRT_S7_, symObjAddr: 0x263AC, symBinAddr: 0x100029EB8, symSize: 0x3C }
  - { offsetInCU: 0x2A360, offset: 0x2A360, size: 0x8, addend: 0x0, symName: __ZNSt3__122__make_exception_guardB8ue170006INS_29_AllocatorDestroyRangeReverseINS_9allocatorINS_6vectorIiNS2_IiEEEEEENS_16reverse_iteratorIPS5_EEEEEENS_28__exception_guard_exceptionsIT_EESC_, symObjAddr: 0x264B0, symBinAddr: 0x100029FBC, symSize: 0x4C }
  - { offsetInCU: 0x2A396, offset: 0x2A396, size: 0x8, addend: 0x0, symName: __ZNSt3__1neB8ue170006IPNS_6vectorIiNS_9allocatorIiEEEES5_EEbRKNS_16reverse_iteratorIT_EERKNS6_IT0_EE, symObjAddr: 0x26540, symBinAddr: 0x10002A04C, symSize: 0x48 }
  - { offsetInCU: 0x2A3E2, offset: 0x2A3E2, size: 0x8, addend: 0x0, symName: __ZNSt3__112__to_addressB8ue170006INS_16reverse_iteratorIPNS_6vectorIiNS_9allocatorIiEEEEEEvEEu7__decayIDTclsr19__to_address_helperIT_EE6__callclsr3stdE7declvalIRKS8_EEEEESA_, symObjAddr: 0x26588, symBinAddr: 0x10002A094, symSize: 0x24 }
  - { offsetInCU: 0x2A441, offset: 0x2A441, size: 0x8, addend: 0x0, symName: __ZNSt3__119__allocator_destroyB8ue170006INS_9allocatorINS_6vectorIiNS1_IiEEEEEENS_16reverse_iteratorINS6_IPS4_EEEES9_EEvRT_T0_T1_, symObjAddr: 0x26844, symBinAddr: 0x10002A350, symSize: 0x70 }
  - { offsetInCU: 0x2A4A6, offset: 0x2A4A6, size: 0x8, addend: 0x0, symName: __ZNSt3__1neB8ue170006INS_16reverse_iteratorIPNS_6vectorIiNS_9allocatorIiEEEEEES7_EEbRKNS1_IT_EERKNS1_IT0_EE, symObjAddr: 0x268F0, symBinAddr: 0x10002A3FC, symSize: 0x60 }
  - { offsetInCU: 0x2A4F2, offset: 0x2A4F2, size: 0x8, addend: 0x0, symName: __ZNSt3__112__to_addressB8ue170006INS_16reverse_iteratorINS1_IPNS_6vectorIiNS_9allocatorIiEEEEEEEEvEEu7__decayIDTclsr19__to_address_helperIT_EE6__callclsr3stdE7declvalIRKS9_EEEEESB_, symObjAddr: 0x26950, symBinAddr: 0x10002A45C, symSize: 0x24 }
  - { offsetInCU: 0x2A551, offset: 0x2A551, size: 0x8, addend: 0x0, symName: __ZNSt3__112__to_addressB8ue170006IdEEPT_S2_, symObjAddr: 0x272D8, symBinAddr: 0x10002ADE4, symSize: 0x14 }
  - { offsetInCU: 0x2A586, offset: 0x2A586, size: 0x8, addend: 0x0, symName: __ZNSt3__119__allocate_at_leastB8ue170006INS_9allocatorIdEEEENS_19__allocation_resultINS_16allocator_traitsIT_E7pointerEEERS5_m, symObjAddr: 0x27910, symBinAddr: 0x10002B41C, symSize: 0x40 }
  - { offsetInCU: 0x2A5C9, offset: 0x2A5C9, size: 0x8, addend: 0x0, symName: __ZNSt3__142__uninitialized_allocator_move_if_noexceptB8ue170006INS_9allocatorIdEENS_16reverse_iteratorIPdEES5_dvEET1_RT_T0_S9_S6_, symObjAddr: 0x27BA8, symBinAddr: 0x10002B6B4, symSize: 0xE8 }
  - { offsetInCU: 0x2A646, offset: 0x2A646, size: 0x8, addend: 0x0, symName: __ZNSt3__14swapB8ue170006IPdEEvRT_S3_, symObjAddr: 0x27CDC, symBinAddr: 0x10002B7E8, symSize: 0x3C }
  - { offsetInCU: 0x2A697, offset: 0x2A697, size: 0x8, addend: 0x0, symName: __ZNSt3__1neB8ue170006IPdS1_EEbRKNS_16reverse_iteratorIT_EERKNS2_IT0_EE, symObjAddr: 0x27E0C, symBinAddr: 0x10002B918, symSize: 0x48 }
  - { offsetInCU: 0x2A708, offset: 0x2A708, size: 0x8, addend: 0x0, symName: __ZNSt3__114__construct_atB8ue170006IdJdEPdEEPT_S3_DpOT0_, symObjAddr: 0x27E54, symBinAddr: 0x10002B960, symSize: 0x2C }
  - { offsetInCU: 0x2A778, offset: 0x2A778, size: 0x8, addend: 0x0, symName: __ZNSt3__112__to_addressB8ue170006INS_16reverse_iteratorIPdEEvEEu7__decayIDTclsr19__to_address_helperIT_EE6__callclsr3stdE7declvalIRKS4_EEEEES6_, symObjAddr: 0x27E80, symBinAddr: 0x10002B98C, symSize: 0x24 }
  - { offsetInCU: 0x2A7AE, offset: 0x2A7AE, size: 0x8, addend: 0x0, symName: __ZNSt3__14moveB8ue170006INS_16reverse_iteratorIPdEES3_EET0_T_S5_S4_, symObjAddr: 0x27EEC, symBinAddr: 0x10002B9F8, symSize: 0x78 }
  - { offsetInCU: 0x2A831, offset: 0x2A831, size: 0x8, addend: 0x0, symName: __ZNSt3__16__moveB8ue170006INS_17_ClassicAlgPolicyENS_16reverse_iteratorIPdEES4_S4_EENS_4pairIT0_T2_EES6_T1_S7_, symObjAddr: 0x27FD4, symBinAddr: 0x10002BAE0, symSize: 0x64 }
  - { offsetInCU: 0x2A89D, offset: 0x2A89D, size: 0x8, addend: 0x0, symName: __ZNSt3__123__dispatch_copy_or_moveB8ue170006INS_17_ClassicAlgPolicyENS_11__move_loopIS1_EENS_14__move_trivialENS_16reverse_iteratorIPdEES7_S7_EENS_4pairIT2_T4_EES9_T3_SA_, symObjAddr: 0x28038, symBinAddr: 0x10002BB44, symSize: 0x64 }
  - { offsetInCU: 0x2A91B, offset: 0x2A91B, size: 0x8, addend: 0x0, symName: __ZNSt3__121__unwrap_and_dispatchB8ue170006INS_10__overloadINS_11__move_loopINS_17_ClassicAlgPolicyEEENS_14__move_trivialEEENS_16reverse_iteratorIPdEES9_S9_Li0EEENS_4pairIT0_T2_EESB_T1_SC_, symObjAddr: 0x2809C, symBinAddr: 0x10002BBA8, symSize: 0x12C }
  - { offsetInCU: 0x2A9AB, offset: 0x2A9AB, size: 0x8, addend: 0x0, symName: __ZNSt3__114__unwrap_rangeB8ue170006INS_16reverse_iteratorIPdEES3_EENS_4pairIT0_S5_EET_S7_, symObjAddr: 0x281C8, symBinAddr: 0x10002BCD4, symSize: 0x84 }
  - { offsetInCU: 0x2AAA4, offset: 0x2AAA4, size: 0x8, addend: 0x0, symName: __ZNSt3__113__unwrap_iterB8ue170006INS_16reverse_iteratorIPdEENS_18__unwrap_iter_implIS3_Lb0EEELi0EEEDTclsrT0_8__unwrapclsr3stdE7declvalIT_EEEES7_, symObjAddr: 0x282EC, symBinAddr: 0x10002BDF8, symSize: 0x44 }
  - { offsetInCU: 0x2AAE8, offset: 0x2AAE8, size: 0x8, addend: 0x0, symName: __ZNSt3__19make_pairB8ue170006INS_16reverse_iteratorIPdEES3_EENS_4pairINS_18__unwrap_ref_decayIT_E4typeENS5_IT0_E4typeEEEOS6_OS9_, symObjAddr: 0x28330, symBinAddr: 0x10002BE3C, symSize: 0x38 }
  - { offsetInCU: 0x2AB37, offset: 0x2AB37, size: 0x8, addend: 0x0, symName: __ZNSt3__114__rewrap_rangeB8ue170006INS_16reverse_iteratorIPdEES3_EET_S4_T0_, symObjAddr: 0x28368, symBinAddr: 0x10002BE74, symSize: 0x5C }
  - { offsetInCU: 0x2AB83, offset: 0x2AB83, size: 0x8, addend: 0x0, symName: __ZNSt3__113__rewrap_iterB8ue170006INS_16reverse_iteratorIPdEES3_NS_18__unwrap_iter_implIS3_Lb0EEEEET_S6_T0_, symObjAddr: 0x283C4, symBinAddr: 0x10002BED0, symSize: 0x88 }
  - { offsetInCU: 0x2AC44, offset: 0x2AC44, size: 0x8, addend: 0x0, symName: __ZNSt3__14iotaB8ue170006INS_11__wrap_iterIPjEEiEEvT_S4_T0_, symObjAddr: 0x288CC, symBinAddr: 0x10002C3D8, symSize: 0x70 }
  - { offsetInCU: 0x2AC9A, offset: 0x2AC9A, size: 0x8, addend: 0x0, symName: __ZNSt3__112__to_addressB8ue170006IjEEPT_S2_, symObjAddr: 0x290AC, symBinAddr: 0x10002CBB8, symSize: 0x14 }
  - { offsetInCU: 0x2ACCF, offset: 0x2ACCF, size: 0x8, addend: 0x0, symName: __ZNSt3__119__allocate_at_leastB8ue170006INS_9allocatorIjEEEENS_19__allocation_resultINS_16allocator_traitsIT_E7pointerEEERS5_m, symObjAddr: 0x2947C, symBinAddr: 0x10002CF88, symSize: 0x40 }
  - { offsetInCU: 0x2AD12, offset: 0x2AD12, size: 0x8, addend: 0x0, symName: __ZNSt3__142__uninitialized_allocator_move_if_noexceptB8ue170006INS_9allocatorIjEENS_16reverse_iteratorIPjEES5_jvEET1_RT_T0_S9_S6_, symObjAddr: 0x297E0, symBinAddr: 0x10002D2EC, symSize: 0xE8 }
  - { offsetInCU: 0x2AD8F, offset: 0x2AD8F, size: 0x8, addend: 0x0, symName: __ZNSt3__14swapB8ue170006IPjEEvRT_S3_, symObjAddr: 0x29914, symBinAddr: 0x10002D420, symSize: 0x3C }
  - { offsetInCU: 0x2ADE0, offset: 0x2ADE0, size: 0x8, addend: 0x0, symName: __ZNSt3__1neB8ue170006IPjS1_EEbRKNS_16reverse_iteratorIT_EERKNS2_IT0_EE, symObjAddr: 0x29A44, symBinAddr: 0x10002D550, symSize: 0x48 }
  - { offsetInCU: 0x2AE51, offset: 0x2AE51, size: 0x8, addend: 0x0, symName: __ZNSt3__114__construct_atB8ue170006IjJjEPjEEPT_S3_DpOT0_, symObjAddr: 0x29A8C, symBinAddr: 0x10002D598, symSize: 0x2C }
  - { offsetInCU: 0x2AEC1, offset: 0x2AEC1, size: 0x8, addend: 0x0, symName: __ZNSt3__112__to_addressB8ue170006INS_16reverse_iteratorIPjEEvEEu7__decayIDTclsr19__to_address_helperIT_EE6__callclsr3stdE7declvalIRKS4_EEEEES6_, symObjAddr: 0x29AB8, symBinAddr: 0x10002D5C4, symSize: 0x24 }
  - { offsetInCU: 0x2AEF7, offset: 0x2AEF7, size: 0x8, addend: 0x0, symName: __ZNSt3__14moveB8ue170006INS_16reverse_iteratorIPjEES3_EET0_T_S5_S4_, symObjAddr: 0x29B24, symBinAddr: 0x10002D630, symSize: 0x78 }
  - { offsetInCU: 0x2AF7A, offset: 0x2AF7A, size: 0x8, addend: 0x0, symName: __ZNSt3__16__moveB8ue170006INS_17_ClassicAlgPolicyENS_16reverse_iteratorIPjEES4_S4_EENS_4pairIT0_T2_EES6_T1_S7_, symObjAddr: 0x29C0C, symBinAddr: 0x10002D718, symSize: 0x64 }
  - { offsetInCU: 0x2AFE6, offset: 0x2AFE6, size: 0x8, addend: 0x0, symName: __ZNSt3__123__dispatch_copy_or_moveB8ue170006INS_17_ClassicAlgPolicyENS_11__move_loopIS1_EENS_14__move_trivialENS_16reverse_iteratorIPjEES7_S7_EENS_4pairIT2_T4_EES9_T3_SA_, symObjAddr: 0x29C70, symBinAddr: 0x10002D77C, symSize: 0x64 }
  - { offsetInCU: 0x2B064, offset: 0x2B064, size: 0x8, addend: 0x0, symName: __ZNSt3__121__unwrap_and_dispatchB8ue170006INS_10__overloadINS_11__move_loopINS_17_ClassicAlgPolicyEEENS_14__move_trivialEEENS_16reverse_iteratorIPjEES9_S9_Li0EEENS_4pairIT0_T2_EESB_T1_SC_, symObjAddr: 0x29CD4, symBinAddr: 0x10002D7E0, symSize: 0x12C }
  - { offsetInCU: 0x2B0F4, offset: 0x2B0F4, size: 0x8, addend: 0x0, symName: __ZNSt3__114__unwrap_rangeB8ue170006INS_16reverse_iteratorIPjEES3_EENS_4pairIT0_S5_EET_S7_, symObjAddr: 0x29E00, symBinAddr: 0x10002D90C, symSize: 0x84 }
  - { offsetInCU: 0x2B1ED, offset: 0x2B1ED, size: 0x8, addend: 0x0, symName: __ZNSt3__113__unwrap_iterB8ue170006INS_16reverse_iteratorIPjEENS_18__unwrap_iter_implIS3_Lb0EEELi0EEEDTclsrT0_8__unwrapclsr3stdE7declvalIT_EEEES7_, symObjAddr: 0x29F24, symBinAddr: 0x10002DA30, symSize: 0x44 }
  - { offsetInCU: 0x2B231, offset: 0x2B231, size: 0x8, addend: 0x0, symName: __ZNSt3__19make_pairB8ue170006INS_16reverse_iteratorIPjEES3_EENS_4pairINS_18__unwrap_ref_decayIT_E4typeENS5_IT0_E4typeEEEOS6_OS9_, symObjAddr: 0x29F68, symBinAddr: 0x10002DA74, symSize: 0x38 }
  - { offsetInCU: 0x2B280, offset: 0x2B280, size: 0x8, addend: 0x0, symName: __ZNSt3__114__rewrap_rangeB8ue170006INS_16reverse_iteratorIPjEES3_EET_S4_T0_, symObjAddr: 0x29FA0, symBinAddr: 0x10002DAAC, symSize: 0x5C }
  - { offsetInCU: 0x2B2CC, offset: 0x2B2CC, size: 0x8, addend: 0x0, symName: __ZNSt3__113__rewrap_iterB8ue170006INS_16reverse_iteratorIPjEES3_NS_18__unwrap_iter_implIS3_Lb0EEEEET_S6_T0_, symObjAddr: 0x29FFC, symBinAddr: 0x10002DB08, symSize: 0x88 }
  - { offsetInCU: 0x2B38D, offset: 0x2B38D, size: 0x8, addend: 0x0, symName: __ZNSt3__1neB8ue170006IPjEEbRKNS_11__wrap_iterIT_EES6_, symObjAddr: 0x2A5C4, symBinAddr: 0x10002E0D0, symSize: 0x34 }
  - { offsetInCU: 0x2B3D0, offset: 0x2B3D0, size: 0x8, addend: 0x0, symName: __ZNSt3__1eqB8ue170006IPjEEbRKNS_11__wrap_iterIT_EES6_, symObjAddr: 0x2A630, symBinAddr: 0x10002E13C, symSize: 0x48 }
  - { offsetInCU: 0x2B413, offset: 0x2B413, size: 0x8, addend: 0x0, symName: __ZNSt3__14fillB8ue170006INS_11__wrap_iterIPjEEiEEvT_S4_RKT0_, symObjAddr: 0x2AB30, symBinAddr: 0x10002E63C, symSize: 0x44 }
  - { offsetInCU: 0x2B469, offset: 0x2B469, size: 0x8, addend: 0x0, symName: __ZNSt3__16__fillB8ue170006INS_11__wrap_iterIPjEEiEEvT_S4_RKT0_NS_26random_access_iterator_tagE, symObjAddr: 0x2AB74, symBinAddr: 0x10002E680, symSize: 0x50 }
  - { offsetInCU: 0x2B4C9, offset: 0x2B4C9, size: 0x8, addend: 0x0, symName: __ZNSt3__16fill_nB8ue170006INS_11__wrap_iterIPjEEliEET_S4_T0_RKT1_, symObjAddr: 0x2ABC4, symBinAddr: 0x10002E6D0, symSize: 0x4C }
  - { offsetInCU: 0x2B52C, offset: 0x2B52C, size: 0x8, addend: 0x0, symName: __ZNSt3__1miB8ue170006IPjS1_EENS_11__wrap_iterIT_E15difference_typeERKS4_RKNS2_IT0_EE, symObjAddr: 0x2AC10, symBinAddr: 0x10002E71C, symSize: 0x48 }
  - { offsetInCU: 0x2B578, offset: 0x2B578, size: 0x8, addend: 0x0, symName: __ZNSt3__18__fill_nB8ue170006INS_11__wrap_iterIPjEEliEET_S4_T0_RKT1_, symObjAddr: 0x2AC58, symBinAddr: 0x10002E764, symSize: 0x80 }
  - { offsetInCU: 0x2B5DB, offset: 0x2B5DB, size: 0x8, addend: 0x0, symName: __ZNSt3__122__make_exception_guardB8ue170006INS_6vectorIdNS_9allocatorIdEEE16__destroy_vectorEEENS_28__exception_guard_exceptionsIT_EES7_, symObjAddr: 0x2AF98, symBinAddr: 0x10002EAA4, symSize: 0x40 }
  - { offsetInCU: 0x2B610, offset: 0x2B610, size: 0x8, addend: 0x0, symName: __ZNSt3__130__uninitialized_allocator_copyB8ue170006INS_9allocatorIdEEPdS3_S3_EET2_RT_T0_T1_S4_, symObjAddr: 0x2B20C, symBinAddr: 0x10002ED18, symSize: 0x80 }
  - { offsetInCU: 0x2B6AD, offset: 0x2B6AD, size: 0x8, addend: 0x0, symName: __ZNSt3__114__unwrap_rangeB8ue170006IPdS1_EENS_4pairIT0_S3_EET_S5_, symObjAddr: 0x2B28C, symBinAddr: 0x10002ED98, symSize: 0x60 }
  - { offsetInCU: 0x2B6F9, offset: 0x2B6F9, size: 0x8, addend: 0x0, symName: __ZNSt3__135__uninitialized_allocator_copy_implB8ue170006INS_9allocatorIdEEPdS3_S3_EET2_RT_T0_T1_S4_, symObjAddr: 0x2B2EC, symBinAddr: 0x10002EDF8, symSize: 0xFC }
  - { offsetInCU: 0x2B797, offset: 0x2B797, size: 0x8, addend: 0x0, symName: __ZNSt3__113__unwrap_iterB8ue170006IPdNS_18__unwrap_iter_implIS1_Lb1EEELi0EEEDTclsrT0_8__unwrapclsr3stdE7declvalIT_EEEES5_, symObjAddr: 0x2B3E8, symBinAddr: 0x10002EEF4, symSize: 0x24 }
  - { offsetInCU: 0x2B7DB, offset: 0x2B7DB, size: 0x8, addend: 0x0, symName: __ZNSt3__113__rewrap_iterB8ue170006IPdS1_NS_18__unwrap_iter_implIS1_Lb1EEEEET_S4_T0_, symObjAddr: 0x2B40C, symBinAddr: 0x10002EF18, symSize: 0x50 }
  - { offsetInCU: 0x2B830, offset: 0x2B830, size: 0x8, addend: 0x0, symName: __ZNSt3__19make_pairB8ue170006IPdS1_EENS_4pairINS_18__unwrap_ref_decayIT_E4typeENS3_IT0_E4typeEEEOS4_OS7_, symObjAddr: 0x2B45C, symBinAddr: 0x10002EF68, symSize: 0x38 }
  - { offsetInCU: 0x2B92C, offset: 0x2B92C, size: 0x8, addend: 0x0, symName: __ZNSt3__122__make_exception_guardB8ue170006INS_29_AllocatorDestroyRangeReverseINS_9allocatorIdEEPdEEEENS_28__exception_guard_exceptionsIT_EES7_, symObjAddr: 0x2B504, symBinAddr: 0x10002F010, symSize: 0x4C }
  - { offsetInCU: 0x2B962, offset: 0x2B962, size: 0x8, addend: 0x0, symName: __ZNSt3__119__allocator_destroyB8ue170006INS_9allocatorIdEENS_16reverse_iteratorIPdEES5_EEvRT_T0_T1_, symObjAddr: 0x2B784, symBinAddr: 0x10002F290, symSize: 0x70 }
  - { offsetInCU: 0x2BA18, offset: 0x2BA18, size: 0x8, addend: 0x0, symName: __ZNSt3__19make_pairB8ue170006IdRdEENS_4pairINS_18__unwrap_ref_decayIT_E4typeENS3_IT0_E4typeEEEOS4_OS7_, symObjAddr: 0x2C230, symBinAddr: 0x10002FD3C, symSize: 0x38 }
  - { offsetInCU: 0x2BA67, offset: 0x2BA67, size: 0x8, addend: 0x0, symName: __ZNSt3__18distanceB8ue170006IPiEENS_15iterator_traitsIT_E15difference_typeES3_S3_, symObjAddr: 0x2C468, symBinAddr: 0x10002FF74, symSize: 0x2C }
  - { offsetInCU: 0x2BAAA, offset: 0x2BAAA, size: 0x8, addend: 0x0, symName: __ZNSt3__14nextB8ue170006IPiEENS_9enable_ifIXsr29__has_input_iterator_categoryIT_EE5valueES3_E4typeES3_NS_15iterator_traitsIS3_E15difference_typeE, symObjAddr: 0x2C494, symBinAddr: 0x10002FFA0, symSize: 0x34 }
  - { offsetInCU: 0x2BAED, offset: 0x2BAED, size: 0x8, addend: 0x0, symName: __ZNSt3__14copyB8ue170006IPiS1_EET0_T_S3_S2_, symObjAddr: 0x2C4C8, symBinAddr: 0x10002FFD4, symSize: 0x40 }
  - { offsetInCU: 0x2BB47, offset: 0x2BB47, size: 0x8, addend: 0x0, symName: __ZNSt3__16__copyB8ue170006INS_17_ClassicAlgPolicyEPiS2_S2_EENS_4pairIT0_T2_EES4_T1_S5_, symObjAddr: 0x2C59C, symBinAddr: 0x1000300A8, symSize: 0x44 }
  - { offsetInCU: 0x2BBB4, offset: 0x2BBB4, size: 0x8, addend: 0x0, symName: __ZNSt3__19__advanceB8ue170006IPiEEvRT_NS_15iterator_traitsIS2_E15difference_typeENS_26random_access_iterator_tagE, symObjAddr: 0x2C758, symBinAddr: 0x100030264, symSize: 0x28 }
  - { offsetInCU: 0x2BBFC, offset: 0x2BBFC, size: 0x8, addend: 0x0, symName: __ZNSt3__130__uninitialized_allocator_copyB8ue170006INS_9allocatorIiEEPiS3_S3_EET2_RT_T0_T1_S4_, symObjAddr: 0x2C780, symBinAddr: 0x10003028C, symSize: 0x80 }
  - { offsetInCU: 0x2BC99, offset: 0x2BC99, size: 0x8, addend: 0x0, symName: __ZNSt3__114__unwrap_rangeB8ue170006IPiS1_EENS_4pairIT0_S3_EET_S5_, symObjAddr: 0x2C800, symBinAddr: 0x10003030C, symSize: 0x60 }
  - { offsetInCU: 0x2BCE5, offset: 0x2BCE5, size: 0x8, addend: 0x0, symName: __ZNSt3__135__uninitialized_allocator_copy_implB8ue170006INS_9allocatorIiEEPiS3_S3_EET2_RT_T0_T1_S4_, symObjAddr: 0x2C860, symBinAddr: 0x10003036C, symSize: 0xFC }
  - { offsetInCU: 0x2BD83, offset: 0x2BD83, size: 0x8, addend: 0x0, symName: __ZNSt3__113__unwrap_iterB8ue170006IPiNS_18__unwrap_iter_implIS1_Lb1EEELi0EEEDTclsrT0_8__unwrapclsr3stdE7declvalIT_EEEES5_, symObjAddr: 0x2C95C, symBinAddr: 0x100030468, symSize: 0x24 }
  - { offsetInCU: 0x2BDC7, offset: 0x2BDC7, size: 0x8, addend: 0x0, symName: __ZNSt3__113__rewrap_iterB8ue170006IPiS1_NS_18__unwrap_iter_implIS1_Lb1EEEEET_S4_T0_, symObjAddr: 0x2C980, symBinAddr: 0x10003048C, symSize: 0x50 }
  - { offsetInCU: 0x2BE1C, offset: 0x2BE1C, size: 0x8, addend: 0x0, symName: __ZNSt3__19make_pairB8ue170006IPiS1_EENS_4pairINS_18__unwrap_ref_decayIT_E4typeENS3_IT0_E4typeEEEOS4_OS7_, symObjAddr: 0x2C9D0, symBinAddr: 0x1000304DC, symSize: 0x38 }
  - { offsetInCU: 0x2BF18, offset: 0x2BF18, size: 0x8, addend: 0x0, symName: __ZNSt3__122__make_exception_guardB8ue170006INS_29_AllocatorDestroyRangeReverseINS_9allocatorIiEEPiEEEENS_28__exception_guard_exceptionsIT_EES7_, symObjAddr: 0x2CA78, symBinAddr: 0x100030584, symSize: 0x4C }
  - { offsetInCU: 0x2BF4E, offset: 0x2BF4E, size: 0x8, addend: 0x0, symName: __ZNSt3__119__allocator_destroyB8ue170006INS_9allocatorIiEENS_16reverse_iteratorIPiEES5_EEvRT_T0_T1_, symObjAddr: 0x2CCF8, symBinAddr: 0x100030804, symSize: 0x70 }
  - { offsetInCU: 0x2C004, offset: 0x2C004, size: 0x8, addend: 0x0, symName: __ZNSt3__123__dispatch_copy_or_moveB8ue170006INS_17_ClassicAlgPolicyENS_11__copy_loopIS1_EENS_14__copy_trivialEPiS5_S5_EENS_4pairIT2_T4_EES7_T3_S8_, symObjAddr: 0x2CDDC, symBinAddr: 0x1000308E8, symSize: 0x44 }
  - { offsetInCU: 0x2C082, offset: 0x2C082, size: 0x8, addend: 0x0, symName: __ZNSt3__121__unwrap_and_dispatchB8ue170006INS_10__overloadINS_11__copy_loopINS_17_ClassicAlgPolicyEEENS_14__copy_trivialEEEPiS7_S7_Li0EEENS_4pairIT0_T2_EES9_T1_SA_, symObjAddr: 0x2CE20, symBinAddr: 0x10003092C, symSize: 0xB4 }
  - { offsetInCU: 0x2C110, offset: 0x2C110, size: 0x8, addend: 0x0, symName: __ZNSt3__114__rewrap_rangeB8ue170006IPiS1_EET_S2_T0_, symObjAddr: 0x2CF1C, symBinAddr: 0x100030A28, symSize: 0x2C }
  - { offsetInCU: 0x2C15C, offset: 0x2C15C, size: 0x8, addend: 0x0, symName: __ZNSt3__119__copy_trivial_implB8ue170006IiiEENS_4pairIPT_PT0_EES3_S3_S5_, symObjAddr: 0x2CF48, symBinAddr: 0x100030A54, symSize: 0x80 }
  - { offsetInCU: 0x2C1C4, offset: 0x2C1C4, size: 0x8, addend: 0x0, symName: __ZNSt3__119__constexpr_memmoveB8ue170006IiiLi0EEEPT_S2_PT0_NS_15__element_countE, symObjAddr: 0x2CFC8, symBinAddr: 0x100030AD4, symSize: 0xA0 }
  - { offsetInCU: 0x2C232, offset: 0x2C232, size: 0x8, addend: 0x0, symName: __ZNSt3__19make_pairB8ue170006IRPiS1_EENS_4pairINS_18__unwrap_ref_decayIT_E4typeENS4_IT0_E4typeEEEOS5_OS8_, symObjAddr: 0x2D068, symBinAddr: 0x100030B74, symSize: 0x38 }
  - { offsetInCU: 0x2C281, offset: 0x2C281, size: 0x8, addend: 0x0, symName: __ZNSt3__110__distanceB8ue170006IPiEENS_15iterator_traitsIT_E15difference_typeES3_S3_NS_26random_access_iterator_tagE, symObjAddr: 0x2D10C, symBinAddr: 0x100030C18, symSize: 0x28 }
  - { offsetInCU: 0x2C2CE, offset: 0x2C2CE, size: 0x8, addend: 0x0, symName: __ZNSt3__19make_pairB8ue170006IRdRiEENS_4pairINS_18__unwrap_ref_decayIT_E4typeENS4_IT0_E4typeEEEOS5_OS8_, symObjAddr: 0x2D208, symBinAddr: 0x100030D14, symSize: 0x38 }
  - { offsetInCU: 0x2C31D, offset: 0x2C31D, size: 0x8, addend: 0x0, symName: __ZNSt3__122__make_exception_guardB8ue170006INS_6vectorIiNS_9allocatorIiEEE16__destroy_vectorEEENS_28__exception_guard_exceptionsIT_EES7_, symObjAddr: 0x2D450, symBinAddr: 0x100030F5C, symSize: 0x40 }
  - { offsetInCU: 0x2C352, offset: 0x2C352, size: 0x8, addend: 0x0, symName: __ZNSt3__18distanceB8ue170006IPjEENS_15iterator_traitsIT_E15difference_typeES3_S3_, symObjAddr: 0x2DB48, symBinAddr: 0x100031654, symSize: 0x2C }
  - { offsetInCU: 0x2C395, offset: 0x2C395, size: 0x8, addend: 0x0, symName: __ZNSt3__14nextB8ue170006IPjEENS_9enable_ifIXsr29__has_input_iterator_categoryIT_EE5valueES3_E4typeES3_NS_15iterator_traitsIS3_E15difference_typeE, symObjAddr: 0x2DB74, symBinAddr: 0x100031680, symSize: 0x34 }
  - { offsetInCU: 0x2C3D8, offset: 0x2C3D8, size: 0x8, addend: 0x0, symName: __ZNSt3__14copyB8ue170006IPjS1_EET0_T_S3_S2_, symObjAddr: 0x2DBA8, symBinAddr: 0x1000316B4, symSize: 0x40 }
  - { offsetInCU: 0x2C432, offset: 0x2C432, size: 0x8, addend: 0x0, symName: __ZNSt3__16__copyB8ue170006INS_17_ClassicAlgPolicyEPjS2_S2_EENS_4pairIT0_T2_EES4_T1_S5_, symObjAddr: 0x2DC7C, symBinAddr: 0x100031788, symSize: 0x44 }
  - { offsetInCU: 0x2C49F, offset: 0x2C49F, size: 0x8, addend: 0x0, symName: __ZNSt3__19__advanceB8ue170006IPjEEvRT_NS_15iterator_traitsIS2_E15difference_typeENS_26random_access_iterator_tagE, symObjAddr: 0x2DE38, symBinAddr: 0x100031944, symSize: 0x28 }
  - { offsetInCU: 0x2C4E7, offset: 0x2C4E7, size: 0x8, addend: 0x0, symName: __ZNSt3__130__uninitialized_allocator_copyB8ue170006INS_9allocatorIjEEPjS3_S3_EET2_RT_T0_T1_S4_, symObjAddr: 0x2DE60, symBinAddr: 0x10003196C, symSize: 0x80 }
  - { offsetInCU: 0x2C584, offset: 0x2C584, size: 0x8, addend: 0x0, symName: __ZNSt3__114__unwrap_rangeB8ue170006IPjS1_EENS_4pairIT0_S3_EET_S5_, symObjAddr: 0x2DEE0, symBinAddr: 0x1000319EC, symSize: 0x60 }
  - { offsetInCU: 0x2C5D0, offset: 0x2C5D0, size: 0x8, addend: 0x0, symName: __ZNSt3__135__uninitialized_allocator_copy_implB8ue170006INS_9allocatorIjEEPjS3_S3_EET2_RT_T0_T1_S4_, symObjAddr: 0x2DF40, symBinAddr: 0x100031A4C, symSize: 0xFC }
  - { offsetInCU: 0x2C66E, offset: 0x2C66E, size: 0x8, addend: 0x0, symName: __ZNSt3__113__unwrap_iterB8ue170006IPjNS_18__unwrap_iter_implIS1_Lb1EEELi0EEEDTclsrT0_8__unwrapclsr3stdE7declvalIT_EEEES5_, symObjAddr: 0x2E03C, symBinAddr: 0x100031B48, symSize: 0x24 }
  - { offsetInCU: 0x2C6B2, offset: 0x2C6B2, size: 0x8, addend: 0x0, symName: __ZNSt3__113__rewrap_iterB8ue170006IPjS1_NS_18__unwrap_iter_implIS1_Lb1EEEEET_S4_T0_, symObjAddr: 0x2E060, symBinAddr: 0x100031B6C, symSize: 0x50 }
  - { offsetInCU: 0x2C707, offset: 0x2C707, size: 0x8, addend: 0x0, symName: __ZNSt3__19make_pairB8ue170006IPjS1_EENS_4pairINS_18__unwrap_ref_decayIT_E4typeENS3_IT0_E4typeEEEOS4_OS7_, symObjAddr: 0x2E0B0, symBinAddr: 0x100031BBC, symSize: 0x38 }
  - { offsetInCU: 0x2C803, offset: 0x2C803, size: 0x8, addend: 0x0, symName: __ZNSt3__122__make_exception_guardB8ue170006INS_29_AllocatorDestroyRangeReverseINS_9allocatorIjEEPjEEEENS_28__exception_guard_exceptionsIT_EES7_, symObjAddr: 0x2E158, symBinAddr: 0x100031C64, symSize: 0x4C }
  - { offsetInCU: 0x2C839, offset: 0x2C839, size: 0x8, addend: 0x0, symName: __ZNSt3__119__allocator_destroyB8ue170006INS_9allocatorIjEENS_16reverse_iteratorIPjEES5_EEvRT_T0_T1_, symObjAddr: 0x2E3D8, symBinAddr: 0x100031EE4, symSize: 0x70 }
  - { offsetInCU: 0x2C8EF, offset: 0x2C8EF, size: 0x8, addend: 0x0, symName: __ZNSt3__123__dispatch_copy_or_moveB8ue170006INS_17_ClassicAlgPolicyENS_11__copy_loopIS1_EENS_14__copy_trivialEPjS5_S5_EENS_4pairIT2_T4_EES7_T3_S8_, symObjAddr: 0x2E4BC, symBinAddr: 0x100031FC8, symSize: 0x44 }
  - { offsetInCU: 0x2C96D, offset: 0x2C96D, size: 0x8, addend: 0x0, symName: __ZNSt3__121__unwrap_and_dispatchB8ue170006INS_10__overloadINS_11__copy_loopINS_17_ClassicAlgPolicyEEENS_14__copy_trivialEEEPjS7_S7_Li0EEENS_4pairIT0_T2_EES9_T1_SA_, symObjAddr: 0x2E500, symBinAddr: 0x10003200C, symSize: 0xB4 }
  - { offsetInCU: 0x2C9FB, offset: 0x2C9FB, size: 0x8, addend: 0x0, symName: __ZNSt3__114__rewrap_rangeB8ue170006IPjS1_EET_S2_T0_, symObjAddr: 0x2E5FC, symBinAddr: 0x100032108, symSize: 0x2C }
  - { offsetInCU: 0x2CA47, offset: 0x2CA47, size: 0x8, addend: 0x0, symName: __ZNSt3__119__copy_trivial_implB8ue170006IjjEENS_4pairIPT_PT0_EES3_S3_S5_, symObjAddr: 0x2E628, symBinAddr: 0x100032134, symSize: 0x80 }
  - { offsetInCU: 0x2CAAF, offset: 0x2CAAF, size: 0x8, addend: 0x0, symName: __ZNSt3__119__constexpr_memmoveB8ue170006IjjLi0EEEPT_S2_PT0_NS_15__element_countE, symObjAddr: 0x2E6A8, symBinAddr: 0x1000321B4, symSize: 0xA0 }
  - { offsetInCU: 0x2CB1D, offset: 0x2CB1D, size: 0x8, addend: 0x0, symName: __ZNSt3__19make_pairB8ue170006IRPjS1_EENS_4pairINS_18__unwrap_ref_decayIT_E4typeENS4_IT0_E4typeEEEOS5_OS8_, symObjAddr: 0x2E748, symBinAddr: 0x100032254, symSize: 0x38 }
  - { offsetInCU: 0x2CB6C, offset: 0x2CB6C, size: 0x8, addend: 0x0, symName: __ZNSt3__110__distanceB8ue170006IPjEENS_15iterator_traitsIT_E15difference_typeES3_S3_NS_26random_access_iterator_tagE, symObjAddr: 0x2E780, symBinAddr: 0x10003228C, symSize: 0x28 }
  - { offsetInCU: 0x2CBB9, offset: 0x2CBB9, size: 0x8, addend: 0x0, symName: __ZNSt3__17getlineB8ue170006IcNS_11char_traitsIcEENS_9allocatorIcEEEERNS_13basic_istreamIT_T0_EES9_RNS_12basic_stringIS6_S7_T1_EE, symObjAddr: 0x2F2AC, symBinAddr: 0x100032DB8, symSize: 0x5C }
  - { offsetInCU: 0x2CC11, offset: 0x2CC11, size: 0x8, addend: 0x0, symName: __ZNSt3__17getlineB8ue170006IcNS_11char_traitsIcEENS_9allocatorIcEEEERNS_13basic_istreamIT_T0_EES9_RNS_12basic_stringIS6_S7_T1_EES6_, symObjAddr: 0x2F808, symBinAddr: 0x100033314, symSize: 0x238 }
  - { offsetInCU: 0x2CCCF, offset: 0x2CCCF, size: 0x8, addend: 0x0, symName: __ZNSt3__19use_facetB8ue170006INS_5ctypeIcEEEERKT_RKNS_6localeE, symObjAddr: 0x2FD20, symBinAddr: 0x10003382C, symSize: 0x2C }
  - { offsetInCU: 0x2D1E2, offset: 0x2D1E2, size: 0x8, addend: 0x0, symName: __ZNSt3__1neB8ue170006IPNS_12basic_stringIcNS_11char_traitsIcEENS_9allocatorIcEEEEEEbRKNS_11__wrap_iterIT_EESC_, symObjAddr: 0x3040C, symBinAddr: 0x100033F18, symSize: 0x34 }
  - { offsetInCU: 0x2D225, offset: 0x2D225, size: 0x8, addend: 0x0, symName: __ZNSt3__1eqB8ue170006IPNS_12basic_stringIcNS_11char_traitsIcEENS_9allocatorIcEEEEEEbRKNS_11__wrap_iterIT_EESC_, symObjAddr: 0x304FC, symBinAddr: 0x100034008, symSize: 0x48 }
  - { offsetInCU: 0x2D268, offset: 0x2D268, size: 0x8, addend: 0x0, symName: __ZNSt3__122__make_exception_guardB8ue170006INS_6vectorINS_12basic_stringIcNS_11char_traitsIcEENS_9allocatorIcEEEENS5_IS7_EEE16__destroy_vectorEEENS_28__exception_guard_exceptionsIT_EESC_, symObjAddr: 0x307D4, symBinAddr: 0x1000342E0, symSize: 0x40 }
  - { offsetInCU: 0x2D29D, offset: 0x2D29D, size: 0x8, addend: 0x0, symName: __ZNSt3__119__allocate_at_leastB8ue170006INS_9allocatorINS_12basic_stringIcNS_11char_traitsIcEENS1_IcEEEEEEEENS_19__allocation_resultINS_16allocator_traitsIT_E7pointerEEERSA_m, symObjAddr: 0x30AE0, symBinAddr: 0x1000345EC, symSize: 0x40 }
  - { offsetInCU: 0x2D2E0, offset: 0x2D2E0, size: 0x8, addend: 0x0, symName: __ZNSt3__112__to_addressB8ue170006INS_12basic_stringIcNS_11char_traitsIcEENS_9allocatorIcEEEEEEPT_S8_, symObjAddr: 0x30DF8, symBinAddr: 0x100034904, symSize: 0x14 }
  - { offsetInCU: 0x2D315, offset: 0x2D315, size: 0x8, addend: 0x0, symName: __ZNSt3__130__uninitialized_allocator_copyB8ue170006INS_9allocatorINS_12basic_stringIcNS_11char_traitsIcEENS1_IcEEEEEEPS6_S8_S8_EET2_RT_T0_T1_S9_, symObjAddr: 0x30EA8, symBinAddr: 0x1000349B4, symSize: 0x80 }
  - { offsetInCU: 0x2D3B2, offset: 0x2D3B2, size: 0x8, addend: 0x0, symName: __ZNSt3__114__unwrap_rangeB8ue170006IPNS_12basic_stringIcNS_11char_traitsIcEENS_9allocatorIcEEEES7_EENS_4pairIT0_S9_EET_SB_, symObjAddr: 0x30FA0, symBinAddr: 0x100034AAC, symSize: 0x60 }
  - { offsetInCU: 0x2D3FE, offset: 0x2D3FE, size: 0x8, addend: 0x0, symName: __ZNSt3__135__uninitialized_allocator_copy_implB8ue170006INS_9allocatorINS_12basic_stringIcNS_11char_traitsIcEENS1_IcEEEEEEPS6_S8_S8_EET2_RT_T0_T1_S9_, symObjAddr: 0x31000, symBinAddr: 0x100034B0C, symSize: 0xFC }
  - { offsetInCU: 0x2D49C, offset: 0x2D49C, size: 0x8, addend: 0x0, symName: __ZNSt3__113__unwrap_iterB8ue170006IPNS_12basic_stringIcNS_11char_traitsIcEENS_9allocatorIcEEEENS_18__unwrap_iter_implIS7_Lb1EEELi0EEEDTclsrT0_8__unwrapclsr3stdE7declvalIT_EEEESB_, symObjAddr: 0x310FC, symBinAddr: 0x100034C08, symSize: 0x24 }
  - { offsetInCU: 0x2D4E0, offset: 0x2D4E0, size: 0x8, addend: 0x0, symName: __ZNSt3__113__rewrap_iterB8ue170006IPNS_12basic_stringIcNS_11char_traitsIcEENS_9allocatorIcEEEES7_NS_18__unwrap_iter_implIS7_Lb1EEEEET_SA_T0_, symObjAddr: 0x31120, symBinAddr: 0x100034C2C, symSize: 0x50 }
  - { offsetInCU: 0x2D535, offset: 0x2D535, size: 0x8, addend: 0x0, symName: __ZNSt3__19make_pairB8ue170006IPNS_12basic_stringIcNS_11char_traitsIcEENS_9allocatorIcEEEES7_EENS_4pairINS_18__unwrap_ref_decayIT_E4typeENS9_IT0_E4typeEEEOSA_OSD_, symObjAddr: 0x31170, symBinAddr: 0x100034C7C, symSize: 0x38 }
  - { offsetInCU: 0x2D631, offset: 0x2D631, size: 0x8, addend: 0x0, symName: __ZNSt3__122__make_exception_guardB8ue170006INS_29_AllocatorDestroyRangeReverseINS_9allocatorINS_12basic_stringIcNS_11char_traitsIcEENS2_IcEEEEEEPS7_EEEENS_28__exception_guard_exceptionsIT_EESC_, symObjAddr: 0x31218, symBinAddr: 0x100034D24, symSize: 0x4C }
  - { offsetInCU: 0x2D667, offset: 0x2D667, size: 0x8, addend: 0x0, symName: __ZNSt3__119__allocator_destroyB8ue170006INS_9allocatorINS_12basic_stringIcNS_11char_traitsIcEENS1_IcEEEEEENS_16reverse_iteratorIPS6_EESA_EEvRT_T0_T1_, symObjAddr: 0x314A0, symBinAddr: 0x100034FAC, symSize: 0x70 }
  - { offsetInCU: 0x2D6CA, offset: 0x2D6CA, size: 0x8, addend: 0x0, symName: __ZNSt3__1neB8ue170006IPNS_12basic_stringIcNS_11char_traitsIcEENS_9allocatorIcEEEES7_EEbRKNS_16reverse_iteratorIT_EERKNS8_IT0_EE, symObjAddr: 0x31544, symBinAddr: 0x100035050, symSize: 0x48 }
  - { offsetInCU: 0x2D716, offset: 0x2D716, size: 0x8, addend: 0x0, symName: __ZNSt3__112__to_addressB8ue170006INS_16reverse_iteratorIPNS_12basic_stringIcNS_11char_traitsIcEENS_9allocatorIcEEEEEEvEEu7__decayIDTclsr19__to_address_helperIT_EE6__callclsr3stdE7declvalIRKSA_EEEEESC_, symObjAddr: 0x315B8, symBinAddr: 0x1000350C4, symSize: 0x24 }
  - { offsetInCU: 0x2D7C8, offset: 0x2D7C8, size: 0x8, addend: 0x0, symName: __ZNSt3__19make_pairB8ue170006IRKiS2_EENS_4pairINS_18__unwrap_ref_decayIT_E4typeENS4_IT0_E4typeEEEOS5_OS8_, symObjAddr: 0x32658, symBinAddr: 0x100036164, symSize: 0x34 }
  - { offsetInCU: 0x2D817, offset: 0x2D817, size: 0x8, addend: 0x0, symName: __ZNSt3__1neB8ue170006ERKNS_14__map_iteratorINS_15__tree_iteratorINS_12__value_typeINS_4pairIiiEEdEEPNS_11__tree_nodeIS5_PvEElEEEESD_, symObjAddr: 0x327C4, symBinAddr: 0x1000362D0, symSize: 0x30 }
  - { offsetInCU: 0x2D854, offset: 0x2D854, size: 0x8, addend: 0x0, symName: __ZNSt3__1neB8ue170006ERKNS_14__map_iteratorINS_15__tree_iteratorINS_12__value_typeIidEEPNS_11__tree_nodeIS3_PvEElEEEESB_, symObjAddr: 0x328B8, symBinAddr: 0x1000363C4, symSize: 0x30 }
  - { offsetInCU: 0x2D892, offset: 0x2D892, size: 0x8, addend: 0x0, symName: __ZNSt3__1ltB8ue170006IiiiiEEbRKNS_4pairIT_T0_EERKNS1_IT1_T2_EE, symObjAddr: 0x33598, symBinAddr: 0x1000370A4, symSize: 0x98 }
  - { offsetInCU: 0x2D92E, offset: 0x2D92E, size: 0x8, addend: 0x0, symName: __ZNSt3__1neB8ue170006ERKNS_15__tree_iteratorINS_12__value_typeINS_4pairIiiEEdEEPNS_11__tree_nodeIS4_PvEElEESB_, symObjAddr: 0x34CB4, symBinAddr: 0x1000387C0, symSize: 0x34 }
  - { offsetInCU: 0x2D96C, offset: 0x2D96C, size: 0x8, addend: 0x0, symName: __ZNSt3__1eqB8ue170006ERKNS_15__tree_iteratorINS_12__value_typeINS_4pairIiiEEdEEPNS_11__tree_nodeIS4_PvEElEESB_, symObjAddr: 0x34CE8, symBinAddr: 0x1000387F4, symSize: 0x30 }
  - { offsetInCU: 0x2D9DB, offset: 0x2D9DB, size: 0x8, addend: 0x0, symName: __ZNSt3__1neB8ue170006ERKNS_15__tree_iteratorINS_12__value_typeIidEEPNS_11__tree_nodeIS2_PvEElEES9_, symObjAddr: 0x34EB8, symBinAddr: 0x1000389C4, symSize: 0x34 }
  - { offsetInCU: 0x2DA19, offset: 0x2DA19, size: 0x8, addend: 0x0, symName: __ZNSt3__1eqB8ue170006ERKNS_15__tree_iteratorINS_12__value_typeIidEEPNS_11__tree_nodeIS2_PvEElEES9_, symObjAddr: 0x34EEC, symBinAddr: 0x1000389F8, symSize: 0x30 }
  - { offsetInCU: 0x2DA88, offset: 0x2DA88, size: 0x8, addend: 0x0, symName: __ZNSt3__1neB8ue170006IPKiEEbRKNS_11__wrap_iterIT_EES7_, symObjAddr: 0x35480, symBinAddr: 0x100038F8C, symSize: 0x34 }
  - { offsetInCU: 0x2DACB, offset: 0x2DACB, size: 0x8, addend: 0x0, symName: __ZNSt3__1eqB8ue170006IPKiEEbRKNS_11__wrap_iterIT_EES7_, symObjAddr: 0x35570, symBinAddr: 0x10003907C, symSize: 0x48 }
  - { offsetInCU: 0x2DB0E, offset: 0x2DB0E, size: 0x8, addend: 0x0, symName: __ZNSt3__112__to_addressB8ue170006INS_6vectorIdNS_9allocatorIdEEEEEEPT_S6_, symObjAddr: 0x35840, symBinAddr: 0x10003934C, symSize: 0x14 }
  - { offsetInCU: 0x2DB43, offset: 0x2DB43, size: 0x8, addend: 0x0, symName: __ZNSt3__119__allocate_at_leastB8ue170006INS_9allocatorINS_6vectorIdNS1_IdEEEEEEEENS_19__allocation_resultINS_16allocator_traitsIT_E7pointerEEERS8_m, symObjAddr: 0x35E98, symBinAddr: 0x1000399A4, symSize: 0x40 }
  - { offsetInCU: 0x2DB86, offset: 0x2DB86, size: 0x8, addend: 0x0, symName: __ZNSt3__142__uninitialized_allocator_move_if_noexceptB8ue170006INS_9allocatorINS_6vectorIdNS1_IdEEEEEENS_16reverse_iteratorIPS4_EES8_S8_EET2_RT_T0_T1_S9_, symObjAddr: 0x36154, symBinAddr: 0x100039C60, symSize: 0x134 }
  - { offsetInCU: 0x2DC26, offset: 0x2DC26, size: 0x8, addend: 0x0, symName: __ZNSt3__14swapB8ue170006IPNS_6vectorIdNS_9allocatorIdEEEEEEvRT_S7_, symObjAddr: 0x362D4, symBinAddr: 0x100039DE0, symSize: 0x3C }
  - { offsetInCU: 0x2DC77, offset: 0x2DC77, size: 0x8, addend: 0x0, symName: __ZNSt3__122__make_exception_guardB8ue170006INS_29_AllocatorDestroyRangeReverseINS_9allocatorINS_6vectorIdNS2_IdEEEEEENS_16reverse_iteratorIPS5_EEEEEENS_28__exception_guard_exceptionsIT_EESC_, symObjAddr: 0x36420, symBinAddr: 0x100039F2C, symSize: 0x4C }
  - { offsetInCU: 0x2DCAD, offset: 0x2DCAD, size: 0x8, addend: 0x0, symName: __ZNSt3__1neB8ue170006IPNS_6vectorIdNS_9allocatorIdEEEES5_EEbRKNS_16reverse_iteratorIT_EERKNS6_IT0_EE, symObjAddr: 0x364B0, symBinAddr: 0x100039FBC, symSize: 0x48 }
  - { offsetInCU: 0x2DCF9, offset: 0x2DCF9, size: 0x8, addend: 0x0, symName: __ZNSt3__112__to_addressB8ue170006INS_16reverse_iteratorIPNS_6vectorIdNS_9allocatorIdEEEEEEvEEu7__decayIDTclsr19__to_address_helperIT_EE6__callclsr3stdE7declvalIRKS8_EEEEESA_, symObjAddr: 0x364F8, symBinAddr: 0x10003A004, symSize: 0x24 }
  - { offsetInCU: 0x2DD58, offset: 0x2DD58, size: 0x8, addend: 0x0, symName: __ZNSt3__119__allocator_destroyB8ue170006INS_9allocatorINS_6vectorIdNS1_IdEEEEEENS_16reverse_iteratorINS6_IPS4_EEEES9_EEvRT_T0_T1_, symObjAddr: 0x367B4, symBinAddr: 0x10003A2C0, symSize: 0x70 }
  - { offsetInCU: 0x2DDBD, offset: 0x2DDBD, size: 0x8, addend: 0x0, symName: __ZNSt3__1neB8ue170006INS_16reverse_iteratorIPNS_6vectorIdNS_9allocatorIdEEEEEES7_EEbRKNS1_IT_EERKNS1_IT0_EE, symObjAddr: 0x36860, symBinAddr: 0x10003A36C, symSize: 0x60 }
  - { offsetInCU: 0x2DE09, offset: 0x2DE09, size: 0x8, addend: 0x0, symName: __ZNSt3__112__to_addressB8ue170006INS_16reverse_iteratorINS1_IPNS_6vectorIdNS_9allocatorIdEEEEEEEEvEEu7__decayIDTclsr19__to_address_helperIT_EE6__callclsr3stdE7declvalIRKS9_EEEEESB_, symObjAddr: 0x368EC, symBinAddr: 0x10003A3F8, symSize: 0x24 }
  - { offsetInCU: 0x2DEF4, offset: 0x2DEF4, size: 0x8, addend: 0x0, symName: __ZNSt3__118__constexpr_strlenB8ue170006EPKc, symObjAddr: 0x375C4, symBinAddr: 0x10003B0D0, symSize: 0x24 }
  - { offsetInCU: 0x2DF20, offset: 0x2DF20, size: 0x8, addend: 0x0, symName: __ZNSt3__112__to_addressB8ue170006I7patternEEPT_S3_, symObjAddr: 0x3796C, symBinAddr: 0x10003B478, symSize: 0x14 }
  - { offsetInCU: 0x2DF55, offset: 0x2DF55, size: 0x8, addend: 0x0, symName: __ZNSt3__122__make_exception_guardB8ue170006INS_6vectorIcNS_9allocatorIcEEE16__destroy_vectorEEENS_28__exception_guard_exceptionsIT_EES7_, symObjAddr: 0x37E08, symBinAddr: 0x10003B914, symSize: 0x40 }
  - { offsetInCU: 0x2DF8A, offset: 0x2DF8A, size: 0x8, addend: 0x0, symName: __ZNSt3__142__uninitialized_allocator_move_if_noexceptB8ue170006INS_9allocatorINS_12basic_stringIcNS_11char_traitsIcEENS1_IcEEEEEENS_16reverse_iteratorIPS6_EESA_SA_EET2_RT_T0_T1_SB_, symObjAddr: 0x3872C, symBinAddr: 0x10003C238, symSize: 0x124 }
  - { offsetInCU: 0x2E02A, offset: 0x2E02A, size: 0x8, addend: 0x0, symName: __ZNSt3__14swapB8ue170006IPNS_12basic_stringIcNS_11char_traitsIcEENS_9allocatorIcEEEEEEvRT_S9_, symObjAddr: 0x38850, symBinAddr: 0x10003C35C, symSize: 0x3C }
  - { offsetInCU: 0x2E07B, offset: 0x2E07B, size: 0x8, addend: 0x0, symName: __ZNSt3__122__make_exception_guardB8ue170006INS_29_AllocatorDestroyRangeReverseINS_9allocatorINS_12basic_stringIcNS_11char_traitsIcEENS2_IcEEEEEENS_16reverse_iteratorIPS7_EEEEEENS_28__exception_guard_exceptionsIT_EESE_, symObjAddr: 0x3888C, symBinAddr: 0x10003C398, symSize: 0x4C }
  - { offsetInCU: 0x2E0B1, offset: 0x2E0B1, size: 0x8, addend: 0x0, symName: __ZNSt3__119__allocator_destroyB8ue170006INS_9allocatorINS_12basic_stringIcNS_11char_traitsIcEENS1_IcEEEEEENS_16reverse_iteratorINS8_IPS6_EEEESB_EEvRT_T0_T1_, symObjAddr: 0x38AFC, symBinAddr: 0x10003C608, symSize: 0x70 }
  - { offsetInCU: 0x2E116, offset: 0x2E116, size: 0x8, addend: 0x0, symName: __ZNSt3__1neB8ue170006INS_16reverse_iteratorIPNS_12basic_stringIcNS_11char_traitsIcEENS_9allocatorIcEEEEEES9_EEbRKNS1_IT_EERKNS1_IT0_EE, symObjAddr: 0x38BA8, symBinAddr: 0x10003C6B4, symSize: 0x60 }
  - { offsetInCU: 0x2E162, offset: 0x2E162, size: 0x8, addend: 0x0, symName: __ZNSt3__112__to_addressB8ue170006INS_16reverse_iteratorINS1_IPNS_12basic_stringIcNS_11char_traitsIcEENS_9allocatorIcEEEEEEEEvEEu7__decayIDTclsr19__to_address_helperIT_EE6__callclsr3stdE7declvalIRKSB_EEEEESD_, symObjAddr: 0x38C08, symBinAddr: 0x10003C714, symSize: 0x24 }
  - { offsetInCU: 0x2E1C1, offset: 0x2E1C1, size: 0x8, addend: 0x0, symName: __ZNSt3__122__make_exception_guardB8ue170006INS_6vectorI7patternNS_9allocatorIS2_EEE16__destroy_vectorEEENS_28__exception_guard_exceptionsIT_EES8_, symObjAddr: 0x39A34, symBinAddr: 0x10003D540, symSize: 0x40 }
  - { offsetInCU: 0x2E1F6, offset: 0x2E1F6, size: 0x8, addend: 0x0, symName: __ZNSt3__119__allocate_at_leastB8ue170006INS_9allocatorI7patternEEEENS_19__allocation_resultINS_16allocator_traitsIT_E7pointerEEERS6_m, symObjAddr: 0x39CEC, symBinAddr: 0x10003D7F8, symSize: 0x40 }
  - { offsetInCU: 0x2E239, offset: 0x2E239, size: 0x8, addend: 0x0, symName: __ZNSt3__130__uninitialized_allocator_copyB8ue170006INS_9allocatorI7patternEEPS2_S4_S4_EET2_RT_T0_T1_S5_, symObjAddr: 0x39EBC, symBinAddr: 0x10003D9C8, symSize: 0x80 }
  - { offsetInCU: 0x2E2D6, offset: 0x2E2D6, size: 0x8, addend: 0x0, symName: __ZNSt3__114__unwrap_rangeB8ue170006IP7patternS2_EENS_4pairIT0_S4_EET_S6_, symObjAddr: 0x39F3C, symBinAddr: 0x10003DA48, symSize: 0x60 }
  - { offsetInCU: 0x2E322, offset: 0x2E322, size: 0x8, addend: 0x0, symName: __ZNSt3__135__uninitialized_allocator_copy_implB8ue170006INS_9allocatorI7patternEEPS2_S4_S4_EET2_RT_T0_T1_S5_, symObjAddr: 0x39F9C, symBinAddr: 0x10003DAA8, symSize: 0xFC }
  - { offsetInCU: 0x2E3C0, offset: 0x2E3C0, size: 0x8, addend: 0x0, symName: __ZNSt3__113__unwrap_iterB8ue170006IP7patternNS_18__unwrap_iter_implIS2_Lb1EEELi0EEEDTclsrT0_8__unwrapclsr3stdE7declvalIT_EEEES6_, symObjAddr: 0x3A098, symBinAddr: 0x10003DBA4, symSize: 0x24 }
  - { offsetInCU: 0x2E404, offset: 0x2E404, size: 0x8, addend: 0x0, symName: __ZNSt3__113__rewrap_iterB8ue170006IP7patternS2_NS_18__unwrap_iter_implIS2_Lb1EEEEET_S5_T0_, symObjAddr: 0x3A0BC, symBinAddr: 0x10003DBC8, symSize: 0x50 }
  - { offsetInCU: 0x2E459, offset: 0x2E459, size: 0x8, addend: 0x0, symName: __ZNSt3__19make_pairB8ue170006IP7patternS2_EENS_4pairINS_18__unwrap_ref_decayIT_E4typeENS4_IT0_E4typeEEEOS5_OS8_, symObjAddr: 0x3A10C, symBinAddr: 0x10003DC18, symSize: 0x38 }
  - { offsetInCU: 0x2E555, offset: 0x2E555, size: 0x8, addend: 0x0, symName: __ZNSt3__122__make_exception_guardB8ue170006INS_29_AllocatorDestroyRangeReverseINS_9allocatorI7patternEEPS3_EEEENS_28__exception_guard_exceptionsIT_EES8_, symObjAddr: 0x3A1B4, symBinAddr: 0x10003DCC0, symSize: 0x4C }
  - { offsetInCU: 0x2E58B, offset: 0x2E58B, size: 0x8, addend: 0x0, symName: __ZNSt3__119__allocator_destroyB8ue170006INS_9allocatorI7patternEENS_16reverse_iteratorIPS2_EES6_EEvRT_T0_T1_, symObjAddr: 0x3A43C, symBinAddr: 0x10003DF48, symSize: 0x70 }
  - { offsetInCU: 0x2E5EE, offset: 0x2E5EE, size: 0x8, addend: 0x0, symName: __ZNSt3__1neB8ue170006IP7patternS2_EEbRKNS_16reverse_iteratorIT_EERKNS3_IT0_EE, symObjAddr: 0x3A4E0, symBinAddr: 0x10003DFEC, symSize: 0x48 }
  - { offsetInCU: 0x2E63A, offset: 0x2E63A, size: 0x8, addend: 0x0, symName: __ZNSt3__112__to_addressB8ue170006INS_16reverse_iteratorIP7patternEEvEEu7__decayIDTclsr19__to_address_helperIT_EE6__callclsr3stdE7declvalIRKS5_EEEEES7_, symObjAddr: 0x3A528, symBinAddr: 0x10003E034, symSize: 0x24 }
  - { offsetInCU: 0x2E6EC, offset: 0x2E6EC, size: 0x8, addend: 0x0, symName: __ZNSt3__142__uninitialized_allocator_move_if_noexceptB8ue170006INS_9allocatorI7patternEENS_16reverse_iteratorIPS2_EES6_S6_EET2_RT_T0_T1_S7_, symObjAddr: 0x3AB94, symBinAddr: 0x10003E6A0, symSize: 0x124 }
  - { offsetInCU: 0x2E78C, offset: 0x2E78C, size: 0x8, addend: 0x0, symName: __ZNSt3__14swapB8ue170006IP7patternEEvRT_S4_, symObjAddr: 0x3ACB8, symBinAddr: 0x10003E7C4, symSize: 0x3C }
  - { offsetInCU: 0x2E7DD, offset: 0x2E7DD, size: 0x8, addend: 0x0, symName: __ZNSt3__122__make_exception_guardB8ue170006INS_29_AllocatorDestroyRangeReverseINS_9allocatorI7patternEENS_16reverse_iteratorIPS3_EEEEEENS_28__exception_guard_exceptionsIT_EESA_, symObjAddr: 0x3ACF4, symBinAddr: 0x10003E800, symSize: 0x4C }
  - { offsetInCU: 0x2E813, offset: 0x2E813, size: 0x8, addend: 0x0, symName: __ZNSt3__119__allocator_destroyB8ue170006INS_9allocatorI7patternEENS_16reverse_iteratorINS4_IPS2_EEEES7_EEvRT_T0_T1_, symObjAddr: 0x3AFC8, symBinAddr: 0x10003EAD4, symSize: 0x70 }
  - { offsetInCU: 0x2E878, offset: 0x2E878, size: 0x8, addend: 0x0, symName: __ZNSt3__1neB8ue170006INS_16reverse_iteratorIP7patternEES4_EEbRKNS1_IT_EERKNS1_IT0_EE, symObjAddr: 0x3B074, symBinAddr: 0x10003EB80, symSize: 0x60 }
  - { offsetInCU: 0x2E8C4, offset: 0x2E8C4, size: 0x8, addend: 0x0, symName: __ZNSt3__112__to_addressB8ue170006INS_16reverse_iteratorINS1_IP7patternEEEEvEEu7__decayIDTclsr19__to_address_helperIT_EE6__callclsr3stdE7declvalIRKS6_EEEEES8_, symObjAddr: 0x3B0D4, symBinAddr: 0x10003EBE0, symSize: 0x24 }
  - { offsetInCU: 0x2E923, offset: 0x2E923, size: 0x8, addend: 0x0, symName: __ZNSt3__1rsB8ue170006IcNS_11char_traitsIcEENS_9allocatorIcEEEERNS_13basic_istreamIT_T0_EES9_RNS_12basic_stringIS6_S7_T1_EE, symObjAddr: 0x3B7F8, symBinAddr: 0x10003F304, symSize: 0x320 }
  - { offsetInCU: 0x2E9F2, offset: 0x2E9F2, size: 0x8, addend: 0x0, symName: __ZNSt3__122__make_exception_guardB8ue170006INS_6vectorIxNS_9allocatorIxEEE16__destroy_vectorEEENS_28__exception_guard_exceptionsIT_EES7_, symObjAddr: 0x3C1DC, symBinAddr: 0x10003FCE8, symSize: 0x40 }
  - { offsetInCU: 0x2EA27, offset: 0x2EA27, size: 0x8, addend: 0x0, symName: __ZNSt3__119__allocate_at_leastB8ue170006INS_9allocatorIxEEEENS_19__allocation_resultINS_16allocator_traitsIT_E7pointerEEERS5_m, symObjAddr: 0x3C5E4, symBinAddr: 0x1000400F0, symSize: 0x40 }
  - { offsetInCU: 0x2EA6A, offset: 0x2EA6A, size: 0x8, addend: 0x0, symName: __ZNSt3__112__to_addressB8ue170006IxEEPT_S2_, symObjAddr: 0x3C934, symBinAddr: 0x100040440, symSize: 0x14 }
  - { offsetInCU: 0x2EA9F, offset: 0x2EA9F, size: 0x8, addend: 0x0, symName: __ZNSt3__122__make_exception_guardB8ue170006INS_6vectorIyNS_9allocatorIyEEE16__destroy_vectorEEENS_28__exception_guard_exceptionsIT_EES7_, symObjAddr: 0x3CF74, symBinAddr: 0x100040A80, symSize: 0x40 }
  - { offsetInCU: 0x2EAD4, offset: 0x2EAD4, size: 0x8, addend: 0x0, symName: __ZNSt3__119__allocate_at_leastB8ue170006INS_9allocatorIyEEEENS_19__allocation_resultINS_16allocator_traitsIT_E7pointerEEERS5_m, symObjAddr: 0x3D37C, symBinAddr: 0x100040E88, symSize: 0x40 }
  - { offsetInCU: 0x2EB17, offset: 0x2EB17, size: 0x8, addend: 0x0, symName: __ZNSt3__112__to_addressB8ue170006IyEEPT_S2_, symObjAddr: 0x3D6CC, symBinAddr: 0x1000411D8, symSize: 0x14 }
  - { offsetInCU: 0x2EB4C, offset: 0x2EB4C, size: 0x8, addend: 0x0, symName: __ZNSt3__119__allocate_at_leastB8ue170006INS_9allocatorImEEEENS_19__allocation_resultINS_16allocator_traitsIT_E7pointerEEERS5_m, symObjAddr: 0x3E61C, symBinAddr: 0x100042128, symSize: 0x40 }
  - { offsetInCU: 0x2EBB4, offset: 0x2EBB4, size: 0x8, addend: 0x0, symName: __ZNSt3__114__construct_atB8ue170006ImJEPmEEPT_S3_DpOT0_, symObjAddr: 0x3E6D0, symBinAddr: 0x1000421DC, symSize: 0x20 }
  - { offsetInCU: 0x2EC10, offset: 0x2EC10, size: 0x8, addend: 0x0, symName: __ZNSt3__112__to_addressB8ue170006ImEEPT_S2_, symObjAddr: 0x3E6F0, symBinAddr: 0x1000421FC, symSize: 0x14 }
  - { offsetInCU: 0x2EC45, offset: 0x2EC45, size: 0x8, addend: 0x0, symName: __ZNSt3__16fill_nB8ue170006INS_6vectorIbNS_9allocatorIbEEEEEEvNS_14__bit_iteratorIT_Lb0EXLi0EEEENS6_9size_typeEb, symObjAddr: 0x3E894, symBinAddr: 0x1000423A0, symSize: 0x94 }
  - { offsetInCU: 0x2EC97, offset: 0x2EC97, size: 0x8, addend: 0x0, symName: __ZNSt3__16fill_nB8ue170006IPmmmEET_S2_T0_RKT1_, symObjAddr: 0x3EC7C, symBinAddr: 0x100042788, symSize: 0x44 }
  - { offsetInCU: 0x2ECFA, offset: 0x2ECFA, size: 0x8, addend: 0x0, symName: __ZNSt3__18__fill_nB8ue170006IPmmmEET_S2_T0_RKT1_, symObjAddr: 0x3ECC0, symBinAddr: 0x1000427CC, symSize: 0x64 }
  - { offsetInCU: 0x2ED5D, offset: 0x2ED5D, size: 0x8, addend: 0x0, symName: __ZNSt3__16fill_nB8ue170006IPmmiEET_S2_T0_RKT1_, symObjAddr: 0x3ED54, symBinAddr: 0x100042860, symSize: 0x44 }
  - { offsetInCU: 0x2EDC0, offset: 0x2EDC0, size: 0x8, addend: 0x0, symName: __ZNSt3__18__fill_nB8ue170006IPmmiEET_S2_T0_RKT1_, symObjAddr: 0x3ED98, symBinAddr: 0x1000428A4, symSize: 0x64 }
  - { offsetInCU: 0x2EE23, offset: 0x2EE23, size: 0x8, addend: 0x0, symName: __ZNSt3__1eqB8ue170006IPiEEbRKNS_11__wrap_iterIT_EES6_, symObjAddr: 0x3F1BC, symBinAddr: 0x100042CC8, symSize: 0x48 }
  - { offsetInCU: 0x2EE66, offset: 0x2EE66, size: 0x8, addend: 0x0, symName: __ZNSt3__112__to_addressB8ue170006INS_4pairIdiEEEEPT_S4_, symObjAddr: 0x3F6CC, symBinAddr: 0x1000431D8, symSize: 0x14 }
  - { offsetInCU: 0x2EE9B, offset: 0x2EE9B, size: 0x8, addend: 0x0, symName: __ZNSt3__119__allocate_at_leastB8ue170006INS_9allocatorINS_4pairIdiEEEEEENS_19__allocation_resultINS_16allocator_traitsIT_E7pointerEEERS7_m, symObjAddr: 0x401D4, symBinAddr: 0x100043CE0, symSize: 0x40 }
  - { offsetInCU: 0x2EEDE, offset: 0x2EEDE, size: 0x8, addend: 0x0, symName: __ZNSt3__142__uninitialized_allocator_move_if_noexceptB8ue170006INS_9allocatorINS_4pairIdiEEEENS_16reverse_iteratorIPS3_EES7_S7_EET2_RT_T0_T1_S8_, symObjAddr: 0x403B4, symBinAddr: 0x100043EC0, symSize: 0x134 }
  - { offsetInCU: 0x2EF7E, offset: 0x2EF7E, size: 0x8, addend: 0x0, symName: __ZNSt3__14swapB8ue170006IPNS_4pairIdiEEEEvRT_S5_, symObjAddr: 0x40534, symBinAddr: 0x100044040, symSize: 0x3C }
  - { offsetInCU: 0x2EFCF, offset: 0x2EFCF, size: 0x8, addend: 0x0, symName: __ZNSt3__122__make_exception_guardB8ue170006INS_29_AllocatorDestroyRangeReverseINS_9allocatorINS_4pairIdiEEEENS_16reverse_iteratorIPS4_EEEEEENS_28__exception_guard_exceptionsIT_EESB_, symObjAddr: 0x4061C, symBinAddr: 0x100044128, symSize: 0x4C }
  - { offsetInCU: 0x2F005, offset: 0x2F005, size: 0x8, addend: 0x0, symName: __ZNSt3__1neB8ue170006IPNS_4pairIdiEES3_EEbRKNS_16reverse_iteratorIT_EERKNS4_IT0_EE, symObjAddr: 0x406AC, symBinAddr: 0x1000441B8, symSize: 0x48 }
  - { offsetInCU: 0x2F051, offset: 0x2F051, size: 0x8, addend: 0x0, symName: __ZNSt3__112__to_addressB8ue170006INS_16reverse_iteratorIPNS_4pairIdiEEEEvEEu7__decayIDTclsr19__to_address_helperIT_EE6__callclsr3stdE7declvalIRKS6_EEEEES8_, symObjAddr: 0x406F4, symBinAddr: 0x100044200, symSize: 0x24 }
  - { offsetInCU: 0x2F0B0, offset: 0x2F0B0, size: 0x8, addend: 0x0, symName: __ZNSt3__119__allocator_destroyB8ue170006INS_9allocatorINS_4pairIdiEEEENS_16reverse_iteratorINS5_IPS3_EEEES8_EEvRT_T0_T1_, symObjAddr: 0x409B0, symBinAddr: 0x1000444BC, symSize: 0x70 }
  - { offsetInCU: 0x2F115, offset: 0x2F115, size: 0x8, addend: 0x0, symName: __ZNSt3__1neB8ue170006INS_16reverse_iteratorIPNS_4pairIdiEEEES5_EEbRKNS1_IT_EERKNS1_IT0_EE, symObjAddr: 0x40A5C, symBinAddr: 0x100044568, symSize: 0x60 }
  - { offsetInCU: 0x2F161, offset: 0x2F161, size: 0x8, addend: 0x0, symName: __ZNSt3__112__to_addressB8ue170006INS_16reverse_iteratorINS1_IPNS_4pairIdiEEEEEEvEEu7__decayIDTclsr19__to_address_helperIT_EE6__callclsr3stdE7declvalIRKS7_EEEEES9_, symObjAddr: 0x40ABC, symBinAddr: 0x1000445C8, symSize: 0x24 }
  - { offsetInCU: 0x2F1C0, offset: 0x2F1C0, size: 0x8, addend: 0x0, symName: __ZNSt3__14sortB8ue170006INS_11__wrap_iterIPNS_4pairIdiEEEENS_6__lessIvvEEEEvT_S8_T0_, symObjAddr: 0x40EC4, symBinAddr: 0x1000449D0, symSize: 0x40 }
  - { offsetInCU: 0x2F21A, offset: 0x2F21A, size: 0x8, addend: 0x0, symName: __ZNSt3__111__sort_implB8ue170006INS_17_ClassicAlgPolicyENS_11__wrap_iterIPNS_4pairIdiEEEENS_6__lessIvvEEEEvT0_S9_RT1_, symObjAddr: 0x40F04, symBinAddr: 0x100044A10, symSize: 0x108 }
  - { offsetInCU: 0x2F27E, offset: 0x2F27E, size: 0x8, addend: 0x0, symName: __ZNSt3__123__debug_randomize_rangeB8ue170006INS_17_ClassicAlgPolicyENS_11__wrap_iterIPNS_4pairIdiEEEES6_EEvT0_T1_, symObjAddr: 0x4100C, symBinAddr: 0x100044B18, symSize: 0x14 }
  - { offsetInCU: 0x2F2CE, offset: 0x2F2CE, size: 0x8, addend: 0x0, symName: __ZNSt3__114__partial_sortB8ue170006INS_17_ClassicAlgPolicyENS_6__lessIvvEEPNS_4pairIdiEES6_EET1_S7_S7_T2_RT0_, symObjAddr: 0x41020, symBinAddr: 0x100044B2C, symSize: 0x94 }
  - { offsetInCU: 0x2F356, offset: 0x2F356, size: 0x8, addend: 0x0, symName: __ZNSt3__113__unwrap_iterB8ue170006INS_11__wrap_iterIPNS_4pairIdiEEEENS_18__unwrap_iter_implIS5_Lb1EEELi0EEEDTclsrT0_8__unwrapclsr3stdE7declvalIT_EEEES9_, symObjAddr: 0x410B4, symBinAddr: 0x100044BC0, symSize: 0x2C }
  - { offsetInCU: 0x2F39A, offset: 0x2F39A, size: 0x8, addend: 0x0, symName: __ZNSt3__115__sort_dispatchB8ue170006INS_17_ClassicAlgPolicyEPNS_4pairIdiEENS_6__lessIvvEEEEvT0_S7_RT1_, symObjAddr: 0x410E0, symBinAddr: 0x100044BEC, symSize: 0x64 }
  - { offsetInCU: 0x2F419, offset: 0x2F419, size: 0x8, addend: 0x0, symName: __ZNSt3__135__check_strict_weak_ordering_sortedB8ue170006IPNS_4pairIdiEENS_6__lessIvvEEEEvT_S6_RT0_, symObjAddr: 0x41144, symBinAddr: 0x100044C50, symSize: 0x18 }
  - { offsetInCU: 0x2F46F, offset: 0x2F46F, size: 0x8, addend: 0x0, symName: __ZNSt3__123__debug_randomize_rangeB8ue170006INS_17_ClassicAlgPolicyEPNS_4pairIdiEES4_EEvT0_T1_, symObjAddr: 0x41174, symBinAddr: 0x100044C80, symSize: 0x14 }
  - { offsetInCU: 0x2F4BF, offset: 0x2F4BF, size: 0x8, addend: 0x0, symName: __ZNSt3__119__partial_sort_implB8ue170006INS_17_ClassicAlgPolicyERNS_6__lessIvvEEPNS_4pairIdiEES7_EET1_S8_S8_T2_OT0_, symObjAddr: 0x41188, symBinAddr: 0x100044C94, symSize: 0x110 }
  - { offsetInCU: 0x2F555, offset: 0x2F555, size: 0x8, addend: 0x0, symName: __ZNSt3__111__make_heapB8ue170006INS_17_ClassicAlgPolicyERNS_6__lessIvvEEPNS_4pairIdiEEEEvT1_S8_OT0_, symObjAddr: 0x41298, symBinAddr: 0x100044DA4, symSize: 0xB8 }
  - { offsetInCU: 0x2F5F7, offset: 0x2F5F7, size: 0x8, addend: 0x0, symName: __ZNSt3__111__sort_heapB8ue170006INS_17_ClassicAlgPolicyERNS_6__lessIvvEEPNS_4pairIdiEEEEvT1_S8_OT0_, symObjAddr: 0x415C4, symBinAddr: 0x1000450D0, symSize: 0xA8 }
  - { offsetInCU: 0x2F69A, offset: 0x2F69A, size: 0x8, addend: 0x0, symName: __ZNSt3__1ltB8ue170006IdidiEEbRKNS_4pairIT_T0_EERKNS1_IT1_T2_EE, symObjAddr: 0x4166C, symBinAddr: 0x100045178, symSize: 0x98 }
  - { offsetInCU: 0x2F6FA, offset: 0x2F6FA, size: 0x8, addend: 0x0, symName: __ZNSt3__19iter_swapB8ue170006IPNS_4pairIdiEES3_EEvT_T0_, symObjAddr: 0x41704, symBinAddr: 0x100045210, symSize: 0x2C }
  - { offsetInCU: 0x2F742, offset: 0x2F742, size: 0x8, addend: 0x0, symName: __ZNSt3__14swapB8ue170006IdiEENS_9enable_ifIXaasr14__is_swappableIT_EE5valuesr14__is_swappableIT0_EE5valueEvE4typeERNS_4pairIS2_S3_EES8_, symObjAddr: 0x41730, symBinAddr: 0x10004523C, symSize: 0x2C }
  - { offsetInCU: 0x2F791, offset: 0x2F791, size: 0x8, addend: 0x0, symName: __ZNSt3__14swapB8ue170006IdEEvRT_S2_, symObjAddr: 0x417A0, symBinAddr: 0x1000452AC, symSize: 0x3C }
  - { offsetInCU: 0x2F7E2, offset: 0x2F7E2, size: 0x8, addend: 0x0, symName: __ZNSt3__14swapB8ue170006IiEEvRT_S2_, symObjAddr: 0x417DC, symBinAddr: 0x1000452E8, symSize: 0x3C }
  - { offsetInCU: 0x2F857, offset: 0x2F857, size: 0x8, addend: 0x0, symName: __ZNSt3__110__pop_heapB8ue170006INS_17_ClassicAlgPolicyENS_6__lessIvvEEPNS_4pairIdiEEEEvT1_S7_RT0_NS_15iterator_traitsIS7_E15difference_typeE, symObjAddr: 0x41874, symBinAddr: 0x100045380, symSize: 0xF4 }
  - { offsetInCU: 0x2F907, offset: 0x2F907, size: 0x8, addend: 0x0, symName: __ZNSt3__19__sift_upB8ue170006INS_17_ClassicAlgPolicyERNS_6__lessIvvEEPNS_4pairIdiEEEEvT1_S8_OT0_NS_15iterator_traitsIS8_E15difference_typeE, symObjAddr: 0x41A68, symBinAddr: 0x100045574, symSize: 0x11C }
  - { offsetInCU: 0x2FA0A, offset: 0x2FA0A, size: 0x8, addend: 0x0, symName: __ZNSt3__112__to_addressB8ue170006INS_11__wrap_iterIPNS_4pairIdiEEEEvEEu7__decayIDTclsr19__to_address_helperIT_EE6__callclsr3stdE7declvalIRKS6_EEEEES8_, symObjAddr: 0x41BAC, symBinAddr: 0x1000456B8, symSize: 0x24 }
  - { offsetInCU: 0x2FAE5, offset: 0x2FAE5, size: 0x8, addend: 0x0, symName: __ZNSt3__17__log2iB8ue170006IlEET_S1_, symObjAddr: 0x41C44, symBinAddr: 0x100045750, symSize: 0x54 }
  - { offsetInCU: 0x2FB1C, offset: 0x2FB1C, size: 0x8, addend: 0x0, symName: __ZNSt3__112__libcpp_clzB8ue170006Em, symObjAddr: 0x420EC, symBinAddr: 0x100045BF8, symSize: 0x1C }
  - { offsetInCU: 0x2FB48, offset: 0x2FB48, size: 0x8, addend: 0x0, symName: __ZNSt3__124__sort3_maybe_branchlessB8ue170006INS_17_ClassicAlgPolicyERNS_6__lessIvvEEPNS_4pairIdiEEEENS_9enable_ifIXntsr21__use_branchless_sortIT0_T1_EE5valueEvE4typeESA_SA_SA_S9_, symObjAddr: 0x42108, symBinAddr: 0x100045C14, symSize: 0x3C }
  - { offsetInCU: 0x2FBB9, offset: 0x2FBB9, size: 0x8, addend: 0x0, symName: __ZNSt3__124__sort4_maybe_branchlessB8ue170006INS_17_ClassicAlgPolicyERNS_6__lessIvvEEPNS_4pairIdiEEEENS_9enable_ifIXntsr21__use_branchless_sortIT0_T1_EE5valueEvE4typeESA_SA_SA_SA_S9_, symObjAddr: 0x42144, symBinAddr: 0x100045C50, symSize: 0x44 }
  - { offsetInCU: 0x2FC38, offset: 0x2FC38, size: 0x8, addend: 0x0, symName: __ZNSt3__124__sort5_maybe_branchlessB8ue170006INS_17_ClassicAlgPolicyERNS_6__lessIvvEEPNS_4pairIdiEEEENS_9enable_ifIXntsr21__use_branchless_sortIT0_T1_EE5valueEvE4typeESA_SA_SA_SA_SA_S9_, symObjAddr: 0x42188, symBinAddr: 0x100045C94, symSize: 0x4C }
  - { offsetInCU: 0x2FCC5, offset: 0x2FCC5, size: 0x8, addend: 0x0, symName: __ZNSt3__116__insertion_sortB8ue170006INS_17_ClassicAlgPolicyERNS_6__lessIvvEEPNS_4pairIdiEEEEvT1_S8_T0_, symObjAddr: 0x421D4, symBinAddr: 0x100045CE0, symSize: 0x150 }
  - { offsetInCU: 0x2FD88, offset: 0x2FD88, size: 0x8, addend: 0x0, symName: __ZNSt3__114__partial_sortB8ue170006INS_17_ClassicAlgPolicyERNS_6__lessIvvEEPNS_4pairIdiEES7_EET1_S8_S8_T2_RT0_, symObjAddr: 0x42444, symBinAddr: 0x100045F50, symSize: 0x94 }
  - { offsetInCU: 0x2FE10, offset: 0x2FE10, size: 0x8, addend: 0x0, symName: __ZNSt3__17__sort3B8ue170006INS_17_ClassicAlgPolicyERNS_6__lessIvvEEPNS_4pairIdiEEEEjT1_S8_S8_T0_, symObjAddr: 0x424D8, symBinAddr: 0x100045FE4, symSize: 0x144 }
  - { offsetInCU: 0x2FE8F, offset: 0x2FE8F, size: 0x8, addend: 0x0, symName: __ZNSt3__17__sort4B8ue170006INS_17_ClassicAlgPolicyERNS_6__lessIvvEEPNS_4pairIdiEEEEvT1_S8_S8_S8_T0_, symObjAddr: 0x430C8, symBinAddr: 0x100046BD4, symSize: 0xB8 }
  - { offsetInCU: 0x2FF0A, offset: 0x2FF0A, size: 0x8, addend: 0x0, symName: __ZNSt3__17__sort5B8ue170006INS_17_ClassicAlgPolicyERNS_6__lessIvvEEPNS_4pairIdiEEEEvT1_S8_S8_S8_S8_T0_, symObjAddr: 0x43180, symBinAddr: 0x100046C8C, symSize: 0xE8 }
  - { offsetInCU: 0x2FF93, offset: 0x2FF93, size: 0x8, addend: 0x0, symName: __ZNSt3__122__populate_left_bitsetB8ue170006IRNS_6__lessIvvEEPNS_4pairIdiEES5_EEvT0_T_RT1_Ry, symObjAddr: 0x43268, symBinAddr: 0x100046D74, symSize: 0xA8 }
  - { offsetInCU: 0x3004E, offset: 0x3004E, size: 0x8, addend: 0x0, symName: __ZNSt3__123__populate_right_bitsetB8ue170006IRNS_6__lessIvvEEPNS_4pairIdiEES5_EEvT0_T_RT1_Ry, symObjAddr: 0x43310, symBinAddr: 0x100046E1C, symSize: 0xA0 }
  - { offsetInCU: 0x30109, offset: 0x30109, size: 0x8, addend: 0x0, symName: __ZNSt3__117__swap_bitmap_posB8ue170006INS_17_ClassicAlgPolicyEPNS_4pairIdiEEEEvT0_S5_RyS6_, symObjAddr: 0x433B0, symBinAddr: 0x100046EBC, symSize: 0x100 }
  - { offsetInCU: 0x301AA, offset: 0x301AA, size: 0x8, addend: 0x0, symName: __ZNSt3__133__bitset_partition_partial_blocksB8ue170006INS_17_ClassicAlgPolicyERNS_6__lessIvvEEPNS_4pairIdiEES6_EEvRT1_S9_T0_RT2_RySD_, symObjAddr: 0x434B0, symBinAddr: 0x100046FBC, symSize: 0x2E8 }
  - { offsetInCU: 0x3032B, offset: 0x3032B, size: 0x8, addend: 0x0, symName: __ZNSt3__19make_pairB8ue170006IRPNS_4pairIdiEERbEENS1_INS_18__unwrap_ref_decayIT_E4typeENS6_IT0_E4typeEEEOS7_OSA_, symObjAddr: 0x43978, symBinAddr: 0x100047484, symSize: 0x38 }
  - { offsetInCU: 0x3037A, offset: 0x3037A, size: 0x8, addend: 0x0, symName: __ZNSt3__112__libcpp_ctzB8ue170006Ey, symObjAddr: 0x439B0, symBinAddr: 0x1000474BC, symSize: 0x20 }
  - { offsetInCU: 0x303A6, offset: 0x303A6, size: 0x8, addend: 0x0, symName: __ZNSt3__113__libcpp_blsrB8ue170006Ey, symObjAddr: 0x439D0, symBinAddr: 0x1000474DC, symSize: 0x2C }
  - { offsetInCU: 0x303D2, offset: 0x303D2, size: 0x8, addend: 0x0, symName: __ZNSt3__112__libcpp_clzB8ue170006Ey, symObjAddr: 0x43A30, symBinAddr: 0x10004753C, symSize: 0x1C }
  - { offsetInCU: 0x304AB, offset: 0x304AB, size: 0x8, addend: 0x0, symName: __ZNSt3__1eqB8ue170006IPKjEEbRKNS_11__wrap_iterIT_EES7_, symObjAddr: 0x43B44, symBinAddr: 0x100047650, symSize: 0x48 }
  - { offsetInCU: 0x304EE, offset: 0x304EE, size: 0x8, addend: 0x0, symName: __ZNSt3__112__to_addressB8ue170006I3AntEEPT_S3_, symObjAddr: 0x44070, symBinAddr: 0x100047B7C, symSize: 0x14 }
  - { offsetInCU: 0x30523, offset: 0x30523, size: 0x8, addend: 0x0, symName: __ZNSt3__122__make_exception_guardB8ue170006INS_6vectorIjNS_9allocatorIjEEE16__destroy_vectorEEENS_28__exception_guard_exceptionsIT_EES7_, symObjAddr: 0x44424, symBinAddr: 0x100047F30, symSize: 0x40 }
  - { offsetInCU: 0x30558, offset: 0x30558, size: 0x8, addend: 0x0, symName: __ZNSt3__119__allocate_at_leastB8ue170006INS_9allocatorI3AntEEEENS_19__allocation_resultINS_16allocator_traitsIT_E7pointerEEERS6_m, symObjAddr: 0x44CE0, symBinAddr: 0x1000487EC, symSize: 0x40 }
  - { offsetInCU: 0x3059B, offset: 0x3059B, size: 0x8, addend: 0x0, symName: __ZNSt3__142__uninitialized_allocator_move_if_noexceptB8ue170006INS_9allocatorI3AntEENS_16reverse_iteratorIPS2_EES6_S6_EET2_RT_T0_T1_S7_, symObjAddr: 0x44EC8, symBinAddr: 0x1000489D4, symSize: 0x134 }
  - { offsetInCU: 0x3063B, offset: 0x3063B, size: 0x8, addend: 0x0, symName: __ZNSt3__14swapB8ue170006IP3AntEEvRT_S4_, symObjAddr: 0x45048, symBinAddr: 0x100048B54, symSize: 0x3C }
  - { offsetInCU: 0x3068C, offset: 0x3068C, size: 0x8, addend: 0x0, symName: __ZNSt3__122__make_exception_guardB8ue170006INS_29_AllocatorDestroyRangeReverseINS_9allocatorI3AntEENS_16reverse_iteratorIPS3_EEEEEENS_28__exception_guard_exceptionsIT_EESA_, symObjAddr: 0x4514C, symBinAddr: 0x100048C58, symSize: 0x4C }
  - { offsetInCU: 0x306C2, offset: 0x306C2, size: 0x8, addend: 0x0, symName: __ZNSt3__1neB8ue170006IP3AntS2_EEbRKNS_16reverse_iteratorIT_EERKNS3_IT0_EE, symObjAddr: 0x451DC, symBinAddr: 0x100048CE8, symSize: 0x48 }
  - { offsetInCU: 0x3070E, offset: 0x3070E, size: 0x8, addend: 0x0, symName: __ZNSt3__112__to_addressB8ue170006INS_16reverse_iteratorIP3AntEEvEEu7__decayIDTclsr19__to_address_helperIT_EE6__callclsr3stdE7declvalIRKS5_EEEEES7_, symObjAddr: 0x45224, symBinAddr: 0x100048D30, symSize: 0x24 }
  - { offsetInCU: 0x3076D, offset: 0x3076D, size: 0x8, addend: 0x0, symName: __ZNSt3__119__allocator_destroyB8ue170006INS_9allocatorI3AntEENS_16reverse_iteratorINS4_IPS2_EEEES7_EEvRT_T0_T1_, symObjAddr: 0x454E0, symBinAddr: 0x100048FEC, symSize: 0x70 }
  - { offsetInCU: 0x307D2, offset: 0x307D2, size: 0x8, addend: 0x0, symName: __ZNSt3__1neB8ue170006INS_16reverse_iteratorIP3AntEES4_EEbRKNS1_IT_EERKNS1_IT0_EE, symObjAddr: 0x4558C, symBinAddr: 0x100049098, symSize: 0x60 }
  - { offsetInCU: 0x3081E, offset: 0x3081E, size: 0x8, addend: 0x0, symName: __ZNSt3__112__to_addressB8ue170006INS_16reverse_iteratorINS1_IP3AntEEEEvEEu7__decayIDTclsr19__to_address_helperIT_EE6__callclsr3stdE7declvalIRKS6_EEEEES8_, symObjAddr: 0x455EC, symBinAddr: 0x1000490F8, symSize: 0x24 }
  - { offsetInCU: 0x3087E, offset: 0x3087E, size: 0x8, addend: 0x0, symName: __ZNSt3__1ltB8ue170006IddddEEbRKNS_4pairIT_T0_EERKNS1_IT1_T2_EE, symObjAddr: 0x45A10, symBinAddr: 0x10004951C, symSize: 0x98 }
  - { offsetInCU: 0x308DE, offset: 0x308DE, size: 0x8, addend: 0x0, symName: __ZNSt3__116__pad_and_outputB8ue170006IcNS_11char_traitsIcEEEENS_19ostreambuf_iteratorIT_T0_EES6_PKS4_S8_S8_RNS_8ios_baseES4_, symObjAddr: 0x45CB8, symBinAddr: 0x1000497C4, symSize: 0x248 }
  - { offsetInCU: 0x309AD, offset: 0x309AD, size: 0x8, addend: 0x0, symName: __ZNSt3__1eqB8ue170006IPdEEbRKNS_11__wrap_iterIT_EES6_, symObjAddr: 0x460FC, symBinAddr: 0x100049C08, symSize: 0x48 }
  - { offsetInCU: 0x30F83, offset: 0x30F83, size: 0x8, addend: 0x0, symName: __ZSt28__throw_bad_array_new_lengthB8ue170006v, symObjAddr: 0x18CB0, symBinAddr: 0x10001C7BC, symSize: 0x34 }
  - { offsetInCU: 0x31196, offset: 0x31196, size: 0x8, addend: 0x0, symName: __ZN8random_t10multiplierE, symObjAddr: 0x4D510, symBinAddr: 0x10004F128, symSize: 0x0 }
  - { offsetInCU: 0x311A9, offset: 0x311A9, size: 0x8, addend: 0x0, symName: __ZN8random_t6addendE, symObjAddr: 0x4D518, symBinAddr: 0x10004F130, symSize: 0x0 }
  - { offsetInCU: 0x311BC, offset: 0x311BC, size: 0x8, addend: 0x0, symName: __ZN8random_t4maskE, symObjAddr: 0x4D520, symBinAddr: 0x10004F138, symSize: 0x0 }
  - { offsetInCU: 0x311CF, offset: 0x311CF, size: 0x8, addend: 0x0, symName: __ZN8random_t7versionE, symObjAddr: 0x4D500, symBinAddr: 0x100058228, symSize: 0x0 }
  - { offsetInCU: 0x311EA, offset: 0x311EA, size: 0x8, addend: 0x0, symName: __ZL8outcomes, symObjAddr: 0x1195890, symBinAddr: 0x101058238, symSize: 0x0 }
  - { offsetInCU: 0x31209, offset: 0x31209, size: 0x8, addend: 0x0, symName: __ZN29BufferedFileInputStreamReader11BUFFER_SIZEE, symObjAddr: 0x4D528, symBinAddr: 0x10004F140, symSize: 0x0 }
  - { offsetInCU: 0x31728, offset: 0x31728, size: 0x8, addend: 0x0, symName: __ZN29BufferedFileInputStreamReader16MAX_UNREAD_COUNTE, symObjAddr: 0x4D530, symBinAddr: 0x10004F148, symSize: 0x0 }
  - { offsetInCU: 0x31743, offset: 0x31743, size: 0x8, addend: 0x0, symName: _inf, symObjAddr: 0x1195FC8, symBinAddr: 0x101058970, symSize: 0x0 }
  - { offsetInCU: 0x32E78, offset: 0x32E78, size: 0x8, addend: 0x0, symName: _ouf, symObjAddr: 0x1196038, symBinAddr: 0x1010589E0, symSize: 0x0 }
  - { offsetInCU: 0x32E8F, offset: 0x32E8F, size: 0x8, addend: 0x0, symName: _ans, symObjAddr: 0x11960A8, symBinAddr: 0x101058A50, symSize: 0x0 }
  - { offsetInCU: 0x32EA6, offset: 0x32EA6, size: 0x8, addend: 0x0, symName: _appesMode, symObjAddr: 0x1196118, symBinAddr: 0x101058AC0, symSize: 0x0 }
  - { offsetInCU: 0x32EBD, offset: 0x32EBD, size: 0x8, addend: 0x0, symName: _resultName, symObjAddr: 0x1196120, symBinAddr: 0x101058AC8, symSize: 0x0 }
  - { offsetInCU: 0x32ED4, offset: 0x32ED4, size: 0x8, addend: 0x0, symName: _checkerName, symObjAddr: 0x1196138, symBinAddr: 0x101058AE0, symSize: 0x0 }
  - { offsetInCU: 0x32EEB, offset: 0x32EEB, size: 0x8, addend: 0x0, symName: _rnd, symObjAddr: 0x1196150, symBinAddr: 0x101058AF8, symSize: 0x0 }
  - { offsetInCU: 0x32F02, offset: 0x32F02, size: 0x8, addend: 0x0, symName: _testlibMode, symObjAddr: 0x1196158, symBinAddr: 0x101058B00, symSize: 0x0 }
  - { offsetInCU: 0x32F45, offset: 0x32F45, size: 0x8, addend: 0x0, symName: ___testlib_points, symObjAddr: 0x1196160, symBinAddr: 0x101058B08, symSize: 0x0 }
  - { offsetInCU: 0x32F54, offset: 0x32F54, size: 0x8, addend: 0x0, symName: __ZN18ValidatorBoundsHit3EPSE, symObjAddr: 0x4D538, symBinAddr: 0x10004F150, symSize: 0x0 }
  - { offsetInCU: 0x32FE3, offset: 0x32FE3, size: 0x8, addend: 0x0, symName: _validator, symObjAddr: 0x1196168, symBinAddr: 0x101058B10, symSize: 0x0 }
  - { offsetInCU: 0x33890, offset: 0x33890, size: 0x8, addend: 0x0, symName: __ZN20TestlibFinalizeGuard5aliveE, symObjAddr: 0x4D504, symBinAddr: 0x10005822C, symSize: 0x0 }
  - { offsetInCU: 0x338FD, offset: 0x338FD, size: 0x8, addend: 0x0, symName: _testlibFinalizeGuard, symObjAddr: 0x11961F8, symBinAddr: 0x101058BA0, symSize: 0x0 }
  - { offsetInCU: 0x33914, offset: 0x33914, size: 0x8, addend: 0x0, symName: _tout, symObjAddr: 0x1196200, symBinAddr: 0x101058BA8, symSize: 0x0 }
  - { offsetInCU: 0x33C67, offset: 0x33C67, size: 0x8, addend: 0x0, symName: _timer, symObjAddr: 0x1196448, symBinAddr: 0x101058DF0, symSize: 0x0 }
  - { offsetInCU: 0x33D50, offset: 0x33D50, size: 0x8, addend: 0x0, symName: __ZL35__testlib_format_buffer_usage_count, symObjAddr: 0x195888, symBinAddr: 0x100058230, symSize: 0x0 }
  - { offsetInCU: 0x33D6B, offset: 0x33D6B, size: 0x8, addend: 0x0, symName: __ZL23__testlib_format_buffer, symObjAddr: 0x19588C, symBinAddr: 0x100058234, symSize: 0x0 }
  - { offsetInCU: 0x33D9F, offset: 0x33D9F, size: 0x8, addend: 0x0, symName: __ZL4vtosImENSt3__112basic_stringIcNS0_11char_traitsIcEENS0_9allocatorIcEEEERKT_, symObjAddr: 0x3F68, symBinAddr: 0x100007A74, symSize: 0x1D4 }
  - { offsetInCU: 0x33DCB, offset: 0x33DCB, size: 0x8, addend: 0x0, symName: __ZZL4vtosImENSt3__112basic_stringIcNS0_11char_traitsIcEENS0_9allocatorIcEEEERKT_E2ss, symObjAddr: 0x1195A28, symBinAddr: 0x1010583D0, symSize: 0x0 }
  - { offsetInCU: 0x33E54, offset: 0x33E54, size: 0x8, addend: 0x0, symName: __ZL4vtosIiENSt3__112basic_stringIcNS0_11char_traitsIcEENS0_9allocatorIcEEEERKT_, symObjAddr: 0x42B8, symBinAddr: 0x100007DC4, symSize: 0x1D4 }
  - { offsetInCU: 0x33E80, offset: 0x33E80, size: 0x8, addend: 0x0, symName: __ZZL4vtosIiENSt3__112basic_stringIcNS0_11char_traitsIcEENS0_9allocatorIcEEEERKT_E2ss, symObjAddr: 0x1195B48, symBinAddr: 0x1010584F0, symSize: 0x0 }
  - { offsetInCU: 0x33EB3, offset: 0x33EB3, size: 0x8, addend: 0x0, symName: __ZL4vtosIxENSt3__112basic_stringIcNS0_11char_traitsIcEENS0_9allocatorIcEEEERKT_, symObjAddr: 0x9394, symBinAddr: 0x10000CEA0, symSize: 0x1D4 }
  - { offsetInCU: 0x33EDF, offset: 0x33EDF, size: 0x8, addend: 0x0, symName: __ZZL4vtosIxENSt3__112basic_stringIcNS0_11char_traitsIcEENS0_9allocatorIcEEEERKT_E2ss, symObjAddr: 0x1195C68, symBinAddr: 0x101058610, symSize: 0x0 }
  - { offsetInCU: 0x33F12, offset: 0x33F12, size: 0x8, addend: 0x0, symName: __ZL4vtosIyENSt3__112basic_stringIcNS0_11char_traitsIcEENS0_9allocatorIcEEEERKT_, symObjAddr: 0xA404, symBinAddr: 0x10000DF10, symSize: 0x1D4 }
  - { offsetInCU: 0x33F3E, offset: 0x33F3E, size: 0x8, addend: 0x0, symName: __ZZL4vtosIyENSt3__112basic_stringIcNS0_11char_traitsIcEENS0_9allocatorIcEEEERKT_E2ss, symObjAddr: 0x1195D88, symBinAddr: 0x101058730, symSize: 0x0 }
  - { offsetInCU: 0x33F71, offset: 0x33F71, size: 0x8, addend: 0x0, symName: __ZL4vtosIdENSt3__112basic_stringIcNS0_11char_traitsIcEENS0_9allocatorIcEEEERKT_, symObjAddr: 0xCBEC, symBinAddr: 0x1000106F8, symSize: 0x1D4 }
  - { offsetInCU: 0x33F9D, offset: 0x33F9D, size: 0x8, addend: 0x0, symName: __ZZL4vtosIdENSt3__112basic_stringIcNS0_11char_traitsIcEENS0_9allocatorIcEEEERKT_E2ss, symObjAddr: 0x1195EA8, symBinAddr: 0x101058850, symSize: 0x0 }
  - { offsetInCU: 0x3402B, offset: 0x3402B, size: 0x8, addend: 0x0, symName: __ZNSt3__16vectorIcNS_9allocatorIcEEE26__swap_out_circular_bufferERNS_14__split_bufferIcRS2_EE, symObjAddr: 0x184D8, symBinAddr: 0x10001BFE4, symSize: 0x110 }
  - { offsetInCU: 0x340AE, offset: 0x340AE, size: 0x8, addend: 0x0, symName: __ZNSt3__16vectorIiNS_9allocatorIiEEE26__swap_out_circular_bufferERNS_14__split_bufferIiRS2_EE, symObjAddr: 0x1C3B0, symBinAddr: 0x10001FEBC, symSize: 0x110 }
  - { offsetInCU: 0x34285, offset: 0x34285, size: 0x8, addend: 0x0, symName: __ZNSt3__16vectorINS0_IiNS_9allocatorIiEEEENS1_IS3_EEE26__swap_out_circular_bufferERNS_14__split_bufferIS3_RS4_EE, symObjAddr: 0x25CC0, symBinAddr: 0x1000297CC, symSize: 0x110 }
  - { offsetInCU: 0x3431D, offset: 0x3431D, size: 0x8, addend: 0x0, symName: __ZNSt3__16vectorIdNS_9allocatorIdEEE26__swap_out_circular_bufferERNS_14__split_bufferIdRS2_EE, symObjAddr: 0x274FC, symBinAddr: 0x10002B008, symSize: 0x110 }
  - { offsetInCU: 0x34524, offset: 0x34524, size: 0x8, addend: 0x0, symName: __ZNSt3__16vectorIjNS_9allocatorIjEEE26__swap_out_circular_bufferERNS_14__split_bufferIjRS2_EE, symObjAddr: 0x28ED0, symBinAddr: 0x10002C9DC, symSize: 0x110 }
  - { offsetInCU: 0x345F2, offset: 0x345F2, size: 0x8, addend: 0x0, symName: __Z3powB8ue170006IiiENSt3__19enable_ifIXaasr3std13is_arithmeticIT_EE5valuesr3std13is_arithmeticIT0_EE5valueENS0_9__promoteIS2_S3_vEEE4type4typeES2_S3_, symObjAddr: 0x2D27C, symBinAddr: 0x100030D88, symSize: 0x44 }
  - { offsetInCU: 0x34F63, offset: 0x34F63, size: 0x8, addend: 0x0, symName: __ZNSt3__16vectorINS0_IdNS_9allocatorIdEEEENS1_IS3_EEE26__swap_out_circular_bufferERNS_14__split_bufferIS3_RS4_EE, symObjAddr: 0x35A74, symBinAddr: 0x100039580, symSize: 0x110 }
  - { offsetInCU: 0x3502B, offset: 0x3502B, size: 0x8, addend: 0x0, symName: __ZNSt3__16vectorINS_12basic_stringIcNS_11char_traitsIcEENS_9allocatorIcEEEENS4_IS6_EEE26__swap_out_circular_bufferERNS_14__split_bufferIS6_RS7_EE, symObjAddr: 0x383B8, symBinAddr: 0x10003BEC4, symSize: 0x110 }
  - { offsetInCU: 0x3510A, offset: 0x3510A, size: 0x8, addend: 0x0, symName: __ZNSt3__16vectorI7patternNS_9allocatorIS1_EEE26__swap_out_circular_bufferERNS_14__split_bufferIS1_RS3_EE, symObjAddr: 0x3A820, symBinAddr: 0x10003E32C, symSize: 0x110 }
  - { offsetInCU: 0x354A8, offset: 0x354A8, size: 0x8, addend: 0x0, symName: __ZNSt3__16vectorINS_4pairIdiEENS_9allocatorIS2_EEE26__swap_out_circular_bufferERNS_14__split_bufferIS2_RS4_EE, symObjAddr: 0x3FE60, symBinAddr: 0x10004396C, symSize: 0x110 }
  - { offsetInCU: 0x35A9B, offset: 0x35A9B, size: 0x8, addend: 0x0, symName: __ZNSt3__16vectorI3AntNS_9allocatorIS1_EEE26__swap_out_circular_bufferERNS_14__split_bufferIS1_RS3_EE, symObjAddr: 0x44954, symBinAddr: 0x100048460, symSize: 0x110 }
  - { offsetInCU: 0x3696A, offset: 0x3696A, size: 0x8, addend: 0x0, symName: _rand, symObjAddr: 0x132EC, symBinAddr: 0x100016DF8, symSize: 0x18 }
  - { offsetInCU: 0x36985, offset: 0x36985, size: 0x8, addend: 0x0, symName: _srand, symObjAddr: 0x13304, symBinAddr: 0x100016E10, symSize: 0x30 }
  - { offsetInCU: 0x37C65, offset: 0x37C65, size: 0x8, addend: 0x0, symName: __Z6formatPKcz, symObjAddr: 0x0, symBinAddr: 0x100003B0C, symSize: 0x1A4 }
  - { offsetInCU: 0x37CB4, offset: 0x37CB4, size: 0x8, addend: 0x0, symName: __ZNSt3__112basic_stringIcNS_11char_traitsIcEENS_9allocatorIcEEEC1B8ue170006Ev, symObjAddr: 0x1A4, symBinAddr: 0x100003CB0, symSize: 0x2C }
  - { offsetInCU: 0x37CDE, offset: 0x37CDE, size: 0x8, addend: 0x0, symName: __ZL14__testlib_failRKNSt3__112basic_stringIcNS_11char_traitsIcEENS_9allocatorIcEEEE, symObjAddr: 0x1D0, symBinAddr: 0x100003CDC, symSize: 0x30 }
  - { offsetInCU: 0x37D0E, offset: 0x37D0E, size: 0x8, addend: 0x0, symName: __ZNSt3__112basic_stringIcNS_11char_traitsIcEENS_9allocatorIcEEEC1B8ue170006ILi0EEEPKc, symObjAddr: 0x200, symBinAddr: 0x100003D0C, symSize: 0x34 }
  - { offsetInCU: 0x37D4C, offset: 0x37D4C, size: 0x8, addend: 0x0, symName: __Z6formatNSt3__112basic_stringIcNS_11char_traitsIcEENS_9allocatorIcEEEEz, symObjAddr: 0x240, symBinAddr: 0x100003D4C, symSize: 0x1B0 }
  - { offsetInCU: 0x37D9C, offset: 0x37D9C, size: 0x8, addend: 0x0, symName: __ZNKSt3__112basic_stringIcNS_11char_traitsIcEENS_9allocatorIcEEE5c_strB8ue170006Ev, symObjAddr: 0x3F0, symBinAddr: 0x100003EFC, symSize: 0x24 }
  - { offsetInCU: 0x37DC2, offset: 0x37DC2, size: 0x8, addend: 0x0, symName: __ZNK7pattern7matchesERKNSt3__112basic_stringIcNS0_11char_traitsIcEENS0_9allocatorIcEEEE, symObjAddr: 0x414, symBinAddr: 0x100003F20, symSize: 0x34 }
  - { offsetInCU: 0x37DF9, offset: 0x37DF9, size: 0x8, addend: 0x0, symName: __ZNK7pattern7matchesERKNSt3__112basic_stringIcNS0_11char_traitsIcEENS0_9allocatorIcEEEEm, symObjAddr: 0x448, symBinAddr: 0x100003F54, symSize: 0x24C }
  - { offsetInCU: 0x37E81, offset: 0x37E81, size: 0x8, addend: 0x0, symName: __ZNK7pattern3srcEv, symObjAddr: 0x694, symBinAddr: 0x1000041A0, symSize: 0x38 }
  - { offsetInCU: 0x37EA9, offset: 0x37EA9, size: 0x8, addend: 0x0, symName: __ZL21__pattern_greedyMatchRKNSt3__112basic_stringIcNS_11char_traitsIcEENS_9allocatorIcEEEEmNS_6vectorIcS4_EE, symObjAddr: 0x6CC, symBinAddr: 0x1000041D8, symSize: 0xCC }
  - { offsetInCU: 0x37F23, offset: 0x37F23, size: 0x8, addend: 0x0, symName: __ZNSt3__16vectorIcNS_9allocatorIcEEEC1ERKS3_, symObjAddr: 0x798, symBinAddr: 0x1000042A4, symSize: 0x34 }
  - { offsetInCU: 0x37F5E, offset: 0x37F5E, size: 0x8, addend: 0x0, symName: __ZNSt3__16vectorIcNS_9allocatorIcEEED1B8ue170006Ev, symObjAddr: 0x7CC, symBinAddr: 0x1000042D8, symSize: 0x2C }
  - { offsetInCU: 0x37F88, offset: 0x37F88, size: 0x8, addend: 0x0, symName: __ZNKSt3__16vectorI7patternNS_9allocatorIS1_EEE4sizeB8ue170006Ev, symObjAddr: 0x7F8, symBinAddr: 0x100004304, symSize: 0x28 }
  - { offsetInCU: 0x37FAE, offset: 0x37FAE, size: 0x8, addend: 0x0, symName: __ZNKSt3__16vectorI7patternNS_9allocatorIS1_EEEixB8ue170006Em, symObjAddr: 0x820, symBinAddr: 0x10000432C, symSize: 0x2C }
  - { offsetInCU: 0x37FE5, offset: 0x37FE5, size: 0x8, addend: 0x0, symName: __ZNKSt3__112basic_stringIcNS_11char_traitsIcEENS_9allocatorIcEEE6lengthB8ue170006Ev, symObjAddr: 0x84C, symBinAddr: 0x100004358, symSize: 0x24 }
  - { offsetInCU: 0x3800B, offset: 0x3800B, size: 0x8, addend: 0x0, symName: __ZNK7pattern4nextER8random_t, symObjAddr: 0x870, symBinAddr: 0x10000437C, symSize: 0x2A4 }
  - { offsetInCU: 0x380AC, offset: 0x380AC, size: 0x8, addend: 0x0, symName: __ZN8random_t4nextEi, symObjAddr: 0xB14, symBinAddr: 0x100004620, symSize: 0x148 }
  - { offsetInCU: 0x380FF, offset: 0x380FF, size: 0x8, addend: 0x0, symName: __ZNKSt3__16vectorIcNS_9allocatorIcEEEixB8ue170006Em, symObjAddr: 0xC5C, symBinAddr: 0x100004768, symSize: 0x24 }
  - { offsetInCU: 0x38136, offset: 0x38136, size: 0x8, addend: 0x0, symName: __ZNKSt3__16vectorIcNS_9allocatorIcEEE4sizeB8ue170006Ev, symObjAddr: 0xC80, symBinAddr: 0x10000478C, symSize: 0x20 }
  - { offsetInCU: 0x3815C, offset: 0x3815C, size: 0x8, addend: 0x0, symName: __ZNSt3__112basic_stringIcNS_11char_traitsIcEENS_9allocatorIcEEEpLB8ue170006Ec, symObjAddr: 0xCA0, symBinAddr: 0x1000047AC, symSize: 0x34 }
  - { offsetInCU: 0x38191, offset: 0x38191, size: 0x8, addend: 0x0, symName: __ZNSt3__112basic_stringIcNS_11char_traitsIcEENS_9allocatorIcEEEpLB8ue170006ERKS5_, symObjAddr: 0xCD4, symBinAddr: 0x1000047E0, symSize: 0x2C }
  - { offsetInCU: 0x381C6, offset: 0x381C6, size: 0x8, addend: 0x0, symName: __ZN7patternC2ENSt3__112basic_stringIcNS0_11char_traitsIcEENS0_9allocatorIcEEEE, symObjAddr: 0xD00, symBinAddr: 0x10000480C, symSize: 0x7D0 }
  - { offsetInCU: 0x382CE, offset: 0x382CE, size: 0x8, addend: 0x0, symName: __ZNSt3__16vectorI7patternNS_9allocatorIS1_EEEC1B8ue170006Ev, symObjAddr: 0x14D0, symBinAddr: 0x100004FDC, symSize: 0x2C }
  - { offsetInCU: 0x382F8, offset: 0x382F8, size: 0x8, addend: 0x0, symName: __ZNSt3__16vectorIcNS_9allocatorIcEEEC1B8ue170006Ev, symObjAddr: 0x14FC, symBinAddr: 0x100005008, symSize: 0x2C }
  - { offsetInCU: 0x38322, offset: 0x38322, size: 0x8, addend: 0x0, symName: __ZL23__pattern_isCommandCharRKNSt3__112basic_stringIcNS_11char_traitsIcEENS_9allocatorIcEEEEmc, symObjAddr: 0x1528, symBinAddr: 0x100005034, symSize: 0x140 }
  - { offsetInCU: 0x3838D, offset: 0x3838D, size: 0x8, addend: 0x0, symName: __ZNSt3__112basic_stringIcNS_11char_traitsIcEENS_9allocatorIcEEEixB8ue170006Em, symObjAddr: 0x1668, symBinAddr: 0x100005174, symSize: 0x30 }
  - { offsetInCU: 0x383C2, offset: 0x383C2, size: 0x8, addend: 0x0, symName: __ZNSt3__16vectorIiNS_9allocatorIiEEEC1B8ue170006Ev, symObjAddr: 0x1698, symBinAddr: 0x1000051A4, symSize: 0x2C }
  - { offsetInCU: 0x383EC, offset: 0x383EC, size: 0x8, addend: 0x0, symName: __ZNSt3__16vectorIiNS_9allocatorIiEEE9push_backB8ue170006EOi, symObjAddr: 0x17E0, symBinAddr: 0x1000052EC, symSize: 0x6C }
  - { offsetInCU: 0x38423, offset: 0x38423, size: 0x8, addend: 0x0, symName: __ZNKSt3__16vectorIiNS_9allocatorIiEEE4sizeB8ue170006Ev, symObjAddr: 0x184C, symBinAddr: 0x100005358, symSize: 0x28 }
  - { offsetInCU: 0x38449, offset: 0x38449, size: 0x8, addend: 0x0, symName: __ZNSt3__16vectorI7patternNS_9allocatorIS1_EEE9push_backB8ue170006EOS1_, symObjAddr: 0x1874, symBinAddr: 0x100005380, symSize: 0x6C }
  - { offsetInCU: 0x38480, offset: 0x38480, size: 0x8, addend: 0x0, symName: __ZNKSt3__112basic_stringIcNS_11char_traitsIcEENS_9allocatorIcEEE6substrB8ue170006Emm, symObjAddr: 0x18E0, symBinAddr: 0x1000053EC, symSize: 0x68 }
  - { offsetInCU: 0x384C4, offset: 0x384C4, size: 0x8, addend: 0x0, symName: __ZN7patternC1ENSt3__112basic_stringIcNS0_11char_traitsIcEENS0_9allocatorIcEEEE, symObjAddr: 0x1948, symBinAddr: 0x100005454, symSize: 0x34 }
  - { offsetInCU: 0x38500, offset: 0x38500, size: 0x8, addend: 0x0, symName: __ZN7patternD1Ev, symObjAddr: 0x197C, symBinAddr: 0x100005488, symSize: 0x2C }
  - { offsetInCU: 0x3852D, offset: 0x3852D, size: 0x8, addend: 0x0, symName: __ZNSt3__16vectorIiNS_9allocatorIiEEEixB8ue170006Em, symObjAddr: 0x19A8, symBinAddr: 0x1000054B4, symSize: 0x24 }
  - { offsetInCU: 0x38564, offset: 0x38564, size: 0x8, addend: 0x0, symName: __ZL21__pattern_scanCharSetRKNSt3__112basic_stringIcNS_11char_traitsIcEENS_9allocatorIcEEEERm, symObjAddr: 0x19CC, symBinAddr: 0x1000054D8, symSize: 0x6A0 }
  - { offsetInCU: 0x3865E, offset: 0x3865E, size: 0x8, addend: 0x0, symName: __ZNSt3__16vectorIcNS_9allocatorIcEEEaSB8ue170006EOS3_, symObjAddr: 0x206C, symBinAddr: 0x100005B78, symSize: 0x34 }
  - { offsetInCU: 0x38695, offset: 0x38695, size: 0x8, addend: 0x0, symName: __ZL20__pattern_scanCountsRKNSt3__112basic_stringIcNS_11char_traitsIcEENS_9allocatorIcEEEERmRiS9_, symObjAddr: 0x20A0, symBinAddr: 0x100005BAC, symSize: 0x758 }
  - { offsetInCU: 0x3875F, offset: 0x3875F, size: 0x8, addend: 0x0, symName: __ZNSt3__16vectorIiNS_9allocatorIiEEED1B8ue170006Ev, symObjAddr: 0x27F8, symBinAddr: 0x100006304, symSize: 0x2C }
  - { offsetInCU: 0x38789, offset: 0x38789, size: 0x8, addend: 0x0, symName: __ZNSt3__16vectorI7patternNS_9allocatorIS1_EEED1B8ue170006Ev, symObjAddr: 0x2824, symBinAddr: 0x100006330, symSize: 0x2C }
  - { offsetInCU: 0x387B3, offset: 0x387B3, size: 0x8, addend: 0x0, symName: __ZN17InputStreamReaderD2Ev, symObjAddr: 0x2850, symBinAddr: 0x10000635C, symSize: 0x14 }
  - { offsetInCU: 0x387DF, offset: 0x387DF, size: 0x8, addend: 0x0, symName: __ZN17InputStreamReaderD1Ev, symObjAddr: 0x2864, symBinAddr: 0x100006370, symSize: 0x14 }
  - { offsetInCU: 0x3880B, offset: 0x3880B, size: 0x8, addend: 0x0, symName: __ZN17InputStreamReaderD0Ev, symObjAddr: 0x2878, symBinAddr: 0x100006384, symSize: 0xC }
  - { offsetInCU: 0x38837, offset: 0x38837, size: 0x8, addend: 0x0, symName: __ZN8InStreamC1Ev, symObjAddr: 0x2884, symBinAddr: 0x100006390, symSize: 0x2C }
  - { offsetInCU: 0x38863, offset: 0x38863, size: 0x8, addend: 0x0, symName: __ZN8InStreamD1Ev, symObjAddr: 0x28B0, symBinAddr: 0x1000063BC, symSize: 0x2C }
  - { offsetInCU: 0x3888F, offset: 0x3888F, size: 0x8, addend: 0x0, symName: __ZN8random_tC1Ev, symObjAddr: 0x28DC, symBinAddr: 0x1000063E8, symSize: 0x2C }
  - { offsetInCU: 0x388B9, offset: 0x388B9, size: 0x8, addend: 0x0, symName: __ZNSt3__114numeric_limitsIfE8infinityB8ue170006Ev, symObjAddr: 0x2908, symBinAddr: 0x100006414, symSize: 0x14 }
  - { offsetInCU: 0x388CD, offset: 0x388CD, size: 0x8, addend: 0x0, symName: __ZN9ValidatorC1Ev, symObjAddr: 0x291C, symBinAddr: 0x100006428, symSize: 0x2C }
  - { offsetInCU: 0x388F7, offset: 0x388F7, size: 0x8, addend: 0x0, symName: __ZN9ValidatorD1Ev, symObjAddr: 0x2948, symBinAddr: 0x100006454, symSize: 0x2C }
  - { offsetInCU: 0x38924, offset: 0x38924, size: 0x8, addend: 0x0, symName: __ZN20TestlibFinalizeGuardC1Ev, symObjAddr: 0x2974, symBinAddr: 0x100006480, symSize: 0x2C }
  - { offsetInCU: 0x3894E, offset: 0x3894E, size: 0x8, addend: 0x0, symName: __ZN20TestlibFinalizeGuardD1Ev, symObjAddr: 0x29A0, symBinAddr: 0x1000064AC, symSize: 0x2C }
  - { offsetInCU: 0x38978, offset: 0x38978, size: 0x8, addend: 0x0, symName: __Z20disableFinalizeGuardv, symObjAddr: 0x29CC, symBinAddr: 0x1000064D8, symSize: 0xC }
  - { offsetInCU: 0x38993, offset: 0x38993, size: 0x8, addend: 0x0, symName: __ZNSt3__113basic_fstreamIcNS_11char_traitsIcEEEC1Ev, symObjAddr: 0x29D8, symBinAddr: 0x1000064E4, symSize: 0x10C }
  - { offsetInCU: 0x389C4, offset: 0x389C4, size: 0x8, addend: 0x0, symName: __ZNSt3__113basic_fstreamIcNS_11char_traitsIcEEED1Ev, symObjAddr: 0x2AE4, symBinAddr: 0x1000065F0, symSize: 0x70 }
  - { offsetInCU: 0x389F0, offset: 0x389F0, size: 0x8, addend: 0x0, symName: __ZN8InStreamC2Ev, symObjAddr: 0x2B54, symBinAddr: 0x100006660, symSize: 0xEC }
  - { offsetInCU: 0x38A1C, offset: 0x38A1C, size: 0x8, addend: 0x0, symName: __ZNSt3__112basic_stringIcNS_11char_traitsIcEENS_9allocatorIcEEEaSB8ue170006EPKc, symObjAddr: 0x2C40, symBinAddr: 0x10000674C, symSize: 0x2C }
  - { offsetInCU: 0x38A51, offset: 0x38A51, size: 0x8, addend: 0x0, symName: __ZN8InStreamC2ERKS_NSt3__112basic_stringIcNS2_11char_traitsIcEENS2_9allocatorIcEEEE, symObjAddr: 0x2C6C, symBinAddr: 0x100006778, symSize: 0x18C }
  - { offsetInCU: 0x38BEA, offset: 0x38BEA, size: 0x8, addend: 0x0, symName: __ZN23StringInputStreamReaderC1ERKNSt3__112basic_stringIcNS0_11char_traitsIcEENS0_9allocatorIcEEEE, symObjAddr: 0x2DF8, symBinAddr: 0x100006904, symSize: 0x34 }
  - { offsetInCU: 0x38C23, offset: 0x38C23, size: 0x8, addend: 0x0, symName: __ZN8InStreamC1ERKS_NSt3__112basic_stringIcNS2_11char_traitsIcEENS2_9allocatorIcEEEE, symObjAddr: 0x2E2C, symBinAddr: 0x100006938, symSize: 0x3C }
  - { offsetInCU: 0x38C6E, offset: 0x38C6E, size: 0x8, addend: 0x0, symName: __ZN8InStreamD2Ev, symObjAddr: 0x2E68, symBinAddr: 0x100006974, symSize: 0x10C }
  - { offsetInCU: 0x38C9A, offset: 0x38C9A, size: 0x8, addend: 0x0, symName: __Z14resultExitCode7TResult, symObjAddr: 0x2F74, symBinAddr: 0x100006A80, symSize: 0x124 }
  - { offsetInCU: 0x38CC8, offset: 0x38CC8, size: 0x8, addend: 0x0, symName: __ZN8InStream9textColorEt, symObjAddr: 0x3098, symBinAddr: 0x100006BA4, symSize: 0xF4 }
  - { offsetInCU: 0x38CED, offset: 0x38CED, size: 0x8, addend: 0x0, symName: __Z4halti, symObjAddr: 0x31AC, symBinAddr: 0x100006CB8, symSize: 0x18 }
  - { offsetInCU: 0x38D18, offset: 0x38D18, size: 0x8, addend: 0x0, symName: __ZN8InStream4quitE7TResultPKc, symObjAddr: 0x31C4, symBinAddr: 0x100006CD0, symSize: 0xD80 }
  - { offsetInCU: 0x38DD9, offset: 0x38DD9, size: 0x8, addend: 0x0, symName: __ZN8InStream5quitsE7TResultNSt3__112basic_stringIcNS1_11char_traitsIcEENS1_9allocatorIcEEEE, symObjAddr: 0x4270, symBinAddr: 0x100007D7C, symSize: 0x48 }
  - { offsetInCU: 0x38E20, offset: 0x38E20, size: 0x8, addend: 0x0, symName: __ZL25__testlib_shouldCheckDirt7TResult, symObjAddr: 0x448C, symBinAddr: 0x100007F98, symSize: 0x64 }
  - { offsetInCU: 0x38E4F, offset: 0x38E4F, size: 0x8, addend: 0x0, symName: __ZN8InStream7seekEofEv, symObjAddr: 0x44F0, symBinAddr: 0x100007FFC, symSize: 0x88 }
  - { offsetInCU: 0x38E77, offset: 0x38E77, size: 0x8, addend: 0x0, symName: __ZN8InStream8quitscrSEtNSt3__112basic_stringIcNS0_11char_traitsIcEENS0_9allocatorIcEEEE, symObjAddr: 0x4578, symBinAddr: 0x100008084, symSize: 0x44 }
  - { offsetInCU: 0x38EAD, offset: 0x38EAD, size: 0x8, addend: 0x0, symName: __ZL26removeDoubleTrailingZeroesNSt3__112basic_stringIcNS_11char_traitsIcEENS_9allocatorIcEEEE, symObjAddr: 0x45F0, symBinAddr: 0x1000080FC, symSize: 0x11C }
  - { offsetInCU: 0x38EDD, offset: 0x38EDD, size: 0x8, addend: 0x0, symName: __ZN8InStream12xmlSafeWriteEP7__sFILEPKc, symObjAddr: 0x470C, symBinAddr: 0x100008218, symSize: 0x1E8 }
  - { offsetInCU: 0x38F4F, offset: 0x38F4F, size: 0x8, addend: 0x0, symName: __ZN8InStream7quitscrEtPKc, symObjAddr: 0x48F4, symBinAddr: 0x100008400, symSize: 0x74 }
  - { offsetInCU: 0x38F84, offset: 0x38F84, size: 0x8, addend: 0x0, symName: __ZN8InStream5closeEv, symObjAddr: 0x4968, symBinAddr: 0x100008474, symSize: 0x94 }
  - { offsetInCU: 0x38FAC, offset: 0x38FAC, size: 0x8, addend: 0x0, symName: __ZNKSt3__113basic_fstreamIcNS_11char_traitsIcEEE7is_openEv, symObjAddr: 0x49FC, symBinAddr: 0x100008508, symSize: 0x2C }
  - { offsetInCU: 0x38FD4, offset: 0x38FD4, size: 0x8, addend: 0x0, symName: __ZNSt3__113basic_fstreamIcNS_11char_traitsIcEEE5closeEv, symObjAddr: 0x4A28, symBinAddr: 0x100008534, symSize: 0x58 }
  - { offsetInCU: 0x38FFC, offset: 0x38FFC, size: 0x8, addend: 0x0, symName: __ZN8InStream5quitfE7TResultPKcz, symObjAddr: 0x4A80, symBinAddr: 0x10000858C, symSize: 0x184 }
  - { offsetInCU: 0x39061, offset: 0x39061, size: 0x8, addend: 0x0, symName: __ZN8InStream5resetEP7__sFILE, symObjAddr: 0x4CC4, symBinAddr: 0x1000087D0, symSize: 0x350 }
  - { offsetInCU: 0x39098, offset: 0x39098, size: 0x8, addend: 0x0, symName: __ZL20__testlib_set_binaryP7__sFILE, symObjAddr: 0x5014, symBinAddr: 0x100008B20, symSize: 0x10 }
  - { offsetInCU: 0x39281, offset: 0x39281, size: 0x8, addend: 0x0, symName: __ZN21FileInputStreamReaderC1EP7__sFILERKNSt3__112basic_stringIcNS2_11char_traitsIcEENS2_9allocatorIcEEEE, symObjAddr: 0x5024, symBinAddr: 0x100008B30, symSize: 0x3C }
  - { offsetInCU: 0x392C9, offset: 0x392C9, size: 0x8, addend: 0x0, symName: __ZN29BufferedFileInputStreamReaderC1EP7__sFILERKNSt3__112basic_stringIcNS2_11char_traitsIcEENS2_9allocatorIcEEEE, symObjAddr: 0x5060, symBinAddr: 0x100008B6C, symSize: 0x3C }
  - { offsetInCU: 0x39311, offset: 0x39311, size: 0x8, addend: 0x0, symName: __ZN8InStream4initENSt3__112basic_stringIcNS0_11char_traitsIcEENS0_9allocatorIcEEEE5TMode, symObjAddr: 0x509C, symBinAddr: 0x100008BA8, symSize: 0x1BC }
  - { offsetInCU: 0x393BB, offset: 0x393BB, size: 0x8, addend: 0x0, symName: __ZNSt3__114basic_ifstreamIcNS_11char_traitsIcEEEC1Ev, symObjAddr: 0x5258, symBinAddr: 0x100008D64, symSize: 0xF4 }
  - { offsetInCU: 0x393E7, offset: 0x393E7, size: 0x8, addend: 0x0, symName: __ZNKSt3__114basic_ifstreamIcNS_11char_traitsIcEEE7is_openEv, symObjAddr: 0x534C, symBinAddr: 0x100008E58, symSize: 0x2C }
  - { offsetInCU: 0x3940F, offset: 0x3940F, size: 0x8, addend: 0x0, symName: __ZNSt3__114basic_ifstreamIcNS_11char_traitsIcEEE5closeEv, symObjAddr: 0x53B8, symBinAddr: 0x100008EC4, symSize: 0x58 }
  - { offsetInCU: 0x3943C, offset: 0x3943C, size: 0x8, addend: 0x0, symName: __ZNSt3__114basic_ifstreamIcNS_11char_traitsIcEEED1Ev, symObjAddr: 0x5410, symBinAddr: 0x100008F1C, symSize: 0x70 }
  - { offsetInCU: 0x39469, offset: 0x39469, size: 0x8, addend: 0x0, symName: __ZN8InStream4initEP7__sFILE5TMode, symObjAddr: 0x5480, symBinAddr: 0x100008F8C, symSize: 0x124 }
  - { offsetInCU: 0x394AF, offset: 0x394AF, size: 0x8, addend: 0x0, symName: __ZN8InStream7curCharEv, symObjAddr: 0x55A4, symBinAddr: 0x1000090B0, symSize: 0x34 }
  - { offsetInCU: 0x394D7, offset: 0x394D7, size: 0x8, addend: 0x0, symName: __ZN8InStream8nextCharEv, symObjAddr: 0x55D8, symBinAddr: 0x1000090E4, symSize: 0x34 }
  - { offsetInCU: 0x394FF, offset: 0x394FF, size: 0x8, addend: 0x0, symName: __ZN8InStream8readCharEv, symObjAddr: 0x560C, symBinAddr: 0x100009118, symSize: 0x28 }
  - { offsetInCU: 0x39527, offset: 0x39527, size: 0x8, addend: 0x0, symName: __ZN8InStream8readCharEc, symObjAddr: 0x5634, symBinAddr: 0x100009140, symSize: 0x388 }
  - { offsetInCU: 0x3956D, offset: 0x3956D, size: 0x8, addend: 0x0, symName: __Z6isEolnIcEbT_, symObjAddr: 0x59BC, symBinAddr: 0x1000094C8, symSize: 0x48 }
  - { offsetInCU: 0x395A4, offset: 0x395A4, size: 0x8, addend: 0x0, symName: __ZNSt3__112basic_stringIcNS_11char_traitsIcEENS_9allocatorIcEEEC1B8ue170006Emc, symObjAddr: 0x5A04, symBinAddr: 0x100009510, symSize: 0x3C }
  - { offsetInCU: 0x395EC, offset: 0x395EC, size: 0x8, addend: 0x0, symName: __ZN8InStream9readSpaceEv, symObjAddr: 0x5A40, symBinAddr: 0x10000954C, symSize: 0x2C }
  - { offsetInCU: 0x39614, offset: 0x39614, size: 0x8, addend: 0x0, symName: __ZN8InStream10unreadCharEc, symObjAddr: 0x5A6C, symBinAddr: 0x100009578, symSize: 0x38 }
  - { offsetInCU: 0x3964B, offset: 0x3964B, size: 0x8, addend: 0x0, symName: __ZN8InStream8skipCharEv, symObjAddr: 0x5AA4, symBinAddr: 0x1000095B0, symSize: 0x30 }
  - { offsetInCU: 0x39673, offset: 0x39673, size: 0x8, addend: 0x0, symName: __ZN8InStream10skipBlanksEv, symObjAddr: 0x5AD4, symBinAddr: 0x1000095E0, symSize: 0x60 }
  - { offsetInCU: 0x3969B, offset: 0x3969B, size: 0x8, addend: 0x0, symName: __Z8isBlanksIiEbT_, symObjAddr: 0x5B34, symBinAddr: 0x100009640, symSize: 0x80 }
  - { offsetInCU: 0x396D2, offset: 0x396D2, size: 0x8, addend: 0x0, symName: __ZN8InStream8readWordEv, symObjAddr: 0x5BB4, symBinAddr: 0x1000096C0, symSize: 0x48 }
  - { offsetInCU: 0x396FA, offset: 0x396FA, size: 0x8, addend: 0x0, symName: __ZN8InStream10readWordToERNSt3__112basic_stringIcNS0_11char_traitsIcEENS0_9allocatorIcEEEE, symObjAddr: 0x5BFC, symBinAddr: 0x100009708, symSize: 0x20C }
  - { offsetInCU: 0x39740, offset: 0x39740, size: 0x8, addend: 0x0, symName: __ZNSt3__112basic_stringIcNS_11char_traitsIcEENS_9allocatorIcEEE5clearB8ue170006Ev, symObjAddr: 0x5E08, symBinAddr: 0x100009914, symSize: 0x78 }
  - { offsetInCU: 0x39768, offset: 0x39768, size: 0x8, addend: 0x0, symName: __ZL14__testlib_partRKNSt3__112basic_stringIcNS_11char_traitsIcEENS_9allocatorIcEEEE, symObjAddr: 0x5E80, symBinAddr: 0x10000998C, symSize: 0x148 }
  - { offsetInCU: 0x39797, offset: 0x39797, size: 0x8, addend: 0x0, symName: __ZN8InStream9readTokenEv, symObjAddr: 0x5FC8, symBinAddr: 0x100009AD4, symSize: 0x2C }
  - { offsetInCU: 0x397BF, offset: 0x397BF, size: 0x8, addend: 0x0, symName: __ZN8InStream11readTokenToERNSt3__112basic_stringIcNS0_11char_traitsIcEENS0_9allocatorIcEEEE, symObjAddr: 0x5FF4, symBinAddr: 0x100009B00, symSize: 0x2C }
  - { offsetInCU: 0x397F6, offset: 0x397F6, size: 0x8, addend: 0x0, symName: __ZN8InStream8readWordERK7patternRKNSt3__112basic_stringIcNS3_11char_traitsIcEENS3_9allocatorIcEEEE, symObjAddr: 0x6020, symBinAddr: 0x100009B2C, symSize: 0x840 }
  - { offsetInCU: 0x3983C, offset: 0x3983C, size: 0x8, addend: 0x0, symName: __ZNKSt3__112basic_stringIcNS_11char_traitsIcEENS_9allocatorIcEEE5emptyB8ue170006Ev, symObjAddr: 0x6860, symBinAddr: 0x10000A36C, symSize: 0x30 }
  - { offsetInCU: 0x39862, offset: 0x39862, size: 0x8, addend: 0x0, symName: __ZN8InStream9readWordsEiRK7patternRKNSt3__112basic_stringIcNS3_11char_traitsIcEENS3_9allocatorIcEEEEi, symObjAddr: 0x6890, symBinAddr: 0x10000A39C, symSize: 0x1F0 }
  - { offsetInCU: 0x398EB, offset: 0x398EB, size: 0x8, addend: 0x0, symName: __ZNSt3__16vectorINS_12basic_stringIcNS_11char_traitsIcEENS_9allocatorIcEEEENS4_IS6_EEEC1Em, symObjAddr: 0x6A80, symBinAddr: 0x10000A58C, symSize: 0x34 }
  - { offsetInCU: 0x39926, offset: 0x39926, size: 0x8, addend: 0x0, symName: __ZNSt3__16vectorINS_12basic_stringIcNS_11char_traitsIcEENS_9allocatorIcEEEENS4_IS6_EEEixB8ue170006Em, symObjAddr: 0x6AB4, symBinAddr: 0x10000A5C0, symSize: 0x2C }
  - { offsetInCU: 0x3995D, offset: 0x3995D, size: 0x8, addend: 0x0, symName: __ZNSt3__16vectorINS_12basic_stringIcNS_11char_traitsIcEENS_9allocatorIcEEEENS4_IS6_EEED1B8ue170006Ev, symObjAddr: 0x6AE0, symBinAddr: 0x10000A5EC, symSize: 0x2C }
  - { offsetInCU: 0x39987, offset: 0x39987, size: 0x8, addend: 0x0, symName: __ZN8InStream8readWordERKNSt3__112basic_stringIcNS0_11char_traitsIcEENS0_9allocatorIcEEEES8_, symObjAddr: 0x6B0C, symBinAddr: 0x10000A618, symSize: 0xD8 }
  - { offsetInCU: 0x399CD, offset: 0x399CD, size: 0x8, addend: 0x0, symName: __ZN8InStream9readWordsEiRKNSt3__112basic_stringIcNS0_11char_traitsIcEENS0_9allocatorIcEEEES8_i, symObjAddr: 0x6BE4, symBinAddr: 0x10000A6F0, symSize: 0x274 }
  - { offsetInCU: 0x39A6E, offset: 0x39A6E, size: 0x8, addend: 0x0, symName: __ZN8InStream9readTokenERK7patternRKNSt3__112basic_stringIcNS3_11char_traitsIcEENS3_9allocatorIcEEEE, symObjAddr: 0x6E58, symBinAddr: 0x10000A964, symSize: 0x3C }
  - { offsetInCU: 0x39AB4, offset: 0x39AB4, size: 0x8, addend: 0x0, symName: __ZN8InStream10readTokensEiRK7patternRKNSt3__112basic_stringIcNS3_11char_traitsIcEENS3_9allocatorIcEEEEi, symObjAddr: 0x6E94, symBinAddr: 0x10000A9A0, symSize: 0x1F0 }
  - { offsetInCU: 0x39B3D, offset: 0x39B3D, size: 0x8, addend: 0x0, symName: __ZN8InStream9readTokenERKNSt3__112basic_stringIcNS0_11char_traitsIcEENS0_9allocatorIcEEEES8_, symObjAddr: 0x7084, symBinAddr: 0x10000AB90, symSize: 0x3C }
  - { offsetInCU: 0x39B83, offset: 0x39B83, size: 0x8, addend: 0x0, symName: __ZN8InStream10readTokensEiRKNSt3__112basic_stringIcNS0_11char_traitsIcEENS0_9allocatorIcEEEES8_i, symObjAddr: 0x70C0, symBinAddr: 0x10000ABCC, symSize: 0x274 }
  - { offsetInCU: 0x39C24, offset: 0x39C24, size: 0x8, addend: 0x0, symName: __ZN8InStream10readWordToERNSt3__112basic_stringIcNS0_11char_traitsIcEENS0_9allocatorIcEEEERK7patternRKS6_, symObjAddr: 0x7334, symBinAddr: 0x10000AE40, symSize: 0x38C }
  - { offsetInCU: 0x39C79, offset: 0x39C79, size: 0x8, addend: 0x0, symName: __ZN8InStream10readWordToERNSt3__112basic_stringIcNS0_11char_traitsIcEENS0_9allocatorIcEEEERKS6_S9_, symObjAddr: 0x76C0, symBinAddr: 0x10000B1CC, symSize: 0xD0 }
  - { offsetInCU: 0x39CCE, offset: 0x39CCE, size: 0x8, addend: 0x0, symName: __ZN8InStream11readTokenToERNSt3__112basic_stringIcNS0_11char_traitsIcEENS0_9allocatorIcEEEERK7patternRKS6_, symObjAddr: 0x7790, symBinAddr: 0x10000B29C, symSize: 0x3C }
  - { offsetInCU: 0x39D23, offset: 0x39D23, size: 0x8, addend: 0x0, symName: __ZN8InStream11readTokenToERNSt3__112basic_stringIcNS0_11char_traitsIcEENS0_9allocatorIcEEEERKS6_S9_, symObjAddr: 0x77CC, symBinAddr: 0x10000B2D8, symSize: 0x3C }
  - { offsetInCU: 0x39D78, offset: 0x39D78, size: 0x8, addend: 0x0, symName: __ZN8InStream11readIntegerEv, symObjAddr: 0x7808, symBinAddr: 0x10000B314, symSize: 0x180 }
  - { offsetInCU: 0x39DAF, offset: 0x39DAF, size: 0x8, addend: 0x0, symName: __ZL16stringToLongLongR8InStreamPKc, symObjAddr: 0x7988, symBinAddr: 0x10000B494, symSize: 0x750 }
  - { offsetInCU: 0x39E59, offset: 0x39E59, size: 0x8, addend: 0x0, symName: __ZN8InStream8readLongEv, symObjAddr: 0x80D8, symBinAddr: 0x10000BBE4, symSize: 0x78 }
  - { offsetInCU: 0x39E81, offset: 0x39E81, size: 0x8, addend: 0x0, symName: __ZN8InStream16readUnsignedLongEv, symObjAddr: 0x8150, symBinAddr: 0x10000BC5C, symSize: 0x78 }
  - { offsetInCU: 0x39EA9, offset: 0x39EA9, size: 0x8, addend: 0x0, symName: __ZL24stringToUnsignedLongLongR8InStreamPKc, symObjAddr: 0x81C8, symBinAddr: 0x10000BCD4, symSize: 0x650 }
  - { offsetInCU: 0x39F24, offset: 0x39F24, size: 0x8, addend: 0x0, symName: __ZN8InStream8readLongExxRKNSt3__112basic_stringIcNS0_11char_traitsIcEENS0_9allocatorIcEEEE, symObjAddr: 0x8818, symBinAddr: 0x10000C324, symSize: 0xB7C }
  - { offsetInCU: 0x39F88, offset: 0x39F88, size: 0x8, addend: 0x0, symName: __ZN9Validator12addBoundsHitERKNSt3__112basic_stringIcNS0_11char_traitsIcEENS0_9allocatorIcEEEE18ValidatorBoundsHit, symObjAddr: 0x9568, symBinAddr: 0x10000D074, symSize: 0x80 }
  - { offsetInCU: 0x39FCC, offset: 0x39FCC, size: 0x8, addend: 0x0, symName: __ZN18ValidatorBoundsHitC1Ebb, symObjAddr: 0x95E8, symBinAddr: 0x10000D0F4, symSize: 0x50 }
  - { offsetInCU: 0x3A014, offset: 0x3A014, size: 0x8, addend: 0x0, symName: __ZN8InStream9readLongsEixxRKNSt3__112basic_stringIcNS0_11char_traitsIcEENS0_9allocatorIcEEEEi, symObjAddr: 0x9638, symBinAddr: 0x10000D144, symSize: 0x1CC }
  - { offsetInCU: 0x3A0AC, offset: 0x3A0AC, size: 0x8, addend: 0x0, symName: __ZNSt3__16vectorIxNS_9allocatorIxEEEC1Em, symObjAddr: 0x9804, symBinAddr: 0x10000D310, symSize: 0x34 }
  - { offsetInCU: 0x3A0E7, offset: 0x3A0E7, size: 0x8, addend: 0x0, symName: __ZNSt3__16vectorIxNS_9allocatorIxEEEixB8ue170006Em, symObjAddr: 0x9838, symBinAddr: 0x10000D344, symSize: 0x24 }
  - { offsetInCU: 0x3A11E, offset: 0x3A11E, size: 0x8, addend: 0x0, symName: __ZNSt3__16vectorIxNS_9allocatorIxEEED1B8ue170006Ev, symObjAddr: 0x985C, symBinAddr: 0x10000D368, symSize: 0x2C }
  - { offsetInCU: 0x3A148, offset: 0x3A148, size: 0x8, addend: 0x0, symName: __ZN8InStream16readUnsignedLongEyyRKNSt3__112basic_stringIcNS0_11char_traitsIcEENS0_9allocatorIcEEEE, symObjAddr: 0x9888, symBinAddr: 0x10000D394, symSize: 0xB7C }
  - { offsetInCU: 0x3A1AC, offset: 0x3A1AC, size: 0x8, addend: 0x0, symName: __ZN8InStream17readUnsignedLongsEiyyRKNSt3__112basic_stringIcNS0_11char_traitsIcEENS0_9allocatorIcEEEEi, symObjAddr: 0xA5D8, symBinAddr: 0x10000E0E4, symSize: 0x1CC }
  - { offsetInCU: 0x3A244, offset: 0x3A244, size: 0x8, addend: 0x0, symName: __ZNSt3__16vectorIyNS_9allocatorIyEEEC1Em, symObjAddr: 0xA7A4, symBinAddr: 0x10000E2B0, symSize: 0x34 }
  - { offsetInCU: 0x3A27F, offset: 0x3A27F, size: 0x8, addend: 0x0, symName: __ZNSt3__16vectorIyNS_9allocatorIyEEEixB8ue170006Em, symObjAddr: 0xA7D8, symBinAddr: 0x10000E2E4, symSize: 0x24 }
  - { offsetInCU: 0x3A2B6, offset: 0x3A2B6, size: 0x8, addend: 0x0, symName: __ZNSt3__16vectorIyNS_9allocatorIyEEED1B8ue170006Ev, symObjAddr: 0xA7FC, symBinAddr: 0x10000E308, symSize: 0x2C }
  - { offsetInCU: 0x3A2E0, offset: 0x3A2E0, size: 0x8, addend: 0x0, symName: __ZN8InStream8readLongEyyRKNSt3__112basic_stringIcNS0_11char_traitsIcEENS0_9allocatorIcEEEE, symObjAddr: 0xA828, symBinAddr: 0x10000E334, symSize: 0x3C }
  - { offsetInCU: 0x3A335, offset: 0x3A335, size: 0x8, addend: 0x0, symName: __ZN8InStream7readIntEv, symObjAddr: 0xA864, symBinAddr: 0x10000E370, symSize: 0x24 }
  - { offsetInCU: 0x3A35D, offset: 0x3A35D, size: 0x8, addend: 0x0, symName: __ZN8InStream7readIntEiiRKNSt3__112basic_stringIcNS0_11char_traitsIcEENS0_9allocatorIcEEEE, symObjAddr: 0xA888, symBinAddr: 0x10000E394, symSize: 0xB7C }
  - { offsetInCU: 0x3A3C1, offset: 0x3A3C1, size: 0x8, addend: 0x0, symName: __ZN8InStream11readIntegerEiiRKNSt3__112basic_stringIcNS0_11char_traitsIcEENS0_9allocatorIcEEEE, symObjAddr: 0xB404, symBinAddr: 0x10000EF10, symSize: 0x3C }
  - { offsetInCU: 0x3A416, offset: 0x3A416, size: 0x8, addend: 0x0, symName: __ZN8InStream8readIntsEiiiRKNSt3__112basic_stringIcNS0_11char_traitsIcEENS0_9allocatorIcEEEEi, symObjAddr: 0xB440, symBinAddr: 0x10000EF4C, symSize: 0x1CC }
  - { offsetInCU: 0x3A4AE, offset: 0x3A4AE, size: 0x8, addend: 0x0, symName: __ZNSt3__16vectorIiNS_9allocatorIiEEEC1Em, symObjAddr: 0xB60C, symBinAddr: 0x10000F118, symSize: 0x34 }
  - { offsetInCU: 0x3A4E9, offset: 0x3A4E9, size: 0x8, addend: 0x0, symName: __ZN8InStream12readIntegersEiiiRKNSt3__112basic_stringIcNS0_11char_traitsIcEENS0_9allocatorIcEEEEi, symObjAddr: 0xB640, symBinAddr: 0x10000F14C, symSize: 0x1CC }
  - { offsetInCU: 0x3A581, offset: 0x3A581, size: 0x8, addend: 0x0, symName: __ZN8InStream8readRealEv, symObjAddr: 0xB80C, symBinAddr: 0x10000F318, symSize: 0xB4 }
  - { offsetInCU: 0x3A5A9, offset: 0x3A5A9, size: 0x8, addend: 0x0, symName: __ZL14stringToDoubleR8InStreamPKc, symObjAddr: 0xB8C0, symBinAddr: 0x10000F3CC, symSize: 0x76C }
  - { offsetInCU: 0x3A699, offset: 0x3A699, size: 0x8, addend: 0x0, symName: __ZN8InStream10readDoubleEv, symObjAddr: 0xC02C, symBinAddr: 0x10000FB38, symSize: 0x24 }
  - { offsetInCU: 0x3A6C1, offset: 0x3A6C1, size: 0x8, addend: 0x0, symName: __ZN8InStream8readRealEddRKNSt3__112basic_stringIcNS0_11char_traitsIcEENS0_9allocatorIcEEEE, symObjAddr: 0xC050, symBinAddr: 0x10000FB5C, symSize: 0xB9C }
  - { offsetInCU: 0x3A724, offset: 0x3A724, size: 0x8, addend: 0x0, symName: __Z11doubleDeltadd, symObjAddr: 0xCDC0, symBinAddr: 0x1000108CC, symSize: 0xAC }
  - { offsetInCU: 0x3A78E, offset: 0x3A78E, size: 0x8, addend: 0x0, symName: __ZN8InStream9readRealsEiddRKNSt3__112basic_stringIcNS0_11char_traitsIcEENS0_9allocatorIcEEEEi, symObjAddr: 0xCE6C, symBinAddr: 0x100010978, symSize: 0x1CC }
  - { offsetInCU: 0x3A826, offset: 0x3A826, size: 0x8, addend: 0x0, symName: __ZNSt3__16vectorIdNS_9allocatorIdEEEC1Em, symObjAddr: 0xD038, symBinAddr: 0x100010B44, symSize: 0x34 }
  - { offsetInCU: 0x3A861, offset: 0x3A861, size: 0x8, addend: 0x0, symName: __ZNSt3__16vectorIdNS_9allocatorIdEEEixB8ue170006Em, symObjAddr: 0xD06C, symBinAddr: 0x100010B78, symSize: 0x24 }
  - { offsetInCU: 0x3A898, offset: 0x3A898, size: 0x8, addend: 0x0, symName: __ZNSt3__16vectorIdNS_9allocatorIdEEED1B8ue170006Ev, symObjAddr: 0xD090, symBinAddr: 0x100010B9C, symSize: 0x2C }
  - { offsetInCU: 0x3A8C2, offset: 0x3A8C2, size: 0x8, addend: 0x0, symName: __ZN8InStream10readDoubleEddRKNSt3__112basic_stringIcNS0_11char_traitsIcEENS0_9allocatorIcEEEE, symObjAddr: 0xD0BC, symBinAddr: 0x100010BC8, symSize: 0x3C }
  - { offsetInCU: 0x3A917, offset: 0x3A917, size: 0x8, addend: 0x0, symName: __ZN8InStream11readDoublesEiddRKNSt3__112basic_stringIcNS0_11char_traitsIcEENS0_9allocatorIcEEEEi, symObjAddr: 0xD0F8, symBinAddr: 0x100010C04, symSize: 0x1CC }
  - { offsetInCU: 0x3A9AF, offset: 0x3A9AF, size: 0x8, addend: 0x0, symName: __ZN8InStream14readStrictRealEddiiRKNSt3__112basic_stringIcNS0_11char_traitsIcEENS0_9allocatorIcEEEE, symObjAddr: 0xD2C4, symBinAddr: 0x100010DD0, symSize: 0xC2C }
  - { offsetInCU: 0x3AA31, offset: 0x3AA31, size: 0x8, addend: 0x0, symName: __ZL20stringToStrictDoubleR8InStreamPKcii, symObjAddr: 0xDEF0, symBinAddr: 0x1000119FC, symSize: 0xF4C }
  - { offsetInCU: 0x3AB47, offset: 0x3AB47, size: 0x8, addend: 0x0, symName: __ZN8InStream15readStrictRealsEiddiiRKNSt3__112basic_stringIcNS0_11char_traitsIcEENS0_9allocatorIcEEEEi, symObjAddr: 0xEE3C, symBinAddr: 0x100012948, symSize: 0x1DC }
  - { offsetInCU: 0x3ABFD, offset: 0x3ABFD, size: 0x8, addend: 0x0, symName: __ZN8InStream16readStrictDoubleEddiiRKNSt3__112basic_stringIcNS0_11char_traitsIcEENS0_9allocatorIcEEEE, symObjAddr: 0xF018, symBinAddr: 0x100012B24, symSize: 0x4C }
  - { offsetInCU: 0x3AC70, offset: 0x3AC70, size: 0x8, addend: 0x0, symName: __ZN8InStream17readStrictDoublesEiddiiRKNSt3__112basic_stringIcNS0_11char_traitsIcEENS0_9allocatorIcEEEEi, symObjAddr: 0xF064, symBinAddr: 0x100012B70, symSize: 0x1DC }
  - { offsetInCU: 0x3AD26, offset: 0x3AD26, size: 0x8, addend: 0x0, symName: __ZN8InStream3eofEv, symObjAddr: 0xF240, symBinAddr: 0x100012D4C, symSize: 0x8C }
  - { offsetInCU: 0x3AD4E, offset: 0x3AD4E, size: 0x8, addend: 0x0, symName: __ZN8InStream4eolnEv, symObjAddr: 0xF2CC, symBinAddr: 0x100012DD8, symSize: 0x224 }
  - { offsetInCU: 0x3ADA2, offset: 0x3ADA2, size: 0x8, addend: 0x0, symName: __ZN8InStream8readEolnEv, symObjAddr: 0xF4F0, symBinAddr: 0x100012FFC, symSize: 0x60 }
  - { offsetInCU: 0x3ADCA, offset: 0x3ADCA, size: 0x8, addend: 0x0, symName: __ZN8InStream7readEofEv, symObjAddr: 0xF550, symBinAddr: 0x10001305C, symSize: 0xAC }
  - { offsetInCU: 0x3ADF2, offset: 0x3ADF2, size: 0x8, addend: 0x0, symName: __ZN8InStream8seekEolnEv, symObjAddr: 0xF5FC, symBinAddr: 0x100013108, symSize: 0xF4 }
  - { offsetInCU: 0x3AE29, offset: 0x3AE29, size: 0x8, addend: 0x0, symName: __ZN8InStream8nextLineEv, symObjAddr: 0xF6F0, symBinAddr: 0x1000131FC, symSize: 0x34 }
  - { offsetInCU: 0x3AE51, offset: 0x3AE51, size: 0x8, addend: 0x0, symName: __ZN8InStream8readLineEv, symObjAddr: 0xF724, symBinAddr: 0x100013230, symSize: 0x2C }
  - { offsetInCU: 0x3AE79, offset: 0x3AE79, size: 0x8, addend: 0x0, symName: __ZN8InStream12readStringToERNSt3__112basic_stringIcNS0_11char_traitsIcEENS0_9allocatorIcEEEE, symObjAddr: 0xF750, symBinAddr: 0x10001325C, symSize: 0x17C }
  - { offsetInCU: 0x3AECD, offset: 0x3AECD, size: 0x8, addend: 0x0, symName: __ZN8InStream10readStringEv, symObjAddr: 0xF8CC, symBinAddr: 0x1000133D8, symSize: 0x48 }
  - { offsetInCU: 0x3AEF5, offset: 0x3AEF5, size: 0x8, addend: 0x0, symName: __ZN8InStream11readStringsEii, symObjAddr: 0xF914, symBinAddr: 0x100013420, symSize: 0x1EC }
  - { offsetInCU: 0x3AF60, offset: 0x3AF60, size: 0x8, addend: 0x0, symName: __ZN8InStream12readStringToERNSt3__112basic_stringIcNS0_11char_traitsIcEENS0_9allocatorIcEEEERK7patternRKS6_, symObjAddr: 0xFB00, symBinAddr: 0x10001360C, symSize: 0x844 }
  - { offsetInCU: 0x3AFB5, offset: 0x3AFB5, size: 0x8, addend: 0x0, symName: __ZN8InStream12readStringToERNSt3__112basic_stringIcNS0_11char_traitsIcEENS0_9allocatorIcEEEERKS6_S9_, symObjAddr: 0x10344, symBinAddr: 0x100013E50, symSize: 0xD0 }
  - { offsetInCU: 0x3B00A, offset: 0x3B00A, size: 0x8, addend: 0x0, symName: __ZN8InStream10readStringERK7patternRKNSt3__112basic_stringIcNS3_11char_traitsIcEENS3_9allocatorIcEEEE, symObjAddr: 0x10414, symBinAddr: 0x100013F20, symSize: 0x58 }
  - { offsetInCU: 0x3B050, offset: 0x3B050, size: 0x8, addend: 0x0, symName: __ZN8InStream11readStringsEiRK7patternRKNSt3__112basic_stringIcNS3_11char_traitsIcEENS3_9allocatorIcEEEEi, symObjAddr: 0x1046C, symBinAddr: 0x100013F78, symSize: 0x1FC }
  - { offsetInCU: 0x3B0D9, offset: 0x3B0D9, size: 0x8, addend: 0x0, symName: __ZN8InStream10readStringERKNSt3__112basic_stringIcNS0_11char_traitsIcEENS0_9allocatorIcEEEES8_, symObjAddr: 0x10668, symBinAddr: 0x100014174, symSize: 0x58 }
  - { offsetInCU: 0x3B11F, offset: 0x3B11F, size: 0x8, addend: 0x0, symName: __ZN8InStream11readStringsEiRKNSt3__112basic_stringIcNS0_11char_traitsIcEENS0_9allocatorIcEEEES8_i, symObjAddr: 0x106C0, symBinAddr: 0x1000141CC, symSize: 0x280 }
  - { offsetInCU: 0x3B1C0, offset: 0x3B1C0, size: 0x8, addend: 0x0, symName: __ZN8InStream10readLineToERNSt3__112basic_stringIcNS0_11char_traitsIcEENS0_9allocatorIcEEEE, symObjAddr: 0x10940, symBinAddr: 0x10001444C, symSize: 0x2C }
  - { offsetInCU: 0x3B1F7, offset: 0x3B1F7, size: 0x8, addend: 0x0, symName: __ZN8InStream9readLinesEii, symObjAddr: 0x1096C, symBinAddr: 0x100014478, symSize: 0x1EC }
  - { offsetInCU: 0x3B262, offset: 0x3B262, size: 0x8, addend: 0x0, symName: __ZN8InStream10readLineToERNSt3__112basic_stringIcNS0_11char_traitsIcEENS0_9allocatorIcEEEERK7patternRKS6_, symObjAddr: 0x10B58, symBinAddr: 0x100014664, symSize: 0x3C }
  - { offsetInCU: 0x3B2B7, offset: 0x3B2B7, size: 0x8, addend: 0x0, symName: __ZN8InStream10readLineToERNSt3__112basic_stringIcNS0_11char_traitsIcEENS0_9allocatorIcEEEERKS6_S9_, symObjAddr: 0x10B94, symBinAddr: 0x1000146A0, symSize: 0x3C }
  - { offsetInCU: 0x3B30C, offset: 0x3B30C, size: 0x8, addend: 0x0, symName: __ZN8InStream8readLineERK7patternRKNSt3__112basic_stringIcNS3_11char_traitsIcEENS3_9allocatorIcEEEE, symObjAddr: 0x10BD0, symBinAddr: 0x1000146DC, symSize: 0x3C }
  - { offsetInCU: 0x3B352, offset: 0x3B352, size: 0x8, addend: 0x0, symName: __ZN8InStream9readLinesEiRK7patternRKNSt3__112basic_stringIcNS3_11char_traitsIcEENS3_9allocatorIcEEEEi, symObjAddr: 0x10C0C, symBinAddr: 0x100014718, symSize: 0x1FC }
  - { offsetInCU: 0x3B3DB, offset: 0x3B3DB, size: 0x8, addend: 0x0, symName: __ZN8InStream8readLineERKNSt3__112basic_stringIcNS0_11char_traitsIcEENS0_9allocatorIcEEEES8_, symObjAddr: 0x10E08, symBinAddr: 0x100014914, symSize: 0x3C }
  - { offsetInCU: 0x3B421, offset: 0x3B421, size: 0x8, addend: 0x0, symName: __ZN8InStream9readLinesEiRKNSt3__112basic_stringIcNS0_11char_traitsIcEENS0_9allocatorIcEEEES8_i, symObjAddr: 0x10E44, symBinAddr: 0x100014950, symSize: 0x280 }
  - { offsetInCU: 0x3B4C2, offset: 0x3B4C2, size: 0x8, addend: 0x0, symName: __ZN8InStream7ensurefEbPKcz, symObjAddr: 0x110C4, symBinAddr: 0x100014BD0, symSize: 0x1E0 }
  - { offsetInCU: 0x3B52E, offset: 0x3B52E, size: 0x8, addend: 0x0, symName: __ZN8InStream16__testlib_ensureEbNSt3__112basic_stringIcNS0_11char_traitsIcEENS0_9allocatorIcEEEE, symObjAddr: 0x112A4, symBinAddr: 0x100014DB0, symSize: 0x5C }
  - { offsetInCU: 0x3B574, offset: 0x3B574, size: 0x8, addend: 0x0, symName: __Z4quit7TResultRKNSt3__112basic_stringIcNS0_11char_traitsIcEENS0_9allocatorIcEEEE, symObjAddr: 0x11300, symBinAddr: 0x100014E0C, symSize: 0x38 }
  - { offsetInCU: 0x3B5AD, offset: 0x3B5AD, size: 0x8, addend: 0x0, symName: __Z4quit7TResultPKc, symObjAddr: 0x11338, symBinAddr: 0x100014E44, symSize: 0x28 }
  - { offsetInCU: 0x3B5E6, offset: 0x3B5E6, size: 0x8, addend: 0x0, symName: __Z15__testlib_quitpdPKc, symObjAddr: 0x11360, symBinAddr: 0x100014E6C, symSize: 0x1D0 }
  - { offsetInCU: 0x3B63E, offset: 0x3B63E, size: 0x8, addend: 0x0, symName: __Z15__testlib_quitpiPKc, symObjAddr: 0x11530, symBinAddr: 0x10001503C, symSize: 0x1A8 }
  - { offsetInCU: 0x3B695, offset: 0x3B695, size: 0x8, addend: 0x0, symName: __Z5quitpfRKNSt3__112basic_stringIcNS_11char_traitsIcEENS_9allocatorIcEEEE, symObjAddr: 0x116D8, symBinAddr: 0x1000151E4, symSize: 0x30 }
  - { offsetInCU: 0x3B6CE, offset: 0x3B6CE, size: 0x8, addend: 0x0, symName: __Z5quitpdRKNSt3__112basic_stringIcNS_11char_traitsIcEENS_9allocatorIcEEEE, symObjAddr: 0x11708, symBinAddr: 0x100015214, symSize: 0x2C }
  - { offsetInCU: 0x3B707, offset: 0x3B707, size: 0x8, addend: 0x0, symName: __Z5quitpeRKNSt3__112basic_stringIcNS_11char_traitsIcEENS_9allocatorIcEEEE, symObjAddr: 0x11734, symBinAddr: 0x100015240, symSize: 0x2C }
  - { offsetInCU: 0x3B740, offset: 0x3B740, size: 0x8, addend: 0x0, symName: __Z5quitpiRKNSt3__112basic_stringIcNS_11char_traitsIcEENS_9allocatorIcEEEE, symObjAddr: 0x11760, symBinAddr: 0x10001526C, symSize: 0x30 }
  - { offsetInCU: 0x3B779, offset: 0x3B779, size: 0x8, addend: 0x0, symName: __Z5quitf7TResultPKcz, symObjAddr: 0x11790, symBinAddr: 0x10001529C, symSize: 0x164 }
  - { offsetInCU: 0x3B7D1, offset: 0x3B7D1, size: 0x8, addend: 0x0, symName: __Z6quitifb7TResultPKcz, symObjAddr: 0x118F4, symBinAddr: 0x100015400, symSize: 0x188 }
  - { offsetInCU: 0x3B83E, offset: 0x3B83E, size: 0x8, addend: 0x0, symName: __Z14__testlib_helpv, symObjAddr: 0x11A7C, symBinAddr: 0x100015588, symSize: 0x15C }
  - { offsetInCU: 0x3B876, offset: 0x3B876, size: 0x8, addend: 0x0, symName: __Z11registerGeniPPci, symObjAddr: 0x11BD8, symBinAddr: 0x1000156E4, symSize: 0x9C }
  - { offsetInCU: 0x3B8BF, offset: 0x3B8BF, size: 0x8, addend: 0x0, symName: __ZL30__testlib_ensuresPreconditionsv, symObjAddr: 0x11C74, symBinAddr: 0x100015780, symSize: 0x54 }
  - { offsetInCU: 0x3B8DA, offset: 0x3B8DA, size: 0x8, addend: 0x0, symName: __ZN8random_t7setSeedEiPPc, symObjAddr: 0x11CC8, symBinAddr: 0x1000157D4, symSize: 0x12C }
  - { offsetInCU: 0x3B983, offset: 0x3B983, size: 0x8, addend: 0x0, symName: __Z11registerGeniPPc, symObjAddr: 0x11DF4, symBinAddr: 0x100015900, symSize: 0x48 }
  - { offsetInCU: 0x3B9BC, offset: 0x3B9BC, size: 0x8, addend: 0x0, symName: __Z19registerInteractioniPPc, symObjAddr: 0x11E3C, symBinAddr: 0x100015948, symSize: 0x52C }
  - { offsetInCU: 0x3B9F6, offset: 0x3B9F6, size: 0x8, addend: 0x0, symName: __ZNSt3__113basic_fstreamIcNS_11char_traitsIcEEE4openEPKcj, symObjAddr: 0x12368, symBinAddr: 0x100015E74, symSize: 0x84 }
  - { offsetInCU: 0x3BA3C, offset: 0x3BA3C, size: 0x8, addend: 0x0, symName: __ZNKSt3__19basic_iosIcNS_11char_traitsIcEEE4failB8ue170006Ev, symObjAddr: 0x123EC, symBinAddr: 0x100015EF8, symSize: 0x28 }
  - { offsetInCU: 0x3BA62, offset: 0x3BA62, size: 0x8, addend: 0x0, symName: __Z18registerValidationv, symObjAddr: 0x12414, symBinAddr: 0x100015F20, symSize: 0x68 }
  - { offsetInCU: 0x3BA7C, offset: 0x3BA7C, size: 0x8, addend: 0x0, symName: __Z18registerValidationiPPc, symObjAddr: 0x1247C, symBinAddr: 0x100015F88, symSize: 0x344 }
  - { offsetInCU: 0x3BACB, offset: 0x3BACB, size: 0x8, addend: 0x0, symName: __ZN9Validator10setTestsetEPKc, symObjAddr: 0x127C0, symBinAddr: 0x1000162CC, symSize: 0x2C }
  - { offsetInCU: 0x3BB00, offset: 0x3BB00, size: 0x8, addend: 0x0, symName: __ZN9Validator8setGroupEPKc, symObjAddr: 0x127EC, symBinAddr: 0x1000162F8, symSize: 0x30 }
  - { offsetInCU: 0x3BB35, offset: 0x3BB35, size: 0x8, addend: 0x0, symName: __ZN9Validator26setTestOverviewLogFileNameEPKc, symObjAddr: 0x1281C, symBinAddr: 0x100016328, symSize: 0x30 }
  - { offsetInCU: 0x3BB69, offset: 0x3BB69, size: 0x8, addend: 0x0, symName: __Z10addFeatureRKNSt3__112basic_stringIcNS_11char_traitsIcEENS_9allocatorIcEEEE, symObjAddr: 0x1284C, symBinAddr: 0x100016358, symSize: 0x54 }
  - { offsetInCU: 0x3BB94, offset: 0x3BB94, size: 0x8, addend: 0x0, symName: __ZN9Validator10addFeatureERKNSt3__112basic_stringIcNS0_11char_traitsIcEENS0_9allocatorIcEEEE, symObjAddr: 0x128A0, symBinAddr: 0x1000163AC, symSize: 0x174 }
  - { offsetInCU: 0x3BBC8, offset: 0x3BBC8, size: 0x8, addend: 0x0, symName: __Z7featureRKNSt3__112basic_stringIcNS_11char_traitsIcEENS_9allocatorIcEEEE, symObjAddr: 0x12A14, symBinAddr: 0x100016520, symSize: 0x54 }
  - { offsetInCU: 0x3BBF3, offset: 0x3BBF3, size: 0x8, addend: 0x0, symName: __ZN9Validator7featureERKNSt3__112basic_stringIcNS0_11char_traitsIcEENS0_9allocatorIcEEEE, symObjAddr: 0x12A68, symBinAddr: 0x100016574, symSize: 0x174 }
  - { offsetInCU: 0x3BC27, offset: 0x3BC27, size: 0x8, addend: 0x0, symName: __Z18registerTestlibCmdiPPc, symObjAddr: 0x12BDC, symBinAddr: 0x1000166E8, symSize: 0x3F0 }
  - { offsetInCU: 0x3BC60, offset: 0x3BC60, size: 0x8, addend: 0x0, symName: __Z15registerTestlibiz, symObjAddr: 0x12FCC, symBinAddr: 0x100016AD8, symSize: 0x1AC }
  - { offsetInCU: 0x3BCC6, offset: 0x3BCC6, size: 0x8, addend: 0x0, symName: __Z7setNamePKcz, symObjAddr: 0x13178, symBinAddr: 0x100016C84, symSize: 0x174 }
  - { offsetInCU: 0x3BD0F, offset: 0x3BD0F, size: 0x8, addend: 0x0, symName: __Z9startTesti, symObjAddr: 0x13334, symBinAddr: 0x100016E40, symSize: 0x120 }
  - { offsetInCU: 0x3BD48, offset: 0x3BD48, size: 0x8, addend: 0x0, symName: __Z5splitRKNSt3__112basic_stringIcNS_11char_traitsIcEENS_9allocatorIcEEEEc, symObjAddr: 0x13454, symBinAddr: 0x100016F60, symSize: 0x18C }
  - { offsetInCU: 0x3BDBA, offset: 0x3BDBA, size: 0x8, addend: 0x0, symName: __ZNSt3__16vectorINS_12basic_stringIcNS_11char_traitsIcEENS_9allocatorIcEEEENS4_IS6_EEEC1B8ue170006Ev, symObjAddr: 0x135E0, symBinAddr: 0x1000170EC, symSize: 0x2C }
  - { offsetInCU: 0x3BDE4, offset: 0x3BDE4, size: 0x8, addend: 0x0, symName: __ZNKSt3__112basic_stringIcNS_11char_traitsIcEENS_9allocatorIcEEEixB8ue170006Em, symObjAddr: 0x1360C, symBinAddr: 0x100017118, symSize: 0x30 }
  - { offsetInCU: 0x3BE19, offset: 0x3BE19, size: 0x8, addend: 0x0, symName: __ZNSt3__16vectorINS_12basic_stringIcNS_11char_traitsIcEENS_9allocatorIcEEEENS4_IS6_EEE9push_backB8ue170006ERKS6_, symObjAddr: 0x1363C, symBinAddr: 0x100017148, symSize: 0x6C }
  - { offsetInCU: 0x3BE4F, offset: 0x3BE4F, size: 0x8, addend: 0x0, symName: __Z5splitRKNSt3__112basic_stringIcNS_11char_traitsIcEENS_9allocatorIcEEEES7_, symObjAddr: 0x136A8, symBinAddr: 0x1000171B4, symSize: 0x294 }
  - { offsetInCU: 0x3BEEF, offset: 0x3BEEF, size: 0x8, addend: 0x0, symName: __ZNSt3__16vectorINS_12basic_stringIcNS_11char_traitsIcEENS_9allocatorIcEEEENS4_IS6_EEEC1EmRKS6_, symObjAddr: 0x1393C, symBinAddr: 0x100017448, symSize: 0x3C }
  - { offsetInCU: 0x3BF39, offset: 0x3BF39, size: 0x8, addend: 0x0, symName: __ZNSt3__16vectorIbNS_9allocatorIbEEEC1Em, symObjAddr: 0x13978, symBinAddr: 0x100017484, symSize: 0x34 }
  - { offsetInCU: 0x3BF74, offset: 0x3BF74, size: 0x8, addend: 0x0, symName: __ZNKSt3__112basic_stringIcNS_11char_traitsIcEENS_9allocatorIcEEE4sizeB8ue170006Ev, symObjAddr: 0x139AC, symBinAddr: 0x1000174B8, symSize: 0x54 }
  - { offsetInCU: 0x3BF9A, offset: 0x3BF9A, size: 0x8, addend: 0x0, symName: __ZNSt3__16vectorIbNS_9allocatorIbEEEixB8ue170006Em, symObjAddr: 0x13A00, symBinAddr: 0x10001750C, symSize: 0x3C }
  - { offsetInCU: 0x3BFCF, offset: 0x3BFCF, size: 0x8, addend: 0x0, symName: __ZNSt3__115__bit_referenceINS_6vectorIbNS_9allocatorIbEEEELb1EEaSB8ue170006Eb, symObjAddr: 0x13A3C, symBinAddr: 0x100017548, symSize: 0x6C }
  - { offsetInCU: 0x3C003, offset: 0x3C003, size: 0x8, addend: 0x0, symName: __ZNKSt3__115__bit_referenceINS_6vectorIbNS_9allocatorIbEEEELb1EEcvbB8ue170006Ev, symObjAddr: 0x13AA8, symBinAddr: 0x1000175B4, symSize: 0x2C }
  - { offsetInCU: 0x3C029, offset: 0x3C029, size: 0x8, addend: 0x0, symName: __ZNSt3__16vectorIbNS_9allocatorIbEEED1B8ue170006Ev, symObjAddr: 0x13AD4, symBinAddr: 0x1000175E0, symSize: 0x2C }
  - { offsetInCU: 0x3C052, offset: 0x3C052, size: 0x8, addend: 0x0, symName: __Z8tokenizeRKNSt3__112basic_stringIcNS_11char_traitsIcEENS_9allocatorIcEEEEc, symObjAddr: 0x13B00, symBinAddr: 0x10001760C, symSize: 0x1B4 }
  - { offsetInCU: 0x3C0C3, offset: 0x3C0C3, size: 0x8, addend: 0x0, symName: __Z8tokenizeRKNSt3__112basic_stringIcNS_11char_traitsIcEENS_9allocatorIcEEEES7_, symObjAddr: 0x13CB4, symBinAddr: 0x1000177C0, symSize: 0x2BC }
  - { offsetInCU: 0x3C162, offset: 0x3C162, size: 0x8, addend: 0x0, symName: __Z26__testlib_expectedButFound7TResultNSt3__112basic_stringIcNS0_11char_traitsIcEENS0_9allocatorIcEEEES6_PKc, symObjAddr: 0x13F70, symBinAddr: 0x100017A7C, symSize: 0x304 }
  - { offsetInCU: 0x3C1CB, offset: 0x3C1CB, size: 0x8, addend: 0x0, symName: __Z8compressRKNSt3__112basic_stringIcNS_11char_traitsIcEENS_9allocatorIcEEEE, symObjAddr: 0x14274, symBinAddr: 0x100017D80, symSize: 0x2C }
  - { offsetInCU: 0x3C1F9, offset: 0x3C1F9, size: 0x8, addend: 0x0, symName: __Z26__testlib_expectedButFound7TResultddPKc, symObjAddr: 0x142A0, symBinAddr: 0x100017DAC, symSize: 0x194 }
  - { offsetInCU: 0x3C26F, offset: 0x3C26F, size: 0x8, addend: 0x0, symName: __Z16expectedButFoundINSt3__112basic_stringIcNS0_11char_traitsIcEENS0_9allocatorIcEEEEEv7TResultT_S8_PKcz, symObjAddr: 0x14434, symBinAddr: 0x100017F40, symSize: 0x1E8 }
  - { offsetInCU: 0x3C2F1, offset: 0x3C2F1, size: 0x8, addend: 0x0, symName: __Z16expectedButFoundIdEv7TResultT_S1_PKcz, symObjAddr: 0x1461C, symBinAddr: 0x100018128, symSize: 0x2D4 }
  - { offsetInCU: 0x3C392, offset: 0x3C392, size: 0x8, addend: 0x0, symName: __Z16expectedButFoundIPKcEv7TResultT_S3_S1_z, symObjAddr: 0x148F0, symBinAddr: 0x1000183FC, symSize: 0x1E0 }
  - { offsetInCU: 0x3C412, offset: 0x3C412, size: 0x8, addend: 0x0, symName: __Z16expectedButFoundIfEv7TResultT_S1_PKcz, symObjAddr: 0x14AD0, symBinAddr: 0x1000185DC, symSize: 0x19C }
  - { offsetInCU: 0x3C492, offset: 0x3C492, size: 0x8, addend: 0x0, symName: __Z16expectedButFoundIeEv7TResultT_S1_PKcz, symObjAddr: 0x14C6C, symBinAddr: 0x100018778, symSize: 0x194 }
  - { offsetInCU: 0x3C512, offset: 0x3C512, size: 0x8, addend: 0x0, symName: __ZN5TimerC1Ev, symObjAddr: 0x14E00, symBinAddr: 0x10001890C, symSize: 0x2C }
  - { offsetInCU: 0x3C53B, offset: 0x3C53B, size: 0x8, addend: 0x0, symName: __Z8totalCosRK13HeuristicDataNSt3__16vectorIiNS2_9allocatorIiEEEEi, symObjAddr: 0x14E2C, symBinAddr: 0x100018938, symSize: 0xB0 }
  - { offsetInCU: 0x3C5E4, offset: 0x3C5E4, size: 0x8, addend: 0x0, symName: __ZNSt3__16vectorIiNS_9allocatorIiEEE5beginB8ue170006Ev, symObjAddr: 0x14EDC, symBinAddr: 0x1000189E8, symSize: 0x30 }
  - { offsetInCU: 0x3C60C, offset: 0x3C60C, size: 0x8, addend: 0x0, symName: __ZNSt3__16vectorIiNS_9allocatorIiEEE3endB8ue170006Ev, symObjAddr: 0x14F0C, symBinAddr: 0x100018A18, symSize: 0x30 }
  - { offsetInCU: 0x3C634, offset: 0x3C634, size: 0x8, addend: 0x0, symName: __ZNKSt3__111__wrap_iterIPiEdeB8ue170006Ev, symObjAddr: 0x14F70, symBinAddr: 0x100018A7C, symSize: 0x18 }
  - { offsetInCU: 0x3C65A, offset: 0x3C65A, size: 0x8, addend: 0x0, symName: __ZNKSt3__16vectorINS0_IdNS_9allocatorIdEEEENS1_IS3_EEEixB8ue170006Em, symObjAddr: 0x14F88, symBinAddr: 0x100018A94, symSize: 0x2C }
  - { offsetInCU: 0x3C691, offset: 0x3C691, size: 0x8, addend: 0x0, symName: __ZNKSt3__16vectorIdNS_9allocatorIdEEEixB8ue170006Em, symObjAddr: 0x14FB4, symBinAddr: 0x100018AC0, symSize: 0x24 }
  - { offsetInCU: 0x3C6C8, offset: 0x3C6C8, size: 0x8, addend: 0x0, symName: __ZNSt3__111__wrap_iterIPiEppB8ue170006Ev, symObjAddr: 0x14FD8, symBinAddr: 0x100018AE4, symSize: 0x20 }
  - { offsetInCU: 0x3C6ED, offset: 0x3C6ED, size: 0x8, addend: 0x0, symName: __Z16select_next_nodedRK15MatrixPheromoneRK13HeuristicDataNSt3__16vectorIjNS5_9allocatorIjEEEENS6_IiNS7_IiEEEE, symObjAddr: 0x14FF8, symBinAddr: 0x100018B04, symSize: 0x598 }
  - { offsetInCU: 0x3C8C2, offset: 0x3C8C2, size: 0x8, addend: 0x0, symName: __ZNKSt3__16vectorIjNS_9allocatorIjEEE4sizeB8ue170006Ev, symObjAddr: 0x15590, symBinAddr: 0x10001909C, symSize: 0x28 }
  - { offsetInCU: 0x3C8E8, offset: 0x3C8E8, size: 0x8, addend: 0x0, symName: __ZN8random_t4nextEv, symObjAddr: 0x155B8, symBinAddr: 0x1000190C4, symSize: 0x64 }
  - { offsetInCU: 0x3C92C, offset: 0x3C92C, size: 0x8, addend: 0x0, symName: __ZNKSt3__16vectorIjNS_9allocatorIjEEE5beginB8ue170006Ev, symObjAddr: 0x1561C, symBinAddr: 0x100019128, symSize: 0x30 }
  - { offsetInCU: 0x3C954, offset: 0x3C954, size: 0x8, addend: 0x0, symName: __ZNKSt3__16vectorIjNS_9allocatorIjEEE3endB8ue170006Ev, symObjAddr: 0x1564C, symBinAddr: 0x100019158, symSize: 0x30 }
  - { offsetInCU: 0x3C97C, offset: 0x3C97C, size: 0x8, addend: 0x0, symName: __ZNKSt3__111__wrap_iterIPKjEdeB8ue170006Ev, symObjAddr: 0x156B0, symBinAddr: 0x1000191BC, symSize: 0x18 }
  - { offsetInCU: 0x3CAF2, offset: 0x3CAF2, size: 0x8, addend: 0x0, symName: __ZNK15MatrixPheromone3getEj, symObjAddr: 0x156C8, symBinAddr: 0x1000191D4, symSize: 0x7C }
  - { offsetInCU: 0x3CCBB, offset: 0x3CCBB, size: 0x8, addend: 0x0, symName: __ZNK13HeuristicData20getMutualInformationEi, symObjAddr: 0x15744, symBinAddr: 0x100019250, symSize: 0x34 }
  - { offsetInCU: 0x3CCEF, offset: 0x3CCEF, size: 0x8, addend: 0x0, symName: __ZNSt3__16vectorIiNS_9allocatorIiEEEC1ERKS3_, symObjAddr: 0x15778, symBinAddr: 0x100019284, symSize: 0x34 }
  - { offsetInCU: 0x3CD2A, offset: 0x3CD2A, size: 0x8, addend: 0x0, symName: __ZNSt3__111__wrap_iterIPKjEppB8ue170006Ev, symObjAddr: 0x157AC, symBinAddr: 0x1000192B8, symSize: 0x20 }
  - { offsetInCU: 0x3CD50, offset: 0x3CD50, size: 0x8, addend: 0x0, symName: __ZNKSt3__16vectorIjNS_9allocatorIjEEEixB8ue170006Em, symObjAddr: 0x157CC, symBinAddr: 0x1000192D8, symSize: 0x24 }
  - { offsetInCU: 0x3CD87, offset: 0x3CD87, size: 0x8, addend: 0x0, symName: __ZN8random_t4nextEx, symObjAddr: 0x157F0, symBinAddr: 0x1000192FC, symSize: 0xE4 }
  - { offsetInCU: 0x3CDD9, offset: 0x3CDD9, size: 0x8, addend: 0x0, symName: __Z15run_origin_algoRK14ProgramOptionsRK13HeuristicData, symObjAddr: 0x158D4, symBinAddr: 0x1000193E0, symSize: 0xB0C }
  - { offsetInCU: 0x3D029, offset: 0x3D029, size: 0x8, addend: 0x0, symName: __ZN3AntC1Ev, symObjAddr: 0x163E0, symBinAddr: 0x100019EEC, symSize: 0x2C }
  - { offsetInCU: 0x3D16C, offset: 0x3D16C, size: 0x8, addend: 0x0, symName: __ZN3KNNC1Ev, symObjAddr: 0x1640C, symBinAddr: 0x100019F18, symSize: 0x2C }
  - { offsetInCU: 0x3D198, offset: 0x3D198, size: 0x8, addend: 0x0, symName: __ZN3KNN4initERKNSt3__16vectorINS1_IiNS0_9allocatorIiEEEENS2_IS4_EEEERKS4_d, symObjAddr: 0x16438, symBinAddr: 0x100019F44, symSize: 0x158 }
  - { offsetInCU: 0x3D2EA, offset: 0x3D2EA, size: 0x8, addend: 0x0, symName: __ZN14MinMaxACOModelC1ERK14ProgramOptionsj, symObjAddr: 0x16590, symBinAddr: 0x10001A09C, symSize: 0x3C }
  - { offsetInCU: 0x3D330, offset: 0x3D330, size: 0x8, addend: 0x0, symName: __ZNSt3__16vectorI3AntNS_9allocatorIS1_EEEC1B8ue170006Ev, symObjAddr: 0x165CC, symBinAddr: 0x10001A0D8, symSize: 0x2C }
  - { offsetInCU: 0x3D35A, offset: 0x3D35A, size: 0x8, addend: 0x0, symName: __ZNSt3__16vectorINS_4pairIdiEENS_9allocatorIS2_EEEC1B8ue170006Ev, symObjAddr: 0x165F8, symBinAddr: 0x10001A104, symSize: 0x2C }
  - { offsetInCU: 0x3D384, offset: 0x3D384, size: 0x8, addend: 0x0, symName: __ZN3Ant10initializeEj, symObjAddr: 0x16624, symBinAddr: 0x10001A130, symSize: 0xA8 }
  - { offsetInCU: 0x3D3B8, offset: 0x3D3B8, size: 0x8, addend: 0x0, symName: __ZN14MinMaxACOModel13get_pheromoneEv, symObjAddr: 0x166CC, symBinAddr: 0x10001A1D8, symSize: 0x3C }
  - { offsetInCU: 0x3D3DE, offset: 0x3D3DE, size: 0x8, addend: 0x0, symName: __ZN3Ant19get_unvisited_nodesEv, symObjAddr: 0x16708, symBinAddr: 0x10001A214, symSize: 0x124 }
  - { offsetInCU: 0x3D458, offset: 0x3D458, size: 0x8, addend: 0x0, symName: __ZNSt3__16vectorIjNS_9allocatorIjEEEC1ERKS3_, symObjAddr: 0x1682C, symBinAddr: 0x10001A338, symSize: 0x34 }
  - { offsetInCU: 0x3D493, offset: 0x3D493, size: 0x8, addend: 0x0, symName: __ZNSt3__16vectorIjNS_9allocatorIjEEED1B8ue170006Ev, symObjAddr: 0x16860, symBinAddr: 0x10001A36C, symSize: 0x2C }
  - { offsetInCU: 0x3D4BD, offset: 0x3D4BD, size: 0x8, addend: 0x0, symName: __ZN15MatrixPheromoneD1Ev, symObjAddr: 0x1688C, symBinAddr: 0x10001A398, symSize: 0x2C }
  - { offsetInCU: 0x3D4E9, offset: 0x3D4E9, size: 0x8, addend: 0x0, symName: __ZN3Ant5visitEj, symObjAddr: 0x168B8, symBinAddr: 0x10001A3C4, symSize: 0xB0 }
  - { offsetInCU: 0x3D51D, offset: 0x3D51D, size: 0x8, addend: 0x0, symName: __ZNSt3__16vectorI3AntNS_9allocatorIS1_EEE9push_backB8ue170006ERKS1_, symObjAddr: 0x16968, symBinAddr: 0x10001A474, symSize: 0x6C }
  - { offsetInCU: 0x3D554, offset: 0x3D554, size: 0x8, addend: 0x0, symName: __ZNSt3__16vectorINS_4pairIdiEENS_9allocatorIS2_EEE9push_backB8ue170006EOS2_, symObjAddr: 0x169D4, symBinAddr: 0x10001A4E0, symSize: 0x6C }
  - { offsetInCU: 0x3D5A7, offset: 0x3D5A7, size: 0x8, addend: 0x0, symName: __ZNSt3__14pairIdiEC1B8ue170006IdjEERKNS0_IT_T0_EE, symObjAddr: 0x16A78, symBinAddr: 0x10001A584, symSize: 0x34 }
  - { offsetInCU: 0x3D5F1, offset: 0x3D5F1, size: 0x8, addend: 0x0, symName: __ZN3AntD1Ev, symObjAddr: 0x16AAC, symBinAddr: 0x10001A5B8, symSize: 0x2C }
  - { offsetInCU: 0x3D61D, offset: 0x3D61D, size: 0x8, addend: 0x0, symName: __ZNSt3__16vectorINS_4pairIdiEENS_9allocatorIS2_EEE5beginB8ue170006Ev, symObjAddr: 0x16B14, symBinAddr: 0x10001A620, symSize: 0x30 }
  - { offsetInCU: 0x3D645, offset: 0x3D645, size: 0x8, addend: 0x0, symName: __ZNSt3__16vectorINS_4pairIdiEENS_9allocatorIS2_EEE3endB8ue170006Ev, symObjAddr: 0x16B44, symBinAddr: 0x10001A650, symSize: 0x30 }
  - { offsetInCU: 0x3D66D, offset: 0x3D66D, size: 0x8, addend: 0x0, symName: __ZNSt3__16vectorI3AntNS_9allocatorIS1_EEEixB8ue170006Em, symObjAddr: 0x16B74, symBinAddr: 0x10001A680, symSize: 0x2C }
  - { offsetInCU: 0x3D6A4, offset: 0x3D6A4, size: 0x8, addend: 0x0, symName: __ZNSt3__16vectorINS_4pairIdiEENS_9allocatorIS2_EEEixB8ue170006Em, symObjAddr: 0x16BA0, symBinAddr: 0x10001A6AC, symSize: 0x24 }
  - { offsetInCU: 0x3D6DB, offset: 0x3D6DB, size: 0x8, addend: 0x0, symName: __ZN3AntC1ERKS_, symObjAddr: 0x16BC4, symBinAddr: 0x10001A6D0, symSize: 0x34 }
  - { offsetInCU: 0x3D710, offset: 0x3D710, size: 0x8, addend: 0x0, symName: __ZN3KNN18calculateStatisticENSt3__16vectorIiNS0_9allocatorIiEEEE, symObjAddr: 0x16BF8, symBinAddr: 0x10001A704, symSize: 0x32C }
  - { offsetInCU: 0x3D7E1, offset: 0x3D7E1, size: 0x8, addend: 0x0, symName: __ZNSt3__14pairIddEaSB8ue170006ERKS1_, symObjAddr: 0x16F24, symBinAddr: 0x10001AA30, symSize: 0x30 }
  - { offsetInCU: 0x3D815, offset: 0x3D815, size: 0x8, addend: 0x0, symName: __ZN3AntaSERKS_, symObjAddr: 0x16F84, symBinAddr: 0x10001AA90, symSize: 0xA8 }
  - { offsetInCU: 0x3D846, offset: 0x3D846, size: 0x8, addend: 0x0, symName: __ZN14MinMaxACOModel26evaporate_pheromone_smoothENSt3__16vectorIjNS0_9allocatorIjEEEE, symObjAddr: 0x1702C, symBinAddr: 0x10001AB38, symSize: 0x90 }
  - { offsetInCU: 0x3D8CC, offset: 0x3D8CC, size: 0x8, addend: 0x0, symName: __ZN14MinMaxACOModel24deposit_pheromone_smoothENSt3__16vectorIiNS0_9allocatorIiEEEE, symObjAddr: 0x170BC, symBinAddr: 0x10001ABC8, symSize: 0x90 }
  - { offsetInCU: 0x3D952, offset: 0x3D952, size: 0x8, addend: 0x0, symName: __ZNK5Timer19get_elapsed_secondsEv, symObjAddr: 0x171C8, symBinAddr: 0x10001ACD4, symSize: 0x34 }
  - { offsetInCU: 0x3D978, offset: 0x3D978, size: 0x8, addend: 0x0, symName: __ZNSt3__16vectorIdNS_9allocatorIdEEE5beginB8ue170006Ev, symObjAddr: 0x171FC, symBinAddr: 0x10001AD08, symSize: 0x30 }
  - { offsetInCU: 0x3D9A0, offset: 0x3D9A0, size: 0x8, addend: 0x0, symName: __ZNSt3__16vectorIdNS_9allocatorIdEEE3endB8ue170006Ev, symObjAddr: 0x1722C, symBinAddr: 0x10001AD38, symSize: 0x30 }
  - { offsetInCU: 0x3D9C8, offset: 0x3D9C8, size: 0x8, addend: 0x0, symName: __ZNKSt3__111__wrap_iterIPdEdeB8ue170006Ev, symObjAddr: 0x17290, symBinAddr: 0x10001AD9C, symSize: 0x18 }
  - { offsetInCU: 0x3D9EE, offset: 0x3D9EE, size: 0x8, addend: 0x0, symName: __ZNSt3__111__wrap_iterIPdEppB8ue170006Ev, symObjAddr: 0x172A8, symBinAddr: 0x10001ADB4, symSize: 0x20 }
  - { offsetInCU: 0x3DA14, offset: 0x3DA14, size: 0x8, addend: 0x0, symName: __ZNSt3__16vectorINS_4pairIdiEENS_9allocatorIS2_EEED1B8ue170006Ev, symObjAddr: 0x172C8, symBinAddr: 0x10001ADD4, symSize: 0x2C }
  - { offsetInCU: 0x3DA3E, offset: 0x3DA3E, size: 0x8, addend: 0x0, symName: __ZNSt3__16vectorI3AntNS_9allocatorIS1_EEED1B8ue170006Ev, symObjAddr: 0x172F4, symBinAddr: 0x10001AE00, symSize: 0x2C }
  - { offsetInCU: 0x3DA68, offset: 0x3DA68, size: 0x8, addend: 0x0, symName: __ZN14MinMaxACOModelD1Ev, symObjAddr: 0x17320, symBinAddr: 0x10001AE2C, symSize: 0x2C }
  - { offsetInCU: 0x3DA94, offset: 0x3DA94, size: 0x8, addend: 0x0, symName: __ZN3KNND1Ev, symObjAddr: 0x1734C, symBinAddr: 0x10001AE58, symSize: 0x2C }
  - { offsetInCU: 0x3DAC0, offset: 0x3DAC0, size: 0x8, addend: 0x0, symName: _main, symObjAddr: 0x17378, symBinAddr: 0x10001AE84, symSize: 0xC8 }
  - { offsetInCU: 0x3DAF8, offset: 0x3DAF8, size: 0x8, addend: 0x0, symName: __ZN13HeuristicDataC1EPKc, symObjAddr: 0x17440, symBinAddr: 0x10001AF4C, symSize: 0x34 }
  - { offsetInCU: 0x3DB35, offset: 0x3DB35, size: 0x8, addend: 0x0, symName: __ZN14ProgramOptionsC1Ev, symObjAddr: 0x17474, symBinAddr: 0x10001AF80, symSize: 0x2C }
  - { offsetInCU: 0x3DB61, offset: 0x3DB61, size: 0x8, addend: 0x0, symName: __ZN8random_t7setSeedEx, symObjAddr: 0x174A0, symBinAddr: 0x10001AFAC, symSize: 0x3C }
  - { offsetInCU: 0x3DB96, offset: 0x3DB96, size: 0x8, addend: 0x0, symName: __ZNK5Timer23get_elapsed_nanosecondsEv, symObjAddr: 0x174DC, symBinAddr: 0x10001AFE8, symSize: 0x5C }
  - { offsetInCU: 0x3DBBC, offset: 0x3DBBC, size: 0x8, addend: 0x0, symName: __ZN13HeuristicDataD1Ev, symObjAddr: 0x17538, symBinAddr: 0x10001B044, symSize: 0x2C }
  - { offsetInCU: 0x3DBE8, offset: 0x3DBE8, size: 0x8, addend: 0x0, symName: __ZNKSt3__16vectorIcNS_9allocatorIcEEE5beginB8ue170006Ev, symObjAddr: 0x175AC, symBinAddr: 0x10001B0B8, symSize: 0x30 }
  - { offsetInCU: 0x3DC10, offset: 0x3DC10, size: 0x8, addend: 0x0, symName: __ZNKSt3__16vectorIcNS_9allocatorIcEEE3endB8ue170006Ev, symObjAddr: 0x175DC, symBinAddr: 0x10001B0E8, symSize: 0x30 }
  - { offsetInCU: 0x3DC42, offset: 0x3DC42, size: 0x8, addend: 0x0, symName: __ZNKSt3__16__lessIvvEclB8ue170006IccEEbRKT_RKT0_, symObjAddr: 0x17754, symBinAddr: 0x10001B260, symSize: 0x34 }
  - { offsetInCU: 0x3DC96, offset: 0x3DC96, size: 0x8, addend: 0x0, symName: __ZNKSt3__111__wrap_iterIPKcEdeB8ue170006Ev, symObjAddr: 0x17788, symBinAddr: 0x10001B294, symSize: 0x18 }
  - { offsetInCU: 0x3DCBC, offset: 0x3DCBC, size: 0x8, addend: 0x0, symName: __ZNSt3__18_IterOpsINS_17_ClassicAlgPolicyEE8distanceB8ue170006INS_11__wrap_iterIPKcEEEENS_15iterator_traitsIT_E15difference_typeES9_S9_, symObjAddr: 0x178A8, symBinAddr: 0x10001B3B4, symSize: 0x3C }
  - { offsetInCU: 0x3DCF6, offset: 0x3DCF6, size: 0x8, addend: 0x0, symName: __ZNSt3__18_IterOpsINS_17_ClassicAlgPolicyEE7advanceB8ue170006INS_11__wrap_iterIPKcEElEEvRT_T0_, symObjAddr: 0x17900, symBinAddr: 0x10001B40C, symSize: 0x2C }
  - { offsetInCU: 0x3DD39, offset: 0x3DD39, size: 0x8, addend: 0x0, symName: __ZNSt3__111__wrap_iterIPKcEppB8ue170006Ev, symObjAddr: 0x17990, symBinAddr: 0x10001B49C, symSize: 0x20 }
  - { offsetInCU: 0x3DD5F, offset: 0x3DD5F, size: 0x8, addend: 0x0, symName: __ZNKSt3__111__wrap_iterIPKcE4baseB8ue170006Ev, symObjAddr: 0x17A5C, symBinAddr: 0x10001B568, symSize: 0x18 }
  - { offsetInCU: 0x3DD85, offset: 0x3DD85, size: 0x8, addend: 0x0, symName: __ZNSt3__111__wrap_iterIPKcEpLB8ue170006El, symObjAddr: 0x17AEC, symBinAddr: 0x10001B5F8, symSize: 0x28 }
  - { offsetInCU: 0x3DDC3, offset: 0x3DDC3, size: 0x8, addend: 0x0, symName: __ZNKSt3__110__identityclB8ue170006IRKcEEOT_S5_, symObjAddr: 0x17B14, symBinAddr: 0x10001B620, symSize: 0x18 }
  - { offsetInCU: 0x3DE00, offset: 0x3DE00, size: 0x8, addend: 0x0, symName: __ZNKSt3__16vectorIcNS_9allocatorIcEEE11__make_iterB8ue170006EPKc, symObjAddr: 0x17B74, symBinAddr: 0x10001B680, symSize: 0x30 }
  - { offsetInCU: 0x3DE35, offset: 0x3DE35, size: 0x8, addend: 0x0, symName: __ZNSt3__111__wrap_iterIPKcEC1B8ue170006ES2_, symObjAddr: 0x17BA4, symBinAddr: 0x10001B6B0, symSize: 0x34 }
  - { offsetInCU: 0x3DE6D, offset: 0x3DE6D, size: 0x8, addend: 0x0, symName: __ZNSt3__111__wrap_iterIPKcEC2B8ue170006ES2_, symObjAddr: 0x17BD8, symBinAddr: 0x10001B6E4, symSize: 0x20 }
  - { offsetInCU: 0x3DEA5, offset: 0x3DEA5, size: 0x8, addend: 0x0, symName: __ZN8random_t8nextBitsEi, symObjAddr: 0x17BF8, symBinAddr: 0x10001B704, symSize: 0x140 }
  - { offsetInCU: 0x3DF0D, offset: 0x3DF0D, size: 0x8, addend: 0x0, symName: __ZN7patternD2Ev, symObjAddr: 0x17D38, symBinAddr: 0x10001B844, symSize: 0x98 }
  - { offsetInCU: 0x3DF3A, offset: 0x3DF3A, size: 0x8, addend: 0x0, symName: __ZNSt3__16vectorIcNS_9allocatorIcEEE9push_backB8ue170006ERKc, symObjAddr: 0x17DD0, symBinAddr: 0x10001B8DC, symSize: 0x6C }
  - { offsetInCU: 0x3DF71, offset: 0x3DF71, size: 0x8, addend: 0x0, symName: __ZL17__pattern_getCharRKNSt3__112basic_stringIcNS_11char_traitsIcEENS_9allocatorIcEEEERm, symObjAddr: 0x17E3C, symBinAddr: 0x10001B948, symSize: 0x78 }
  - { offsetInCU: 0x3DFAF, offset: 0x3DFAF, size: 0x8, addend: 0x0, symName: __ZNSt3__16vectorIcNS_9allocatorIcEEE5beginB8ue170006Ev, symObjAddr: 0x17EF0, symBinAddr: 0x10001B9FC, symSize: 0x30 }
  - { offsetInCU: 0x3DFD7, offset: 0x3DFD7, size: 0x8, addend: 0x0, symName: __ZNSt3__16vectorIcNS_9allocatorIcEEE3endB8ue170006Ev, symObjAddr: 0x17F20, symBinAddr: 0x10001BA2C, symSize: 0x30 }
  - { offsetInCU: 0x3DFFF, offset: 0x3DFFF, size: 0x8, addend: 0x0, symName: __ZNSt3__16vectorIcNS_9allocatorIcEEEaSB8ue170006ERKS3_, symObjAddr: 0x17F98, symBinAddr: 0x10001BAA4, symSize: 0x68 }
  - { offsetInCU: 0x3E036, offset: 0x3E036, size: 0x8, addend: 0x0, symName: __ZNSt3__16vectorIcNS_9allocatorIcEEE9push_backB8ue170006EOc, symObjAddr: 0x18000, symBinAddr: 0x10001BB0C, symSize: 0x6C }
  - { offsetInCU: 0x3E06D, offset: 0x3E06D, size: 0x8, addend: 0x0, symName: __ZNSt3__16vectorIcNS_9allocatorIcEEE9__end_capB8ue170006Ev, symObjAddr: 0x1806C, symBinAddr: 0x10001BB78, symSize: 0x28 }
  - { offsetInCU: 0x3E093, offset: 0x3E093, size: 0x8, addend: 0x0, symName: __ZNSt3__16vectorIcNS_9allocatorIcEEE22__construct_one_at_endB8ue170006IJRKcEEEvDpOT_, symObjAddr: 0x18094, symBinAddr: 0x10001BBA0, symSize: 0x98 }
  - { offsetInCU: 0x3E0E2, offset: 0x3E0E2, size: 0x8, addend: 0x0, symName: __ZNSt3__16vectorIcNS_9allocatorIcEEE21__push_back_slow_pathIRKcEEvOT_, symObjAddr: 0x1812C, symBinAddr: 0x10001BC38, symSize: 0xE0 }
  - { offsetInCU: 0x3E140, offset: 0x3E140, size: 0x8, addend: 0x0, symName: __ZNSt3__117__compressed_pairIPcNS_9allocatorIcEEE5firstB8ue170006Ev, symObjAddr: 0x1820C, symBinAddr: 0x10001BD18, symSize: 0x24 }
  - { offsetInCU: 0x3E166, offset: 0x3E166, size: 0x8, addend: 0x0, symName: __ZNSt3__122__compressed_pair_elemIPcLi0ELb0EE5__getB8ue170006Ev, symObjAddr: 0x18230, symBinAddr: 0x10001BD3C, symSize: 0x14 }
  - { offsetInCU: 0x3E1A7, offset: 0x3E1A7, size: 0x8, addend: 0x0, symName: __ZNSt3__16vectorIcNS_9allocatorIcEEE21_ConstructTransactionC1B8ue170006ERS3_m, symObjAddr: 0x18244, symBinAddr: 0x10001BD50, symSize: 0x3C }
  - { offsetInCU: 0x3E1EF, offset: 0x3E1EF, size: 0x8, addend: 0x0, symName: __ZNSt3__116allocator_traitsINS_9allocatorIcEEE9constructB8ue170006IcJRKcEvEEvRS2_PT_DpOT0_, symObjAddr: 0x18280, symBinAddr: 0x10001BD8C, symSize: 0x34 }
  - { offsetInCU: 0x3E246, offset: 0x3E246, size: 0x8, addend: 0x0, symName: __ZNSt3__16vectorIcNS_9allocatorIcEEE7__allocB8ue170006Ev, symObjAddr: 0x182B4, symBinAddr: 0x10001BDC0, symSize: 0x28 }
  - { offsetInCU: 0x3E26C, offset: 0x3E26C, size: 0x8, addend: 0x0, symName: __ZNSt3__16vectorIcNS_9allocatorIcEEE21_ConstructTransactionD1B8ue170006Ev, symObjAddr: 0x182F0, symBinAddr: 0x10001BDFC, symSize: 0x2C }
  - { offsetInCU: 0x3E296, offset: 0x3E296, size: 0x8, addend: 0x0, symName: __ZNSt3__16vectorIcNS_9allocatorIcEEE21_ConstructTransactionC2B8ue170006ERS3_m, symObjAddr: 0x1831C, symBinAddr: 0x10001BE28, symSize: 0x44 }
  - { offsetInCU: 0x3E2DE, offset: 0x3E2DE, size: 0x8, addend: 0x0, symName: __ZNSt3__19allocatorIcE9constructB8ue170006IcJRKcEEEvPT_DpOT0_, symObjAddr: 0x18360, symBinAddr: 0x10001BE6C, symSize: 0x28 }
  - { offsetInCU: 0x3E334, offset: 0x3E334, size: 0x8, addend: 0x0, symName: __ZNSt3__117__compressed_pairIPcNS_9allocatorIcEEE6secondB8ue170006Ev, symObjAddr: 0x18388, symBinAddr: 0x10001BE94, symSize: 0x24 }
  - { offsetInCU: 0x3E35A, offset: 0x3E35A, size: 0x8, addend: 0x0, symName: __ZNSt3__122__compressed_pair_elemINS_9allocatorIcEELi1ELb1EE5__getB8ue170006Ev, symObjAddr: 0x183AC, symBinAddr: 0x10001BEB8, symSize: 0x14 }
  - { offsetInCU: 0x3E380, offset: 0x3E380, size: 0x8, addend: 0x0, symName: __ZNSt3__16vectorIcNS_9allocatorIcEEE21_ConstructTransactionD2B8ue170006Ev, symObjAddr: 0x183C0, symBinAddr: 0x10001BECC, symSize: 0x20 }
  - { offsetInCU: 0x3E3AA, offset: 0x3E3AA, size: 0x8, addend: 0x0, symName: __ZNKSt3__16vectorIcNS_9allocatorIcEEE11__recommendB8ue170006Em, symObjAddr: 0x183E0, symBinAddr: 0x10001BEEC, symSize: 0xB4 }
  - { offsetInCU: 0x3E3FF, offset: 0x3E3FF, size: 0x8, addend: 0x0, symName: __ZNSt3__114__split_bufferIcRNS_9allocatorIcEEEC1EmmS3_, symObjAddr: 0x18494, symBinAddr: 0x10001BFA0, symSize: 0x44 }
  - { offsetInCU: 0x3E455, offset: 0x3E455, size: 0x8, addend: 0x0, symName: __ZNSt3__114__split_bufferIcRNS_9allocatorIcEEED1Ev, symObjAddr: 0x185E8, symBinAddr: 0x10001C0F4, symSize: 0x2C }
  - { offsetInCU: 0x3E481, offset: 0x3E481, size: 0x8, addend: 0x0, symName: __ZNKSt3__16vectorIcNS_9allocatorIcEEE8max_sizeEv, symObjAddr: 0x18614, symBinAddr: 0x10001C120, symSize: 0x74 }
  - { offsetInCU: 0x3E4A9, offset: 0x3E4A9, size: 0x8, addend: 0x0, symName: __ZNKSt3__16vectorIcNS_9allocatorIcEEE20__throw_length_errorB8ue170006Ev, symObjAddr: 0x18688, symBinAddr: 0x10001C194, symSize: 0x1C }
  - { offsetInCU: 0x3E4CF, offset: 0x3E4CF, size: 0x8, addend: 0x0, symName: __ZNKSt3__16vectorIcNS_9allocatorIcEEE8capacityB8ue170006Ev, symObjAddr: 0x186A4, symBinAddr: 0x10001C1B0, symSize: 0x38 }
  - { offsetInCU: 0x3E500, offset: 0x3E500, size: 0x8, addend: 0x0, symName: __ZNSt3__116allocator_traitsINS_9allocatorIcEEE8max_sizeB8ue170006IS2_vEEmRKS2_, symObjAddr: 0x18734, symBinAddr: 0x10001C240, symSize: 0x24 }
  - { offsetInCU: 0x3E52E, offset: 0x3E52E, size: 0x8, addend: 0x0, symName: __ZNKSt3__16vectorIcNS_9allocatorIcEEE7__allocB8ue170006Ev, symObjAddr: 0x18758, symBinAddr: 0x10001C264, symSize: 0x28 }
  - { offsetInCU: 0x3E554, offset: 0x3E554, size: 0x8, addend: 0x0, symName: __ZNSt3__114numeric_limitsIlE3maxB8ue170006Ev, symObjAddr: 0x18780, symBinAddr: 0x10001C28C, symSize: 0x14 }
  - { offsetInCU: 0x3E568, offset: 0x3E568, size: 0x8, addend: 0x0, symName: __ZNKSt3__16__lessIvvEclB8ue170006ImmEEbRKT_RKT0_, symObjAddr: 0x187E8, symBinAddr: 0x10001C2F4, symSize: 0x34 }
  - { offsetInCU: 0x3E5BC, offset: 0x3E5BC, size: 0x8, addend: 0x0, symName: __ZNKSt3__19allocatorIcE8max_sizeB8ue170006Ev, symObjAddr: 0x1881C, symBinAddr: 0x10001C328, symSize: 0x14 }
  - { offsetInCU: 0x3E5E2, offset: 0x3E5E2, size: 0x8, addend: 0x0, symName: __ZNKSt3__117__compressed_pairIPcNS_9allocatorIcEEE6secondB8ue170006Ev, symObjAddr: 0x18830, symBinAddr: 0x10001C33C, symSize: 0x24 }
  - { offsetInCU: 0x3E608, offset: 0x3E608, size: 0x8, addend: 0x0, symName: __ZNKSt3__122__compressed_pair_elemINS_9allocatorIcEELi1ELb1EE5__getB8ue170006Ev, symObjAddr: 0x18854, symBinAddr: 0x10001C360, symSize: 0x14 }
  - { offsetInCU: 0x3E62E, offset: 0x3E62E, size: 0x8, addend: 0x0, symName: __ZNSt3__123__libcpp_numeric_limitsIlLb1EE3maxB8ue170006Ev, symObjAddr: 0x18868, symBinAddr: 0x10001C374, symSize: 0x8 }
  - { offsetInCU: 0x3E642, offset: 0x3E642, size: 0x8, addend: 0x0, symName: __ZNSt12length_errorC1B8ue170006EPKc, symObjAddr: 0x188D4, symBinAddr: 0x10001C3E0, symSize: 0x34 }
  - { offsetInCU: 0x3E67A, offset: 0x3E67A, size: 0x8, addend: 0x0, symName: __ZNSt12length_errorC2B8ue170006EPKc, symObjAddr: 0x18908, symBinAddr: 0x10001C414, symSize: 0x4C }
  - { offsetInCU: 0x3E6B2, offset: 0x3E6B2, size: 0x8, addend: 0x0, symName: __ZNKSt3__16vectorIcNS_9allocatorIcEEE9__end_capB8ue170006Ev, symObjAddr: 0x18954, symBinAddr: 0x10001C460, symSize: 0x28 }
  - { offsetInCU: 0x3E6D8, offset: 0x3E6D8, size: 0x8, addend: 0x0, symName: __ZNKSt3__117__compressed_pairIPcNS_9allocatorIcEEE5firstB8ue170006Ev, symObjAddr: 0x1897C, symBinAddr: 0x10001C488, symSize: 0x24 }
  - { offsetInCU: 0x3E6FE, offset: 0x3E6FE, size: 0x8, addend: 0x0, symName: __ZNKSt3__122__compressed_pair_elemIPcLi0ELb0EE5__getB8ue170006Ev, symObjAddr: 0x189A0, symBinAddr: 0x10001C4AC, symSize: 0x14 }
  - { offsetInCU: 0x3E724, offset: 0x3E724, size: 0x8, addend: 0x0, symName: __ZNSt3__114__split_bufferIcRNS_9allocatorIcEEEC2EmmS3_, symObjAddr: 0x18A08, symBinAddr: 0x10001C514, symSize: 0xD4 }
  - { offsetInCU: 0x3E79D, offset: 0x3E79D, size: 0x8, addend: 0x0, symName: __ZNSt3__117__compressed_pairIPcRNS_9allocatorIcEEEC1B8ue170006IDnS4_EEOT_OT0_, symObjAddr: 0x18ADC, symBinAddr: 0x10001C5E8, symSize: 0x3C }
  - { offsetInCU: 0x3E7F5, offset: 0x3E7F5, size: 0x8, addend: 0x0, symName: __ZNSt3__114__split_bufferIcRNS_9allocatorIcEEE7__allocB8ue170006Ev, symObjAddr: 0x18B58, symBinAddr: 0x10001C664, symSize: 0x28 }
  - { offsetInCU: 0x3E81B, offset: 0x3E81B, size: 0x8, addend: 0x0, symName: __ZNSt3__114__split_bufferIcRNS_9allocatorIcEEE9__end_capB8ue170006Ev, symObjAddr: 0x18B80, symBinAddr: 0x10001C68C, symSize: 0x28 }
  - { offsetInCU: 0x3E841, offset: 0x3E841, size: 0x8, addend: 0x0, symName: __ZNSt3__117__compressed_pairIPcRNS_9allocatorIcEEEC2B8ue170006IDnS4_EEOT_OT0_, symObjAddr: 0x18BA8, symBinAddr: 0x10001C6B4, symSize: 0x48 }
  - { offsetInCU: 0x3E899, offset: 0x3E899, size: 0x8, addend: 0x0, symName: __ZNSt3__122__compressed_pair_elemIPcLi0ELb0EEC2B8ue170006IDnvEEOT_, symObjAddr: 0x18BF0, symBinAddr: 0x10001C6FC, symSize: 0x1C }
  - { offsetInCU: 0x3E8DB, offset: 0x3E8DB, size: 0x8, addend: 0x0, symName: __ZNSt3__122__compressed_pair_elemIRNS_9allocatorIcEELi1ELb0EEC2B8ue170006IS3_vEEOT_, symObjAddr: 0x18C0C, symBinAddr: 0x10001C718, symSize: 0x20 }
  - { offsetInCU: 0x3E91D, offset: 0x3E91D, size: 0x8, addend: 0x0, symName: __ZNSt3__19allocatorIcE8allocateB8ue170006Em, symObjAddr: 0x18C2C, symBinAddr: 0x10001C738, symSize: 0x84 }
  - { offsetInCU: 0x3E951, offset: 0x3E951, size: 0x8, addend: 0x0, symName: __ZNSt3__117__compressed_pairIPcRNS_9allocatorIcEEE6secondB8ue170006Ev, symObjAddr: 0x18D3C, symBinAddr: 0x10001C848, symSize: 0x28 }
  - { offsetInCU: 0x3E977, offset: 0x3E977, size: 0x8, addend: 0x0, symName: __ZNSt3__122__compressed_pair_elemIRNS_9allocatorIcEELi1ELb0EE5__getB8ue170006Ev, symObjAddr: 0x18D64, symBinAddr: 0x10001C870, symSize: 0x18 }
  - { offsetInCU: 0x3E99D, offset: 0x3E99D, size: 0x8, addend: 0x0, symName: __ZNSt3__117__compressed_pairIPcRNS_9allocatorIcEEE5firstB8ue170006Ev, symObjAddr: 0x18D7C, symBinAddr: 0x10001C888, symSize: 0x24 }
  - { offsetInCU: 0x3E9C3, offset: 0x3E9C3, size: 0x8, addend: 0x0, symName: __ZNKSt3__16vectorIcNS_9allocatorIcEEE17__annotate_deleteB8ue170006Ev, symObjAddr: 0x18DA0, symBinAddr: 0x10001C8AC, symSize: 0xB8 }
  - { offsetInCU: 0x3E9E9, offset: 0x3E9E9, size: 0x8, addend: 0x0, symName: __ZNSt3__116reverse_iteratorIPcEC1B8ue170006ES1_, symObjAddr: 0x18F40, symBinAddr: 0x10001CA4C, symSize: 0x34 }
  - { offsetInCU: 0x3EA21, offset: 0x3EA21, size: 0x8, addend: 0x0, symName: __ZNKSt3__116reverse_iteratorIPcE4baseB8ue170006Ev, symObjAddr: 0x18F74, symBinAddr: 0x10001CA80, symSize: 0x18 }
  - { offsetInCU: 0x3EA47, offset: 0x3EA47, size: 0x8, addend: 0x0, symName: __ZNKSt3__16vectorIcNS_9allocatorIcEEE14__annotate_newB8ue170006Em, symObjAddr: 0x18FC8, symBinAddr: 0x10001CAD4, symSize: 0xAC }
  - { offsetInCU: 0x3EA7C, offset: 0x3EA7C, size: 0x8, addend: 0x0, symName: __ZNKSt3__16vectorIcNS_9allocatorIcEEE31__annotate_contiguous_containerB8ue170006EPKvS5_S5_S5_, symObjAddr: 0x19074, symBinAddr: 0x10001CB80, symSize: 0x20 }
  - { offsetInCU: 0x3EACE, offset: 0x3EACE, size: 0x8, addend: 0x0, symName: __ZNKSt3__16vectorIcNS_9allocatorIcEEE4dataB8ue170006Ev, symObjAddr: 0x19094, symBinAddr: 0x10001CBA0, symSize: 0x28 }
  - { offsetInCU: 0x3EAF4, offset: 0x3EAF4, size: 0x8, addend: 0x0, symName: __ZNKSt3__116reverse_iteratorIPcEdeB8ue170006Ev, symObjAddr: 0x19154, symBinAddr: 0x10001CC60, symSize: 0x28 }
  - { offsetInCU: 0x3EB28, offset: 0x3EB28, size: 0x8, addend: 0x0, symName: __ZNSt3__116reverse_iteratorIPcEppB8ue170006Ev, symObjAddr: 0x1917C, symBinAddr: 0x10001CC88, symSize: 0x20 }
  - { offsetInCU: 0x3EB54, offset: 0x3EB54, size: 0x8, addend: 0x0, symName: __ZNSt3__119__to_address_helperINS_16reverse_iteratorIPcEEvE6__callB8ue170006ERKS3_, symObjAddr: 0x19214, symBinAddr: 0x10001CD20, symSize: 0x4C }
  - { offsetInCU: 0x3EB77, offset: 0x3EB77, size: 0x8, addend: 0x0, symName: __ZNKSt3__116reverse_iteratorIPcEptB8ue170006Ev, symObjAddr: 0x19260, symBinAddr: 0x10001CD6C, symSize: 0x24 }
  - { offsetInCU: 0x3EBC3, offset: 0x3EBC3, size: 0x8, addend: 0x0, symName: __ZNKSt3__111__move_loopINS_17_ClassicAlgPolicyEEclB8ue170006INS_16reverse_iteratorIPcEES6_S6_EENS_4pairIT_T1_EES8_T0_S9_, symObjAddr: 0x194FC, symBinAddr: 0x10001D008, symSize: 0xA0 }
  - { offsetInCU: 0x3EC34, offset: 0x3EC34, size: 0x8, addend: 0x0, symName: __ZNSt3__18_IterOpsINS_17_ClassicAlgPolicyEE11__iter_moveB8ue170006IRNS_16reverse_iteratorIPcEEEENS_9enable_ifIXsr12is_referenceIDTdeclsr3stdE7declvalIRT_EEEEE5valueEDTclsr3stdE4movedeclsr3stdE7declvalISA_EEEEE4typeEOS9_, symObjAddr: 0x196FC, symBinAddr: 0x10001D208, symSize: 0x28 }
  - { offsetInCU: 0x3EC60, offset: 0x3EC60, size: 0x8, addend: 0x0, symName: __ZNSt3__18_IterOpsINS_17_ClassicAlgPolicyEE25__validate_iter_referenceB8ue170006IRNS_16reverse_iteratorIPcEEEEvv, symObjAddr: 0x19724, symBinAddr: 0x10001D230, symSize: 0x4 }
  - { offsetInCU: 0x3EC7E, offset: 0x3EC7E, size: 0x8, addend: 0x0, symName: __ZNSt3__118__unwrap_iter_implINS_16reverse_iteratorIPcEELb0EE8__unwrapB8ue170006ES3_, symObjAddr: 0x19728, symBinAddr: 0x10001D234, symSize: 0x24 }
  - { offsetInCU: 0x3ECA1, offset: 0x3ECA1, size: 0x8, addend: 0x0, symName: __ZNSt3__14pairINS_16reverse_iteratorIPcEES3_EC1B8ue170006ERKS3_S6_, symObjAddr: 0x1974C, symBinAddr: 0x10001D258, symSize: 0x3C }
  - { offsetInCU: 0x3ECE7, offset: 0x3ECE7, size: 0x8, addend: 0x0, symName: __ZNSt3__14pairINS_16reverse_iteratorIPcEES3_EC2B8ue170006ERKS3_S6_, symObjAddr: 0x19788, symBinAddr: 0x10001D294, symSize: 0x34 }
  - { offsetInCU: 0x3ED2D, offset: 0x3ED2D, size: 0x8, addend: 0x0, symName: __ZNSt3__118__unwrap_iter_implINS_16reverse_iteratorIPcEELb0EE8__rewrapB8ue170006ES3_S3_, symObjAddr: 0x197BC, symBinAddr: 0x10001D2C8, symSize: 0x2C }
  - { offsetInCU: 0x3ED5A, offset: 0x3ED5A, size: 0x8, addend: 0x0, symName: __ZNSt3__116reverse_iteratorIPcEC2B8ue170006ES1_, symObjAddr: 0x197E8, symBinAddr: 0x10001D2F4, symSize: 0x28 }
  - { offsetInCU: 0x3ED92, offset: 0x3ED92, size: 0x8, addend: 0x0, symName: __ZNSt3__114__split_bufferIcRNS_9allocatorIcEEED2Ev, symObjAddr: 0x19810, symBinAddr: 0x10001D31C, symSize: 0x80 }
  - { offsetInCU: 0x3EDBE, offset: 0x3EDBE, size: 0x8, addend: 0x0, symName: __ZNSt3__114__split_bufferIcRNS_9allocatorIcEEE5clearB8ue170006Ev, symObjAddr: 0x19890, symBinAddr: 0x10001D39C, symSize: 0x28 }
  - { offsetInCU: 0x3EDE4, offset: 0x3EDE4, size: 0x8, addend: 0x0, symName: __ZNSt3__116allocator_traitsINS_9allocatorIcEEE10deallocateB8ue170006ERS2_Pcm, symObjAddr: 0x198B8, symBinAddr: 0x10001D3C4, symSize: 0x34 }
  - { offsetInCU: 0x3EE26, offset: 0x3EE26, size: 0x8, addend: 0x0, symName: __ZNKSt3__114__split_bufferIcRNS_9allocatorIcEEE8capacityB8ue170006Ev, symObjAddr: 0x198EC, symBinAddr: 0x10001D3F8, symSize: 0x38 }
  - { offsetInCU: 0x3EE4C, offset: 0x3EE4C, size: 0x8, addend: 0x0, symName: __ZNSt3__114__split_bufferIcRNS_9allocatorIcEEE17__destruct_at_endB8ue170006EPc, symObjAddr: 0x19924, symBinAddr: 0x10001D430, symSize: 0x2C }
  - { offsetInCU: 0x3EE80, offset: 0x3EE80, size: 0x8, addend: 0x0, symName: __ZNSt3__114__split_bufferIcRNS_9allocatorIcEEE17__destruct_at_endB8ue170006EPcNS_17integral_constantIbLb0EEE, symObjAddr: 0x19950, symBinAddr: 0x10001D45C, symSize: 0x94 }
  - { offsetInCU: 0x3EEC0, offset: 0x3EEC0, size: 0x8, addend: 0x0, symName: __ZNSt3__116allocator_traitsINS_9allocatorIcEEE7destroyB8ue170006IcvEEvRS2_PT_, symObjAddr: 0x199E4, symBinAddr: 0x10001D4F0, symSize: 0x2C }
  - { offsetInCU: 0x3EEFD, offset: 0x3EEFD, size: 0x8, addend: 0x0, symName: __ZNSt3__19allocatorIcE7destroyB8ue170006EPc, symObjAddr: 0x19A10, symBinAddr: 0x10001D51C, symSize: 0x14 }
  - { offsetInCU: 0x3EF31, offset: 0x3EF31, size: 0x8, addend: 0x0, symName: __ZNSt3__19allocatorIcE10deallocateB8ue170006EPcm, symObjAddr: 0x19A24, symBinAddr: 0x10001D530, symSize: 0x70 }
  - { offsetInCU: 0x3EF73, offset: 0x3EF73, size: 0x8, addend: 0x0, symName: __ZNKSt3__114__split_bufferIcRNS_9allocatorIcEEE9__end_capB8ue170006Ev, symObjAddr: 0x19B10, symBinAddr: 0x10001D61C, symSize: 0x28 }
  - { offsetInCU: 0x3EF99, offset: 0x3EF99, size: 0x8, addend: 0x0, symName: __ZNKSt3__117__compressed_pairIPcRNS_9allocatorIcEEE5firstB8ue170006Ev, symObjAddr: 0x19B38, symBinAddr: 0x10001D644, symSize: 0x24 }
  - { offsetInCU: 0x3EFBF, offset: 0x3EFBF, size: 0x8, addend: 0x0, symName: __ZL17__pattern_isSlashRKNSt3__112basic_stringIcNS_11char_traitsIcEENS_9allocatorIcEEEEm, symObjAddr: 0x19B5C, symBinAddr: 0x10001D668, symSize: 0x3C }
  - { offsetInCU: 0x3EFFD, offset: 0x3EFFD, size: 0x8, addend: 0x0, symName: __ZNSt3__18_IterOpsINS_17_ClassicAlgPolicyEE4nextB8ue170006IPcEET_S5_S5_, symObjAddr: 0x19E00, symBinAddr: 0x10001D90C, symSize: 0x18 }
  - { offsetInCU: 0x3F033, offset: 0x3F033, size: 0x8, addend: 0x0, symName: __ZNSt3__18_IterOpsINS_17_ClassicAlgPolicyEE9iter_swapB8ue170006IRPcS5_EEvOT_OT0_, symObjAddr: 0x19FE4, symBinAddr: 0x10001DAF0, symSize: 0x34 }
  - { offsetInCU: 0x3F076, offset: 0x3F076, size: 0x8, addend: 0x0, symName: __ZNSt3__18_IterOpsINS_17_ClassicAlgPolicyEE11__iter_moveB8ue170006IRPcEENS_9enable_ifIXsr12is_referenceIDTdeclsr3stdE7declvalIRT_EEEEE5valueEDTclsr3stdE4movedeclsr3stdE7declvalIS8_EEEEE4typeEOS7_, symObjAddr: 0x1A324, symBinAddr: 0x10001DE30, symSize: 0x28 }
  - { offsetInCU: 0x3F0A2, offset: 0x3F0A2, size: 0x8, addend: 0x0, symName: __ZNSt3__18_IterOpsINS_17_ClassicAlgPolicyEE25__validate_iter_referenceB8ue170006IRPcEEvv, symObjAddr: 0x1A34C, symBinAddr: 0x10001DE58, symSize: 0x4 }
  - { offsetInCU: 0x3F0C0, offset: 0x3F0C0, size: 0x8, addend: 0x0, symName: __ZNSt3__118__unwrap_iter_implINS_11__wrap_iterIPcEELb1EE8__unwrapB8ue170006ES3_, symObjAddr: 0x1A658, symBinAddr: 0x10001E164, symSize: 0x28 }
  - { offsetInCU: 0x3F0EE, offset: 0x3F0EE, size: 0x8, addend: 0x0, symName: __ZNSt3__119__to_address_helperINS_11__wrap_iterIPcEEvE6__callB8ue170006ERKS3_, symObjAddr: 0x1A6A4, symBinAddr: 0x10001E1B0, symSize: 0x30 }
  - { offsetInCU: 0x3F111, offset: 0x3F111, size: 0x8, addend: 0x0, symName: __ZNSt3__114pointer_traitsINS_11__wrap_iterIPcEEE10to_addressB8ue170006ES3_, symObjAddr: 0x1A6D4, symBinAddr: 0x10001E1E0, symSize: 0x2C }
  - { offsetInCU: 0x3F134, offset: 0x3F134, size: 0x8, addend: 0x0, symName: __ZNKSt3__111__wrap_iterIPcE4baseB8ue170006Ev, symObjAddr: 0x1A700, symBinAddr: 0x10001E20C, symSize: 0x18 }
  - { offsetInCU: 0x3F15A, offset: 0x3F15A, size: 0x8, addend: 0x0, symName: __ZNSt3__16vectorIcNS_9allocatorIcEEE11__make_iterB8ue170006EPc, symObjAddr: 0x1A718, symBinAddr: 0x10001E224, symSize: 0x30 }
  - { offsetInCU: 0x3F18F, offset: 0x3F18F, size: 0x8, addend: 0x0, symName: __ZNSt3__111__wrap_iterIPcEC1B8ue170006ES1_, symObjAddr: 0x1A748, symBinAddr: 0x10001E254, symSize: 0x34 }
  - { offsetInCU: 0x3F1C7, offset: 0x3F1C7, size: 0x8, addend: 0x0, symName: __ZNSt3__111__wrap_iterIPcEC2B8ue170006ES1_, symObjAddr: 0x1A77C, symBinAddr: 0x10001E288, symSize: 0x20 }
  - { offsetInCU: 0x3F1FF, offset: 0x3F1FF, size: 0x8, addend: 0x0, symName: __ZNKSt3__111__wrap_iterIPcEdeB8ue170006Ev, symObjAddr: 0x1A8E4, symBinAddr: 0x10001E3F0, symSize: 0x18 }
  - { offsetInCU: 0x3F225, offset: 0x3F225, size: 0x8, addend: 0x0, symName: __ZNSt3__18_IterOpsINS_17_ClassicAlgPolicyEE8distanceB8ue170006INS_11__wrap_iterIPcEEEENS_15iterator_traitsIT_E15difference_typeES8_S8_, symObjAddr: 0x1AA04, symBinAddr: 0x10001E510, symSize: 0x3C }
  - { offsetInCU: 0x3F25F, offset: 0x3F25F, size: 0x8, addend: 0x0, symName: __ZNSt3__18_IterOpsINS_17_ClassicAlgPolicyEE7advanceB8ue170006INS_11__wrap_iterIPcEElEEvRT_T0_, symObjAddr: 0x1AA40, symBinAddr: 0x10001E54C, symSize: 0x2C }
  - { offsetInCU: 0x3F2A2, offset: 0x3F2A2, size: 0x8, addend: 0x0, symName: __ZNSt3__111__wrap_iterIPcEppB8ue170006Ev, symObjAddr: 0x1AAD0, symBinAddr: 0x10001E5DC, symSize: 0x20 }
  - { offsetInCU: 0x3F2C8, offset: 0x3F2C8, size: 0x8, addend: 0x0, symName: __ZNSt3__111__wrap_iterIPcEpLB8ue170006El, symObjAddr: 0x1AC00, symBinAddr: 0x10001E70C, symSize: 0x28 }
  - { offsetInCU: 0x3F2FC, offset: 0x3F2FC, size: 0x8, addend: 0x0, symName: __ZNKSt3__110__identityclB8ue170006IRcEEOT_S4_, symObjAddr: 0x1AC28, symBinAddr: 0x10001E734, symSize: 0x18 }
  - { offsetInCU: 0x3F339, offset: 0x3F339, size: 0x8, addend: 0x0, symName: __ZNSt3__16vectorIcNS_9allocatorIcEEE19__copy_assign_allocB8ue170006ERKS3_, symObjAddr: 0x1AC88, symBinAddr: 0x10001E794, symSize: 0x2C }
  - { offsetInCU: 0x3F36E, offset: 0x3F36E, size: 0x8, addend: 0x0, symName: __ZNSt3__16vectorIcNS_9allocatorIcEEE6assignIPcLi0EEEvT_S6_, symObjAddr: 0x1ACB4, symBinAddr: 0x10001E7C0, symSize: 0x5C }
  - { offsetInCU: 0x3F3C3, offset: 0x3F3C3, size: 0x8, addend: 0x0, symName: __ZNSt3__16vectorIcNS_9allocatorIcEEE19__copy_assign_allocB8ue170006ERKS3_NS_17integral_constantIbLb0EEE, symObjAddr: 0x1AD10, symBinAddr: 0x10001E81C, symSize: 0x14 }
  - { offsetInCU: 0x3F3FF, offset: 0x3F3FF, size: 0x8, addend: 0x0, symName: __ZNSt3__16vectorIcNS_9allocatorIcEEE18__assign_with_sizeB8ue170006IPcS5_EEvT_T0_l, symObjAddr: 0x1AD24, symBinAddr: 0x10001E830, symSize: 0x164 }
  - { offsetInCU: 0x3F4AF, offset: 0x3F4AF, size: 0x8, addend: 0x0, symName: __ZNSt3__16vectorIcNS_9allocatorIcEEE18__construct_at_endIPcS5_EEvT_T0_m, symObjAddr: 0x1AF28, symBinAddr: 0x10001EA34, symSize: 0x94 }
  - { offsetInCU: 0x3F525, offset: 0x3F525, size: 0x8, addend: 0x0, symName: __ZNSt3__16vectorIcNS_9allocatorIcEEE17__destruct_at_endB8ue170006EPc, symObjAddr: 0x1B000, symBinAddr: 0x10001EB0C, symSize: 0x4C }
  - { offsetInCU: 0x3F569, offset: 0x3F569, size: 0x8, addend: 0x0, symName: __ZNSt3__16vectorIcNS_9allocatorIcEEE13__vdeallocateEv, symObjAddr: 0x1B04C, symBinAddr: 0x10001EB58, symSize: 0x94 }
  - { offsetInCU: 0x3F591, offset: 0x3F591, size: 0x8, addend: 0x0, symName: __ZNSt3__16vectorIcNS_9allocatorIcEEE11__vallocateB8ue170006Em, symObjAddr: 0x1B0E0, symBinAddr: 0x10001EBEC, symSize: 0xAC }
  - { offsetInCU: 0x3F5F1, offset: 0x3F5F1, size: 0x8, addend: 0x0, symName: __ZNSt3__14pairIPcS1_EC1B8ue170006ERKS1_S4_, symObjAddr: 0x1B474, symBinAddr: 0x10001EF80, symSize: 0x3C }
  - { offsetInCU: 0x3F637, offset: 0x3F637, size: 0x8, addend: 0x0, symName: __ZNSt3__14pairIPcS1_EC2B8ue170006ERKS1_S4_, symObjAddr: 0x1B4B0, symBinAddr: 0x10001EFBC, symSize: 0x34 }
  - { offsetInCU: 0x3F67D, offset: 0x3F67D, size: 0x8, addend: 0x0, symName: __ZNSt3__129_AllocatorDestroyRangeReverseINS_9allocatorIcEEPcEC1B8ue170006ERS2_RS3_S6_, symObjAddr: 0x1B530, symBinAddr: 0x10001F03C, symSize: 0x44 }
  - { offsetInCU: 0x3F6D4, offset: 0x3F6D4, size: 0x8, addend: 0x0, symName: __ZNSt3__116allocator_traitsINS_9allocatorIcEEE9constructB8ue170006IcJRcEvEEvRS2_PT_DpOT0_, symObjAddr: 0x1B574, symBinAddr: 0x10001F080, symSize: 0x34 }
  - { offsetInCU: 0x3F72B, offset: 0x3F72B, size: 0x8, addend: 0x0, symName: __ZNSt3__128__exception_guard_exceptionsINS_29_AllocatorDestroyRangeReverseINS_9allocatorIcEEPcEEE10__completeB8ue170006Ev, symObjAddr: 0x1B5A8, symBinAddr: 0x10001F0B4, symSize: 0x1C }
  - { offsetInCU: 0x3F751, offset: 0x3F751, size: 0x8, addend: 0x0, symName: __ZNSt3__128__exception_guard_exceptionsINS_29_AllocatorDestroyRangeReverseINS_9allocatorIcEEPcEEED1B8ue170006Ev, symObjAddr: 0x1B5C4, symBinAddr: 0x10001F0D0, symSize: 0x2C }
  - { offsetInCU: 0x3F77B, offset: 0x3F77B, size: 0x8, addend: 0x0, symName: __ZNSt3__128__exception_guard_exceptionsINS_29_AllocatorDestroyRangeReverseINS_9allocatorIcEEPcEEEC1B8ue170006ES5_, symObjAddr: 0x1B5F0, symBinAddr: 0x10001F0FC, symSize: 0x34 }
  - { offsetInCU: 0x3F7B4, offset: 0x3F7B4, size: 0x8, addend: 0x0, symName: __ZNSt3__128__exception_guard_exceptionsINS_29_AllocatorDestroyRangeReverseINS_9allocatorIcEEPcEEEC2B8ue170006ES5_, symObjAddr: 0x1B624, symBinAddr: 0x10001F130, symSize: 0x30 }
  - { offsetInCU: 0x3F7ED, offset: 0x3F7ED, size: 0x8, addend: 0x0, symName: __ZNSt3__129_AllocatorDestroyRangeReverseINS_9allocatorIcEEPcEC2B8ue170006ERS2_RS3_S6_, symObjAddr: 0x1B654, symBinAddr: 0x10001F160, symSize: 0x38 }
  - { offsetInCU: 0x3F844, offset: 0x3F844, size: 0x8, addend: 0x0, symName: __ZNSt3__19allocatorIcE9constructB8ue170006IcJRcEEEvPT_DpOT0_, symObjAddr: 0x1B68C, symBinAddr: 0x10001F198, symSize: 0x28 }
  - { offsetInCU: 0x3F89A, offset: 0x3F89A, size: 0x8, addend: 0x0, symName: __ZNSt3__128__exception_guard_exceptionsINS_29_AllocatorDestroyRangeReverseINS_9allocatorIcEEPcEEED2B8ue170006Ev, symObjAddr: 0x1B6B4, symBinAddr: 0x10001F1C0, symSize: 0x48 }
  - { offsetInCU: 0x3F8C4, offset: 0x3F8C4, size: 0x8, addend: 0x0, symName: __ZNKSt3__129_AllocatorDestroyRangeReverseINS_9allocatorIcEEPcEclB8ue170006Ev, symObjAddr: 0x1B6FC, symBinAddr: 0x10001F208, symSize: 0x68 }
  - { offsetInCU: 0x3F8EA, offset: 0x3F8EA, size: 0x8, addend: 0x0, symName: __ZNSt3__118__unwrap_iter_implIPcLb1EE8__unwrapB8ue170006ES1_, symObjAddr: 0x1B7D4, symBinAddr: 0x10001F2E0, symSize: 0x24 }
  - { offsetInCU: 0x3F90D, offset: 0x3F90D, size: 0x8, addend: 0x0, symName: __ZNSt3__118__unwrap_iter_implIPcLb1EE8__rewrapB8ue170006ES1_S1_, symObjAddr: 0x1B7F8, symBinAddr: 0x10001F304, symSize: 0x48 }
  - { offsetInCU: 0x3F948, offset: 0x3F948, size: 0x8, addend: 0x0, symName: __ZNKSt3__114__copy_trivialclB8ue170006IccLi0EEENS_4pairIPT_PT0_EES4_S4_S6_, symObjAddr: 0x1B938, symBinAddr: 0x10001F444, symSize: 0x48 }
  - { offsetInCU: 0x3F9B0, offset: 0x3F9B0, size: 0x8, addend: 0x0, symName: __ZNSt3__16vectorIcNS_9allocatorIcEEE22__base_destruct_at_endB8ue170006EPc, symObjAddr: 0x1BAFC, symBinAddr: 0x10001F608, symSize: 0xA0 }
  - { offsetInCU: 0x3F9F4, offset: 0x3F9F4, size: 0x8, addend: 0x0, symName: __ZNKSt3__16vectorIcNS_9allocatorIcEEE17__annotate_shrinkB8ue170006Em, symObjAddr: 0x1BB9C, symBinAddr: 0x10001F6A8, symSize: 0xB4 }
  - { offsetInCU: 0x3FA29, offset: 0x3FA29, size: 0x8, addend: 0x0, symName: __ZNSt3__16vectorIcNS_9allocatorIcEEE5clearB8ue170006Ev, symObjAddr: 0x1BC50, symBinAddr: 0x10001F75C, symSize: 0x44 }
  - { offsetInCU: 0x3FA5E, offset: 0x3FA5E, size: 0x8, addend: 0x0, symName: __ZNSt3__16vectorIcNS_9allocatorIcEEE7__clearB8ue170006Ev, symObjAddr: 0x1BC94, symBinAddr: 0x10001F7A0, symSize: 0x28 }
  - { offsetInCU: 0x3FA84, offset: 0x3FA84, size: 0x8, addend: 0x0, symName: __ZNSt3__16vectorIcNS_9allocatorIcEEE22__construct_one_at_endB8ue170006IJcEEEvDpOT_, symObjAddr: 0x1BCDC, symBinAddr: 0x10001F7E8, symSize: 0x98 }
  - { offsetInCU: 0x3FAD3, offset: 0x3FAD3, size: 0x8, addend: 0x0, symName: __ZNSt3__16vectorIcNS_9allocatorIcEEE21__push_back_slow_pathIcEEvOT_, symObjAddr: 0x1BD74, symBinAddr: 0x10001F880, symSize: 0xE0 }
  - { offsetInCU: 0x3FB31, offset: 0x3FB31, size: 0x8, addend: 0x0, symName: __ZNSt3__116allocator_traitsINS_9allocatorIcEEE9constructB8ue170006IcJcEvEEvRS2_PT_DpOT0_, symObjAddr: 0x1BE54, symBinAddr: 0x10001F960, symSize: 0x34 }
  - { offsetInCU: 0x3FB88, offset: 0x3FB88, size: 0x8, addend: 0x0, symName: __ZNSt3__19allocatorIcE9constructB8ue170006IcJcEEEvPT_DpOT0_, symObjAddr: 0x1BE88, symBinAddr: 0x10001F994, symSize: 0x28 }
  - { offsetInCU: 0x3FBDE, offset: 0x3FBDE, size: 0x8, addend: 0x0, symName: __ZNKSt3__16vectorINS_12basic_stringIcNS_11char_traitsIcEENS_9allocatorIcEEEENS4_IS6_EEE4sizeB8ue170006Ev, symObjAddr: 0x1BEB0, symBinAddr: 0x10001F9BC, symSize: 0x28 }
  - { offsetInCU: 0x3FC04, offset: 0x3FC04, size: 0x8, addend: 0x0, symName: __ZNSt3__16vectorIiNS_9allocatorIiEEE9push_backB8ue170006ERKi, symObjAddr: 0x1BED8, symBinAddr: 0x10001F9E4, symSize: 0x6C }
  - { offsetInCU: 0x3FC3B, offset: 0x3FC3B, size: 0x8, addend: 0x0, symName: __ZNSt3__16vectorIiNS_9allocatorIiEEE9__end_capB8ue170006Ev, symObjAddr: 0x1BF44, symBinAddr: 0x10001FA50, symSize: 0x28 }
  - { offsetInCU: 0x3FC61, offset: 0x3FC61, size: 0x8, addend: 0x0, symName: __ZNSt3__16vectorIiNS_9allocatorIiEEE22__construct_one_at_endB8ue170006IJRKiEEEvDpOT_, symObjAddr: 0x1BF6C, symBinAddr: 0x10001FA78, symSize: 0x98 }
  - { offsetInCU: 0x3FCB0, offset: 0x3FCB0, size: 0x8, addend: 0x0, symName: __ZNSt3__16vectorIiNS_9allocatorIiEEE21__push_back_slow_pathIRKiEEvOT_, symObjAddr: 0x1C004, symBinAddr: 0x10001FB10, symSize: 0xE0 }
  - { offsetInCU: 0x3FD0E, offset: 0x3FD0E, size: 0x8, addend: 0x0, symName: __ZNSt3__117__compressed_pairIPiNS_9allocatorIiEEE5firstB8ue170006Ev, symObjAddr: 0x1C0E4, symBinAddr: 0x10001FBF0, symSize: 0x24 }
  - { offsetInCU: 0x3FD34, offset: 0x3FD34, size: 0x8, addend: 0x0, symName: __ZNSt3__122__compressed_pair_elemIPiLi0ELb0EE5__getB8ue170006Ev, symObjAddr: 0x1C108, symBinAddr: 0x10001FC14, symSize: 0x14 }
  - { offsetInCU: 0x3FD75, offset: 0x3FD75, size: 0x8, addend: 0x0, symName: __ZNSt3__16vectorIiNS_9allocatorIiEEE21_ConstructTransactionC1B8ue170006ERS3_m, symObjAddr: 0x1C11C, symBinAddr: 0x10001FC28, symSize: 0x3C }
  - { offsetInCU: 0x3FDBD, offset: 0x3FDBD, size: 0x8, addend: 0x0, symName: __ZNSt3__116allocator_traitsINS_9allocatorIiEEE9constructB8ue170006IiJRKiEvEEvRS2_PT_DpOT0_, symObjAddr: 0x1C158, symBinAddr: 0x10001FC64, symSize: 0x34 }
  - { offsetInCU: 0x3FE14, offset: 0x3FE14, size: 0x8, addend: 0x0, symName: __ZNSt3__16vectorIiNS_9allocatorIiEEE7__allocB8ue170006Ev, symObjAddr: 0x1C18C, symBinAddr: 0x10001FC98, symSize: 0x28 }
  - { offsetInCU: 0x3FE3A, offset: 0x3FE3A, size: 0x8, addend: 0x0, symName: __ZNSt3__16vectorIiNS_9allocatorIiEEE21_ConstructTransactionD1B8ue170006Ev, symObjAddr: 0x1C1C8, symBinAddr: 0x10001FCD4, symSize: 0x2C }
  - { offsetInCU: 0x3FE64, offset: 0x3FE64, size: 0x8, addend: 0x0, symName: __ZNSt3__16vectorIiNS_9allocatorIiEEE21_ConstructTransactionC2B8ue170006ERS3_m, symObjAddr: 0x1C1F4, symBinAddr: 0x10001FD00, symSize: 0x44 }
  - { offsetInCU: 0x3FEAC, offset: 0x3FEAC, size: 0x8, addend: 0x0, symName: __ZNSt3__19allocatorIiE9constructB8ue170006IiJRKiEEEvPT_DpOT0_, symObjAddr: 0x1C238, symBinAddr: 0x10001FD44, symSize: 0x28 }
  - { offsetInCU: 0x3FF02, offset: 0x3FF02, size: 0x8, addend: 0x0, symName: __ZNSt3__117__compressed_pairIPiNS_9allocatorIiEEE6secondB8ue170006Ev, symObjAddr: 0x1C260, symBinAddr: 0x10001FD6C, symSize: 0x24 }
  - { offsetInCU: 0x3FF28, offset: 0x3FF28, size: 0x8, addend: 0x0, symName: __ZNSt3__122__compressed_pair_elemINS_9allocatorIiEELi1ELb1EE5__getB8ue170006Ev, symObjAddr: 0x1C284, symBinAddr: 0x10001FD90, symSize: 0x14 }
  - { offsetInCU: 0x3FF4E, offset: 0x3FF4E, size: 0x8, addend: 0x0, symName: __ZNSt3__16vectorIiNS_9allocatorIiEEE21_ConstructTransactionD2B8ue170006Ev, symObjAddr: 0x1C298, symBinAddr: 0x10001FDA4, symSize: 0x20 }
  - { offsetInCU: 0x3FF78, offset: 0x3FF78, size: 0x8, addend: 0x0, symName: __ZNKSt3__16vectorIiNS_9allocatorIiEEE11__recommendB8ue170006Em, symObjAddr: 0x1C2B8, symBinAddr: 0x10001FDC4, symSize: 0xB4 }
  - { offsetInCU: 0x3FFCD, offset: 0x3FFCD, size: 0x8, addend: 0x0, symName: __ZNSt3__114__split_bufferIiRNS_9allocatorIiEEEC1EmmS3_, symObjAddr: 0x1C36C, symBinAddr: 0x10001FE78, symSize: 0x44 }
  - { offsetInCU: 0x40023, offset: 0x40023, size: 0x8, addend: 0x0, symName: __ZNSt3__114__split_bufferIiRNS_9allocatorIiEEED1Ev, symObjAddr: 0x1C4C0, symBinAddr: 0x10001FFCC, symSize: 0x2C }
  - { offsetInCU: 0x4004F, offset: 0x4004F, size: 0x8, addend: 0x0, symName: __ZNKSt3__16vectorIiNS_9allocatorIiEEE8max_sizeEv, symObjAddr: 0x1C4EC, symBinAddr: 0x10001FFF8, symSize: 0x74 }
  - { offsetInCU: 0x40077, offset: 0x40077, size: 0x8, addend: 0x0, symName: __ZNKSt3__16vectorIiNS_9allocatorIiEEE20__throw_length_errorB8ue170006Ev, symObjAddr: 0x1C560, symBinAddr: 0x10002006C, symSize: 0x1C }
  - { offsetInCU: 0x4009D, offset: 0x4009D, size: 0x8, addend: 0x0, symName: __ZNKSt3__16vectorIiNS_9allocatorIiEEE8capacityB8ue170006Ev, symObjAddr: 0x1C57C, symBinAddr: 0x100020088, symSize: 0x40 }
  - { offsetInCU: 0x400CE, offset: 0x400CE, size: 0x8, addend: 0x0, symName: __ZNSt3__116allocator_traitsINS_9allocatorIiEEE8max_sizeB8ue170006IS2_vEEmRKS2_, symObjAddr: 0x1C5BC, symBinAddr: 0x1000200C8, symSize: 0x24 }
  - { offsetInCU: 0x400FC, offset: 0x400FC, size: 0x8, addend: 0x0, symName: __ZNKSt3__16vectorIiNS_9allocatorIiEEE7__allocB8ue170006Ev, symObjAddr: 0x1C5E0, symBinAddr: 0x1000200EC, symSize: 0x28 }
  - { offsetInCU: 0x40122, offset: 0x40122, size: 0x8, addend: 0x0, symName: __ZNKSt3__19allocatorIiE8max_sizeB8ue170006Ev, symObjAddr: 0x1C608, symBinAddr: 0x100020114, symSize: 0x14 }
  - { offsetInCU: 0x40148, offset: 0x40148, size: 0x8, addend: 0x0, symName: __ZNKSt3__117__compressed_pairIPiNS_9allocatorIiEEE6secondB8ue170006Ev, symObjAddr: 0x1C61C, symBinAddr: 0x100020128, symSize: 0x24 }
  - { offsetInCU: 0x4016E, offset: 0x4016E, size: 0x8, addend: 0x0, symName: __ZNKSt3__122__compressed_pair_elemINS_9allocatorIiEELi1ELb1EE5__getB8ue170006Ev, symObjAddr: 0x1C640, symBinAddr: 0x10002014C, symSize: 0x14 }
  - { offsetInCU: 0x40194, offset: 0x40194, size: 0x8, addend: 0x0, symName: __ZNKSt3__16vectorIiNS_9allocatorIiEEE9__end_capB8ue170006Ev, symObjAddr: 0x1C654, symBinAddr: 0x100020160, symSize: 0x28 }
  - { offsetInCU: 0x401BA, offset: 0x401BA, size: 0x8, addend: 0x0, symName: __ZNKSt3__117__compressed_pairIPiNS_9allocatorIiEEE5firstB8ue170006Ev, symObjAddr: 0x1C67C, symBinAddr: 0x100020188, symSize: 0x24 }
  - { offsetInCU: 0x401E0, offset: 0x401E0, size: 0x8, addend: 0x0, symName: __ZNKSt3__122__compressed_pair_elemIPiLi0ELb0EE5__getB8ue170006Ev, symObjAddr: 0x1C6A0, symBinAddr: 0x1000201AC, symSize: 0x14 }
  - { offsetInCU: 0x40206, offset: 0x40206, size: 0x8, addend: 0x0, symName: __ZNSt3__114__split_bufferIiRNS_9allocatorIiEEEC2EmmS3_, symObjAddr: 0x1C6B4, symBinAddr: 0x1000201C0, symSize: 0xD4 }
  - { offsetInCU: 0x40279, offset: 0x40279, size: 0x8, addend: 0x0, symName: __ZNSt3__117__compressed_pairIPiRNS_9allocatorIiEEEC1B8ue170006IDnS4_EEOT_OT0_, symObjAddr: 0x1C788, symBinAddr: 0x100020294, symSize: 0x3C }
  - { offsetInCU: 0x402D1, offset: 0x402D1, size: 0x8, addend: 0x0, symName: __ZNSt3__114__split_bufferIiRNS_9allocatorIiEEE7__allocB8ue170006Ev, symObjAddr: 0x1C804, symBinAddr: 0x100020310, symSize: 0x28 }
  - { offsetInCU: 0x402F7, offset: 0x402F7, size: 0x8, addend: 0x0, symName: __ZNSt3__114__split_bufferIiRNS_9allocatorIiEEE9__end_capB8ue170006Ev, symObjAddr: 0x1C82C, symBinAddr: 0x100020338, symSize: 0x28 }
  - { offsetInCU: 0x4031D, offset: 0x4031D, size: 0x8, addend: 0x0, symName: __ZNSt3__117__compressed_pairIPiRNS_9allocatorIiEEEC2B8ue170006IDnS4_EEOT_OT0_, symObjAddr: 0x1C854, symBinAddr: 0x100020360, symSize: 0x48 }
  - { offsetInCU: 0x40375, offset: 0x40375, size: 0x8, addend: 0x0, symName: __ZNSt3__122__compressed_pair_elemIPiLi0ELb0EEC2B8ue170006IDnvEEOT_, symObjAddr: 0x1C89C, symBinAddr: 0x1000203A8, symSize: 0x1C }
  - { offsetInCU: 0x403B7, offset: 0x403B7, size: 0x8, addend: 0x0, symName: __ZNSt3__122__compressed_pair_elemIRNS_9allocatorIiEELi1ELb0EEC2B8ue170006IS3_vEEOT_, symObjAddr: 0x1C8B8, symBinAddr: 0x1000203C4, symSize: 0x20 }
  - { offsetInCU: 0x403F9, offset: 0x403F9, size: 0x8, addend: 0x0, symName: __ZNSt3__19allocatorIiE8allocateB8ue170006Em, symObjAddr: 0x1C8D8, symBinAddr: 0x1000203E4, symSize: 0x84 }
  - { offsetInCU: 0x4042D, offset: 0x4042D, size: 0x8, addend: 0x0, symName: __ZNSt3__117__compressed_pairIPiRNS_9allocatorIiEEE6secondB8ue170006Ev, symObjAddr: 0x1C95C, symBinAddr: 0x100020468, symSize: 0x28 }
  - { offsetInCU: 0x40453, offset: 0x40453, size: 0x8, addend: 0x0, symName: __ZNSt3__122__compressed_pair_elemIRNS_9allocatorIiEELi1ELb0EE5__getB8ue170006Ev, symObjAddr: 0x1C984, symBinAddr: 0x100020490, symSize: 0x18 }
  - { offsetInCU: 0x40479, offset: 0x40479, size: 0x8, addend: 0x0, symName: __ZNSt3__117__compressed_pairIPiRNS_9allocatorIiEEE5firstB8ue170006Ev, symObjAddr: 0x1C99C, symBinAddr: 0x1000204A8, symSize: 0x24 }
  - { offsetInCU: 0x4049F, offset: 0x4049F, size: 0x8, addend: 0x0, symName: __ZNKSt3__16vectorIiNS_9allocatorIiEEE17__annotate_deleteB8ue170006Ev, symObjAddr: 0x1C9C0, symBinAddr: 0x1000204CC, symSize: 0xB8 }
  - { offsetInCU: 0x404C5, offset: 0x404C5, size: 0x8, addend: 0x0, symName: __ZNSt3__116reverse_iteratorIPiEC1B8ue170006ES1_, symObjAddr: 0x1CB60, symBinAddr: 0x10002066C, symSize: 0x34 }
  - { offsetInCU: 0x404FD, offset: 0x404FD, size: 0x8, addend: 0x0, symName: __ZNKSt3__116reverse_iteratorIPiE4baseB8ue170006Ev, symObjAddr: 0x1CB94, symBinAddr: 0x1000206A0, symSize: 0x18 }
  - { offsetInCU: 0x40523, offset: 0x40523, size: 0x8, addend: 0x0, symName: __ZNKSt3__16vectorIiNS_9allocatorIiEEE14__annotate_newB8ue170006Em, symObjAddr: 0x1CBE8, symBinAddr: 0x1000206F4, symSize: 0xAC }
  - { offsetInCU: 0x40558, offset: 0x40558, size: 0x8, addend: 0x0, symName: __ZNKSt3__16vectorIiNS_9allocatorIiEEE31__annotate_contiguous_containerB8ue170006EPKvS5_S5_S5_, symObjAddr: 0x1CC94, symBinAddr: 0x1000207A0, symSize: 0x20 }
  - { offsetInCU: 0x405AA, offset: 0x405AA, size: 0x8, addend: 0x0, symName: __ZNKSt3__16vectorIiNS_9allocatorIiEEE4dataB8ue170006Ev, symObjAddr: 0x1CCB4, symBinAddr: 0x1000207C0, symSize: 0x28 }
  - { offsetInCU: 0x405D0, offset: 0x405D0, size: 0x8, addend: 0x0, symName: __ZNKSt3__116reverse_iteratorIPiEdeB8ue170006Ev, symObjAddr: 0x1CD74, symBinAddr: 0x100020880, symSize: 0x28 }
  - { offsetInCU: 0x40604, offset: 0x40604, size: 0x8, addend: 0x0, symName: __ZNSt3__116reverse_iteratorIPiEppB8ue170006Ev, symObjAddr: 0x1CD9C, symBinAddr: 0x1000208A8, symSize: 0x20 }
  - { offsetInCU: 0x40630, offset: 0x40630, size: 0x8, addend: 0x0, symName: __ZNSt3__119__to_address_helperINS_16reverse_iteratorIPiEEvE6__callB8ue170006ERKS3_, symObjAddr: 0x1CE34, symBinAddr: 0x100020940, symSize: 0x4C }
  - { offsetInCU: 0x40653, offset: 0x40653, size: 0x8, addend: 0x0, symName: __ZNKSt3__116reverse_iteratorIPiEptB8ue170006Ev, symObjAddr: 0x1CE80, symBinAddr: 0x10002098C, symSize: 0x24 }
  - { offsetInCU: 0x40695, offset: 0x40695, size: 0x8, addend: 0x0, symName: __ZNKSt3__111__move_loopINS_17_ClassicAlgPolicyEEclB8ue170006INS_16reverse_iteratorIPiEES6_S6_EENS_4pairIT_T1_EES8_T0_S9_, symObjAddr: 0x1D11C, symBinAddr: 0x100020C28, symSize: 0xA0 }
  - { offsetInCU: 0x40706, offset: 0x40706, size: 0x8, addend: 0x0, symName: __ZNSt3__18_IterOpsINS_17_ClassicAlgPolicyEE11__iter_moveB8ue170006IRNS_16reverse_iteratorIPiEEEENS_9enable_ifIXsr12is_referenceIDTdeclsr3stdE7declvalIRT_EEEEE5valueEDTclsr3stdE4movedeclsr3stdE7declvalISA_EEEEE4typeEOS9_, symObjAddr: 0x1D31C, symBinAddr: 0x100020E28, symSize: 0x28 }
  - { offsetInCU: 0x40732, offset: 0x40732, size: 0x8, addend: 0x0, symName: __ZNSt3__18_IterOpsINS_17_ClassicAlgPolicyEE25__validate_iter_referenceB8ue170006IRNS_16reverse_iteratorIPiEEEEvv, symObjAddr: 0x1D344, symBinAddr: 0x100020E50, symSize: 0x4 }
  - { offsetInCU: 0x40750, offset: 0x40750, size: 0x8, addend: 0x0, symName: __ZNSt3__118__unwrap_iter_implINS_16reverse_iteratorIPiEELb0EE8__unwrapB8ue170006ES3_, symObjAddr: 0x1D348, symBinAddr: 0x100020E54, symSize: 0x24 }
  - { offsetInCU: 0x40773, offset: 0x40773, size: 0x8, addend: 0x0, symName: __ZNSt3__14pairINS_16reverse_iteratorIPiEES3_EC1B8ue170006ERKS3_S6_, symObjAddr: 0x1D36C, symBinAddr: 0x100020E78, symSize: 0x3C }
  - { offsetInCU: 0x407B9, offset: 0x407B9, size: 0x8, addend: 0x0, symName: __ZNSt3__14pairINS_16reverse_iteratorIPiEES3_EC2B8ue170006ERKS3_S6_, symObjAddr: 0x1D3A8, symBinAddr: 0x100020EB4, symSize: 0x34 }
  - { offsetInCU: 0x407FF, offset: 0x407FF, size: 0x8, addend: 0x0, symName: __ZNSt3__118__unwrap_iter_implINS_16reverse_iteratorIPiEELb0EE8__rewrapB8ue170006ES3_S3_, symObjAddr: 0x1D3DC, symBinAddr: 0x100020EE8, symSize: 0x2C }
  - { offsetInCU: 0x4082C, offset: 0x4082C, size: 0x8, addend: 0x0, symName: __ZNSt3__116reverse_iteratorIPiEC2B8ue170006ES1_, symObjAddr: 0x1D408, symBinAddr: 0x100020F14, symSize: 0x28 }
  - { offsetInCU: 0x40864, offset: 0x40864, size: 0x8, addend: 0x0, symName: __ZNSt3__114__split_bufferIiRNS_9allocatorIiEEED2Ev, symObjAddr: 0x1D430, symBinAddr: 0x100020F3C, symSize: 0x80 }
  - { offsetInCU: 0x40890, offset: 0x40890, size: 0x8, addend: 0x0, symName: __ZNSt3__114__split_bufferIiRNS_9allocatorIiEEE5clearB8ue170006Ev, symObjAddr: 0x1D4B0, symBinAddr: 0x100020FBC, symSize: 0x28 }
  - { offsetInCU: 0x408B6, offset: 0x408B6, size: 0x8, addend: 0x0, symName: __ZNSt3__116allocator_traitsINS_9allocatorIiEEE10deallocateB8ue170006ERS2_Pim, symObjAddr: 0x1D4D8, symBinAddr: 0x100020FE4, symSize: 0x34 }
  - { offsetInCU: 0x408F8, offset: 0x408F8, size: 0x8, addend: 0x0, symName: __ZNKSt3__114__split_bufferIiRNS_9allocatorIiEEE8capacityB8ue170006Ev, symObjAddr: 0x1D50C, symBinAddr: 0x100021018, symSize: 0x40 }
  - { offsetInCU: 0x4091E, offset: 0x4091E, size: 0x8, addend: 0x0, symName: __ZNSt3__114__split_bufferIiRNS_9allocatorIiEEE17__destruct_at_endB8ue170006EPi, symObjAddr: 0x1D54C, symBinAddr: 0x100021058, symSize: 0x2C }
  - { offsetInCU: 0x40952, offset: 0x40952, size: 0x8, addend: 0x0, symName: __ZNSt3__114__split_bufferIiRNS_9allocatorIiEEE17__destruct_at_endB8ue170006EPiNS_17integral_constantIbLb0EEE, symObjAddr: 0x1D578, symBinAddr: 0x100021084, symSize: 0x94 }
  - { offsetInCU: 0x40992, offset: 0x40992, size: 0x8, addend: 0x0, symName: __ZNSt3__116allocator_traitsINS_9allocatorIiEEE7destroyB8ue170006IivEEvRS2_PT_, symObjAddr: 0x1D60C, symBinAddr: 0x100021118, symSize: 0x2C }
  - { offsetInCU: 0x409CF, offset: 0x409CF, size: 0x8, addend: 0x0, symName: __ZNSt3__19allocatorIiE7destroyB8ue170006EPi, symObjAddr: 0x1D638, symBinAddr: 0x100021144, symSize: 0x14 }
  - { offsetInCU: 0x40A03, offset: 0x40A03, size: 0x8, addend: 0x0, symName: __ZNSt3__19allocatorIiE10deallocateB8ue170006EPim, symObjAddr: 0x1D64C, symBinAddr: 0x100021158, symSize: 0x70 }
  - { offsetInCU: 0x40A45, offset: 0x40A45, size: 0x8, addend: 0x0, symName: __ZNKSt3__114__split_bufferIiRNS_9allocatorIiEEE9__end_capB8ue170006Ev, symObjAddr: 0x1D6BC, symBinAddr: 0x1000211C8, symSize: 0x28 }
  - { offsetInCU: 0x40A6B, offset: 0x40A6B, size: 0x8, addend: 0x0, symName: __ZNKSt3__117__compressed_pairIPiRNS_9allocatorIiEEE5firstB8ue170006Ev, symObjAddr: 0x1D6E4, symBinAddr: 0x1000211F0, symSize: 0x24 }
  - { offsetInCU: 0x40A91, offset: 0x40A91, size: 0x8, addend: 0x0, symName: __ZN8random_tC2Ev, symObjAddr: 0x1D708, symBinAddr: 0x100021214, symSize: 0x28 }
  - { offsetInCU: 0x40ABB, offset: 0x40ABB, size: 0x8, addend: 0x0, symName: __ZN9ValidatorC2Ev, symObjAddr: 0x1D730, symBinAddr: 0x10002123C, symSize: 0x140 }
  - { offsetInCU: 0x40AE5, offset: 0x40AE5, size: 0x8, addend: 0x0, symName: __ZNSt3__13mapINS_12basic_stringIcNS_11char_traitsIcEENS_9allocatorIcEEEE18ValidatorBoundsHitNS_4lessIS6_EENS4_INS_4pairIKS6_S7_EEEEEC1B8ue170006Ev, symObjAddr: 0x1D870, symBinAddr: 0x10002137C, symSize: 0x2C }
  - { offsetInCU: 0x40B0F, offset: 0x40B0F, size: 0x8, addend: 0x0, symName: __ZNSt3__13setINS_12basic_stringIcNS_11char_traitsIcEENS_9allocatorIcEEEENS_4lessIS6_EENS4_IS6_EEEC1B8ue170006Ev, symObjAddr: 0x1D89C, symBinAddr: 0x1000213A8, symSize: 0x2C }
  - { offsetInCU: 0x40B39, offset: 0x40B39, size: 0x8, addend: 0x0, symName: __ZNSt3__13setINS_12basic_stringIcNS_11char_traitsIcEENS_9allocatorIcEEEENS_4lessIS6_EENS4_IS6_EEED1B8ue170006Ev, symObjAddr: 0x1D8C8, symBinAddr: 0x1000213D4, symSize: 0x2C }
  - { offsetInCU: 0x40B63, offset: 0x40B63, size: 0x8, addend: 0x0, symName: __ZNSt3__13mapINS_12basic_stringIcNS_11char_traitsIcEENS_9allocatorIcEEEE18ValidatorBoundsHitNS_4lessIS6_EENS4_INS_4pairIKS6_S7_EEEEED1B8ue170006Ev, symObjAddr: 0x1D8F4, symBinAddr: 0x100021400, symSize: 0x2C }
  - { offsetInCU: 0x40B8D, offset: 0x40B8D, size: 0x8, addend: 0x0, symName: __ZNSt3__13mapINS_12basic_stringIcNS_11char_traitsIcEENS_9allocatorIcEEEE18ValidatorBoundsHitNS_4lessIS6_EENS4_INS_4pairIKS6_S7_EEEEEC2B8ue170006Ev, symObjAddr: 0x1D920, symBinAddr: 0x10002142C, symSize: 0x40 }
  - { offsetInCU: 0x40BB7, offset: 0x40BB7, size: 0x8, addend: 0x0, symName: __ZNSt3__119__map_value_compareINS_12basic_stringIcNS_11char_traitsIcEENS_9allocatorIcEEEENS_12__value_typeIS6_18ValidatorBoundsHitEENS_4lessIS6_EELb1EEC1B8ue170006ESB_, symObjAddr: 0x1D960, symBinAddr: 0x10002146C, symSize: 0x2C }
  - { offsetInCU: 0x40BF0, offset: 0x40BF0, size: 0x8, addend: 0x0, symName: __ZNSt3__16__treeINS_12__value_typeINS_12basic_stringIcNS_11char_traitsIcEENS_9allocatorIcEEEE18ValidatorBoundsHitEENS_19__map_value_compareIS7_S9_NS_4lessIS7_EELb1EEENS5_IS9_EEEC1ERKSD_, symObjAddr: 0x1D98C, symBinAddr: 0x100021498, symSize: 0x34 }
  - { offsetInCU: 0x40C2B, offset: 0x40C2B, size: 0x8, addend: 0x0, symName: __ZNSt3__119__map_value_compareINS_12basic_stringIcNS_11char_traitsIcEENS_9allocatorIcEEEENS_12__value_typeIS6_18ValidatorBoundsHitEENS_4lessIS6_EELb1EEC2B8ue170006ESB_, symObjAddr: 0x1D9C0, symBinAddr: 0x1000214CC, symSize: 0x14 }
  - { offsetInCU: 0x40C64, offset: 0x40C64, size: 0x8, addend: 0x0, symName: __ZNSt3__16__treeINS_12__value_typeINS_12basic_stringIcNS_11char_traitsIcEENS_9allocatorIcEEEE18ValidatorBoundsHitEENS_19__map_value_compareIS7_S9_NS_4lessIS7_EELb1EEENS5_IS9_EEEC2ERKSD_, symObjAddr: 0x1D9D4, symBinAddr: 0x1000214E0, symSize: 0x70 }
  - { offsetInCU: 0x40C9F, offset: 0x40C9F, size: 0x8, addend: 0x0, symName: __ZNSt3__117__compressed_pairINS_15__tree_end_nodeIPNS_16__tree_node_baseIPvEEEENS_9allocatorINS_11__tree_nodeINS_12__value_typeINS_12basic_stringIcNS_11char_traitsIcEENS7_IcEEEE18ValidatorBoundsHitEES3_EEEEEC1B8ue170006ILb1EvEEv, symObjAddr: 0x1DA44, symBinAddr: 0x100021550, symSize: 0x2C }
  - { offsetInCU: 0x40CD4, offset: 0x40CD4, size: 0x8, addend: 0x0, symName: __ZNSt3__117__compressed_pairImNS_19__map_value_compareINS_12basic_stringIcNS_11char_traitsIcEENS_9allocatorIcEEEENS_12__value_typeIS7_18ValidatorBoundsHitEENS_4lessIS7_EELb1EEEEC1B8ue170006IiRKSD_EEOT_OT0_, symObjAddr: 0x1DA70, symBinAddr: 0x10002157C, symSize: 0x3C }
  - { offsetInCU: 0x40D2C, offset: 0x40D2C, size: 0x8, addend: 0x0, symName: __ZNSt3__16__treeINS_12__value_typeINS_12basic_stringIcNS_11char_traitsIcEENS_9allocatorIcEEEE18ValidatorBoundsHitEENS_19__map_value_compareIS7_S9_NS_4lessIS7_EELb1EEENS5_IS9_EEE10__end_nodeB8ue170006Ev, symObjAddr: 0x1DAAC, symBinAddr: 0x1000215B8, symSize: 0x2C }
  - { offsetInCU: 0x40D52, offset: 0x40D52, size: 0x8, addend: 0x0, symName: __ZNSt3__16__treeINS_12__value_typeINS_12basic_stringIcNS_11char_traitsIcEENS_9allocatorIcEEEE18ValidatorBoundsHitEENS_19__map_value_compareIS7_S9_NS_4lessIS7_EELb1EEENS5_IS9_EEE12__begin_nodeB8ue170006Ev, symObjAddr: 0x1DAD8, symBinAddr: 0x1000215E4, symSize: 0x14 }
  - { offsetInCU: 0x40D78, offset: 0x40D78, size: 0x8, addend: 0x0, symName: __ZNSt3__117__compressed_pairINS_15__tree_end_nodeIPNS_16__tree_node_baseIPvEEEENS_9allocatorINS_11__tree_nodeINS_12__value_typeINS_12basic_stringIcNS_11char_traitsIcEENS7_IcEEEE18ValidatorBoundsHitEES3_EEEEEC2B8ue170006ILb1EvEEv, symObjAddr: 0x1DAEC, symBinAddr: 0x1000215F8, symSize: 0x34 }
  - { offsetInCU: 0x40DAD, offset: 0x40DAD, size: 0x8, addend: 0x0, symName: __ZNSt3__122__compressed_pair_elemINS_15__tree_end_nodeIPNS_16__tree_node_baseIPvEEEELi0ELb0EEC2B8ue170006ENS_16__value_init_tagE, symObjAddr: 0x1DB20, symBinAddr: 0x10002162C, symSize: 0x2C }
  - { offsetInCU: 0x40DE1, offset: 0x40DE1, size: 0x8, addend: 0x0, symName: __ZNSt3__122__compressed_pair_elemINS_9allocatorINS_11__tree_nodeINS_12__value_typeINS_12basic_stringIcNS_11char_traitsIcEENS1_IcEEEE18ValidatorBoundsHitEEPvEEEELi1ELb1EEC2B8ue170006ENS_16__value_init_tagE, symObjAddr: 0x1DB4C, symBinAddr: 0x100021658, symSize: 0x2C }
  - { offsetInCU: 0x40E15, offset: 0x40E15, size: 0x8, addend: 0x0, symName: __ZNSt3__115__tree_end_nodeIPNS_16__tree_node_baseIPvEEEC1B8ue170006Ev, symObjAddr: 0x1DB78, symBinAddr: 0x100021684, symSize: 0x2C }
  - { offsetInCU: 0x40E3F, offset: 0x40E3F, size: 0x8, addend: 0x0, symName: __ZNSt3__115__tree_end_nodeIPNS_16__tree_node_baseIPvEEEC2B8ue170006Ev, symObjAddr: 0x1DBA4, symBinAddr: 0x1000216B0, symSize: 0x18 }
  - { offsetInCU: 0x40E69, offset: 0x40E69, size: 0x8, addend: 0x0, symName: __ZNSt3__19allocatorINS_11__tree_nodeINS_12__value_typeINS_12basic_stringIcNS_11char_traitsIcEENS0_IcEEEE18ValidatorBoundsHitEEPvEEEC2B8ue170006Ev, symObjAddr: 0x1DBBC, symBinAddr: 0x1000216C8, symSize: 0x2C }
  - { offsetInCU: 0x40E93, offset: 0x40E93, size: 0x8, addend: 0x0, symName: __ZNSt3__116__non_trivial_ifILb1ENS_9allocatorINS_11__tree_nodeINS_12__value_typeINS_12basic_stringIcNS_11char_traitsIcEENS1_IcEEEE18ValidatorBoundsHitEEPvEEEEEC2B8ue170006Ev, symObjAddr: 0x1DBE8, symBinAddr: 0x1000216F4, symSize: 0x14 }
  - { offsetInCU: 0x40EBD, offset: 0x40EBD, size: 0x8, addend: 0x0, symName: __ZNSt3__117__compressed_pairImNS_19__map_value_compareINS_12basic_stringIcNS_11char_traitsIcEENS_9allocatorIcEEEENS_12__value_typeIS7_18ValidatorBoundsHitEENS_4lessIS7_EELb1EEEEC2B8ue170006IiRKSD_EEOT_OT0_, symObjAddr: 0x1DBFC, symBinAddr: 0x100021708, symSize: 0x44 }
  - { offsetInCU: 0x40F15, offset: 0x40F15, size: 0x8, addend: 0x0, symName: __ZNSt3__122__compressed_pair_elemImLi0ELb0EEC2B8ue170006IivEEOT_, symObjAddr: 0x1DC40, symBinAddr: 0x10002174C, symSize: 0x24 }
  - { offsetInCU: 0x40F57, offset: 0x40F57, size: 0x8, addend: 0x0, symName: __ZNSt3__122__compressed_pair_elemINS_19__map_value_compareINS_12basic_stringIcNS_11char_traitsIcEENS_9allocatorIcEEEENS_12__value_typeIS7_18ValidatorBoundsHitEENS_4lessIS7_EELb1EEELi1ELb1EEC2B8ue170006IRKSD_vEEOT_, symObjAddr: 0x1DC64, symBinAddr: 0x100021770, symSize: 0x18 }
  - { offsetInCU: 0x40F99, offset: 0x40F99, size: 0x8, addend: 0x0, symName: __ZNSt3__114pointer_traitsIPNS_15__tree_end_nodeIPNS_16__tree_node_baseIPvEEEEE10pointer_toB8ue170006ERS6_, symObjAddr: 0x1DC7C, symBinAddr: 0x100021788, symSize: 0x14 }
  - { offsetInCU: 0x40FBC, offset: 0x40FBC, size: 0x8, addend: 0x0, symName: __ZNSt3__117__compressed_pairINS_15__tree_end_nodeIPNS_16__tree_node_baseIPvEEEENS_9allocatorINS_11__tree_nodeINS_12__value_typeINS_12basic_stringIcNS_11char_traitsIcEENS7_IcEEEE18ValidatorBoundsHitEES3_EEEEE5firstB8ue170006Ev, symObjAddr: 0x1DC90, symBinAddr: 0x10002179C, symSize: 0x24 }
  - { offsetInCU: 0x40FE2, offset: 0x40FE2, size: 0x8, addend: 0x0, symName: __ZNSt3__122__compressed_pair_elemINS_15__tree_end_nodeIPNS_16__tree_node_baseIPvEEEELi0ELb0EE5__getB8ue170006Ev, symObjAddr: 0x1DCB4, symBinAddr: 0x1000217C0, symSize: 0x14 }
  - { offsetInCU: 0x41008, offset: 0x41008, size: 0x8, addend: 0x0, symName: __ZNSt3__13setINS_12basic_stringIcNS_11char_traitsIcEENS_9allocatorIcEEEENS_4lessIS6_EENS4_IS6_EEEC2B8ue170006Ev, symObjAddr: 0x1DCC8, symBinAddr: 0x1000217D4, symSize: 0x30 }
  - { offsetInCU: 0x41032, offset: 0x41032, size: 0x8, addend: 0x0, symName: __ZNSt3__16__treeINS_12basic_stringIcNS_11char_traitsIcEENS_9allocatorIcEEEENS_4lessIS6_EENS4_IS6_EEEC1ERKS8_, symObjAddr: 0x1DCF8, symBinAddr: 0x100021804, symSize: 0x34 }
  - { offsetInCU: 0x4106D, offset: 0x4106D, size: 0x8, addend: 0x0, symName: __ZNSt3__16__treeINS_12basic_stringIcNS_11char_traitsIcEENS_9allocatorIcEEEENS_4lessIS6_EENS4_IS6_EEEC2ERKS8_, symObjAddr: 0x1DD2C, symBinAddr: 0x100021838, symSize: 0x70 }
  - { offsetInCU: 0x410A8, offset: 0x410A8, size: 0x8, addend: 0x0, symName: __ZNSt3__117__compressed_pairINS_15__tree_end_nodeIPNS_16__tree_node_baseIPvEEEENS_9allocatorINS_11__tree_nodeINS_12basic_stringIcNS_11char_traitsIcEENS7_IcEEEES3_EEEEEC1B8ue170006ILb1EvEEv, symObjAddr: 0x1DD9C, symBinAddr: 0x1000218A8, symSize: 0x2C }
  - { offsetInCU: 0x410DD, offset: 0x410DD, size: 0x8, addend: 0x0, symName: __ZNSt3__117__compressed_pairImNS_4lessINS_12basic_stringIcNS_11char_traitsIcEENS_9allocatorIcEEEEEEEC1B8ue170006IiRKS8_EEOT_OT0_, symObjAddr: 0x1DDC8, symBinAddr: 0x1000218D4, symSize: 0x3C }
  - { offsetInCU: 0x41135, offset: 0x41135, size: 0x8, addend: 0x0, symName: __ZNSt3__16__treeINS_12basic_stringIcNS_11char_traitsIcEENS_9allocatorIcEEEENS_4lessIS6_EENS4_IS6_EEE10__end_nodeB8ue170006Ev, symObjAddr: 0x1DE04, symBinAddr: 0x100021910, symSize: 0x2C }
  - { offsetInCU: 0x4115B, offset: 0x4115B, size: 0x8, addend: 0x0, symName: __ZNSt3__16__treeINS_12basic_stringIcNS_11char_traitsIcEENS_9allocatorIcEEEENS_4lessIS6_EENS4_IS6_EEE12__begin_nodeB8ue170006Ev, symObjAddr: 0x1DE30, symBinAddr: 0x10002193C, symSize: 0x14 }
  - { offsetInCU: 0x41181, offset: 0x41181, size: 0x8, addend: 0x0, symName: __ZNSt3__117__compressed_pairINS_15__tree_end_nodeIPNS_16__tree_node_baseIPvEEEENS_9allocatorINS_11__tree_nodeINS_12basic_stringIcNS_11char_traitsIcEENS7_IcEEEES3_EEEEEC2B8ue170006ILb1EvEEv, symObjAddr: 0x1DE44, symBinAddr: 0x100021950, symSize: 0x34 }
  - { offsetInCU: 0x411B6, offset: 0x411B6, size: 0x8, addend: 0x0, symName: __ZNSt3__122__compressed_pair_elemINS_9allocatorINS_11__tree_nodeINS_12basic_stringIcNS_11char_traitsIcEENS1_IcEEEEPvEEEELi1ELb1EEC2B8ue170006ENS_16__value_init_tagE, symObjAddr: 0x1DE78, symBinAddr: 0x100021984, symSize: 0x2C }
  - { offsetInCU: 0x411EA, offset: 0x411EA, size: 0x8, addend: 0x0, symName: __ZNSt3__19allocatorINS_11__tree_nodeINS_12basic_stringIcNS_11char_traitsIcEENS0_IcEEEEPvEEEC2B8ue170006Ev, symObjAddr: 0x1DEA4, symBinAddr: 0x1000219B0, symSize: 0x2C }
  - { offsetInCU: 0x41214, offset: 0x41214, size: 0x8, addend: 0x0, symName: __ZNSt3__116__non_trivial_ifILb1ENS_9allocatorINS_11__tree_nodeINS_12basic_stringIcNS_11char_traitsIcEENS1_IcEEEEPvEEEEEC2B8ue170006Ev, symObjAddr: 0x1DED0, symBinAddr: 0x1000219DC, symSize: 0x14 }
  - { offsetInCU: 0x4123E, offset: 0x4123E, size: 0x8, addend: 0x0, symName: __ZNSt3__117__compressed_pairImNS_4lessINS_12basic_stringIcNS_11char_traitsIcEENS_9allocatorIcEEEEEEEC2B8ue170006IiRKS8_EEOT_OT0_, symObjAddr: 0x1DEE4, symBinAddr: 0x1000219F0, symSize: 0x44 }
  - { offsetInCU: 0x41296, offset: 0x41296, size: 0x8, addend: 0x0, symName: __ZNSt3__122__compressed_pair_elemINS_4lessINS_12basic_stringIcNS_11char_traitsIcEENS_9allocatorIcEEEEEELi1ELb1EEC2B8ue170006IRKS8_vEEOT_, symObjAddr: 0x1DF28, symBinAddr: 0x100021A34, symSize: 0x18 }
  - { offsetInCU: 0x412D8, offset: 0x412D8, size: 0x8, addend: 0x0, symName: __ZNSt3__117__compressed_pairINS_15__tree_end_nodeIPNS_16__tree_node_baseIPvEEEENS_9allocatorINS_11__tree_nodeINS_12basic_stringIcNS_11char_traitsIcEENS7_IcEEEES3_EEEEE5firstB8ue170006Ev, symObjAddr: 0x1DF40, symBinAddr: 0x100021A4C, symSize: 0x24 }
  - { offsetInCU: 0x412FE, offset: 0x412FE, size: 0x8, addend: 0x0, symName: __ZNSt3__13setINS_12basic_stringIcNS_11char_traitsIcEENS_9allocatorIcEEEENS_4lessIS6_EENS4_IS6_EEED2B8ue170006Ev, symObjAddr: 0x1DF64, symBinAddr: 0x100021A70, symSize: 0x2C }
  - { offsetInCU: 0x41328, offset: 0x41328, size: 0x8, addend: 0x0, symName: __ZNSt3__16__treeINS_12basic_stringIcNS_11char_traitsIcEENS_9allocatorIcEEEENS_4lessIS6_EENS4_IS6_EEED1Ev, symObjAddr: 0x1DF90, symBinAddr: 0x100021A9C, symSize: 0x2C }
  - { offsetInCU: 0x41354, offset: 0x41354, size: 0x8, addend: 0x0, symName: __ZNSt3__16__treeINS_12basic_stringIcNS_11char_traitsIcEENS_9allocatorIcEEEENS_4lessIS6_EENS4_IS6_EEED2Ev, symObjAddr: 0x1DFBC, symBinAddr: 0x100021AC8, symSize: 0x38 }
  - { offsetInCU: 0x41380, offset: 0x41380, size: 0x8, addend: 0x0, symName: __ZNSt3__16__treeINS_12basic_stringIcNS_11char_traitsIcEENS_9allocatorIcEEEENS_4lessIS6_EENS4_IS6_EEE7destroyEPNS_11__tree_nodeIS6_PvEE, symObjAddr: 0x1DFF4, symBinAddr: 0x100021B00, symSize: 0xC0 }
  - { offsetInCU: 0x413D4, offset: 0x413D4, size: 0x8, addend: 0x0, symName: __ZNKSt3__16__treeINS_12basic_stringIcNS_11char_traitsIcEENS_9allocatorIcEEEENS_4lessIS6_EENS4_IS6_EEE6__rootB8ue170006Ev, symObjAddr: 0x1E0B4, symBinAddr: 0x100021BC0, symSize: 0x28 }
  - { offsetInCU: 0x413FA, offset: 0x413FA, size: 0x8, addend: 0x0, symName: __ZNSt3__16__treeINS_12basic_stringIcNS_11char_traitsIcEENS_9allocatorIcEEEENS_4lessIS6_EENS4_IS6_EEE12__node_allocB8ue170006Ev, symObjAddr: 0x1E0DC, symBinAddr: 0x100021BE8, symSize: 0x28 }
  - { offsetInCU: 0x41420, offset: 0x41420, size: 0x8, addend: 0x0, symName: __ZNSt3__116allocator_traitsINS_9allocatorINS_11__tree_nodeINS_12basic_stringIcNS_11char_traitsIcEENS1_IcEEEEPvEEEEE7destroyB8ue170006IS7_vvEEvRSA_PT_, symObjAddr: 0x1E104, symBinAddr: 0x100021C10, symSize: 0x28 }
  - { offsetInCU: 0x4145A, offset: 0x4145A, size: 0x8, addend: 0x0, symName: __ZNSt3__122__tree_key_value_typesINS_12basic_stringIcNS_11char_traitsIcEENS_9allocatorIcEEEEE9__get_ptrB8ue170006ERS6_, symObjAddr: 0x1E12C, symBinAddr: 0x100021C38, symSize: 0x14 }
  - { offsetInCU: 0x4147E, offset: 0x4147E, size: 0x8, addend: 0x0, symName: __ZNSt3__116allocator_traitsINS_9allocatorINS_11__tree_nodeINS_12basic_stringIcNS_11char_traitsIcEENS1_IcEEEEPvEEEEE10deallocateB8ue170006ERSA_PS9_m, symObjAddr: 0x1E140, symBinAddr: 0x100021C4C, symSize: 0x34 }
  - { offsetInCU: 0x414C0, offset: 0x414C0, size: 0x8, addend: 0x0, symName: __ZNSt3__117__compressed_pairINS_15__tree_end_nodeIPNS_16__tree_node_baseIPvEEEENS_9allocatorINS_11__tree_nodeINS_12basic_stringIcNS_11char_traitsIcEENS7_IcEEEES3_EEEEE6secondB8ue170006Ev, symObjAddr: 0x1E174, symBinAddr: 0x100021C80, symSize: 0x24 }
  - { offsetInCU: 0x414E6, offset: 0x414E6, size: 0x8, addend: 0x0, symName: __ZNSt3__122__compressed_pair_elemINS_9allocatorINS_11__tree_nodeINS_12basic_stringIcNS_11char_traitsIcEENS1_IcEEEEPvEEEELi1ELb1EE5__getB8ue170006Ev, symObjAddr: 0x1E198, symBinAddr: 0x100021CA4, symSize: 0x14 }
  - { offsetInCU: 0x4150C, offset: 0x4150C, size: 0x8, addend: 0x0, symName: __ZNSt3__19allocatorINS_11__tree_nodeINS_12basic_stringIcNS_11char_traitsIcEENS0_IcEEEEPvEEE10deallocateB8ue170006EPS8_m, symObjAddr: 0x1E1AC, symBinAddr: 0x100021CB8, symSize: 0x74 }
  - { offsetInCU: 0x4154E, offset: 0x4154E, size: 0x8, addend: 0x0, symName: __ZNKSt3__16__treeINS_12basic_stringIcNS_11char_traitsIcEENS_9allocatorIcEEEENS_4lessIS6_EENS4_IS6_EEE10__end_nodeB8ue170006Ev, symObjAddr: 0x1E220, symBinAddr: 0x100021D2C, symSize: 0x2C }
  - { offsetInCU: 0x41574, offset: 0x41574, size: 0x8, addend: 0x0, symName: __ZNKSt3__117__compressed_pairINS_15__tree_end_nodeIPNS_16__tree_node_baseIPvEEEENS_9allocatorINS_11__tree_nodeINS_12basic_stringIcNS_11char_traitsIcEENS7_IcEEEES3_EEEEE5firstB8ue170006Ev, symObjAddr: 0x1E24C, symBinAddr: 0x100021D58, symSize: 0x24 }
  - { offsetInCU: 0x4159A, offset: 0x4159A, size: 0x8, addend: 0x0, symName: __ZNKSt3__122__compressed_pair_elemINS_15__tree_end_nodeIPNS_16__tree_node_baseIPvEEEELi0ELb0EE5__getB8ue170006Ev, symObjAddr: 0x1E270, symBinAddr: 0x100021D7C, symSize: 0x14 }
  - { offsetInCU: 0x415C0, offset: 0x415C0, size: 0x8, addend: 0x0, symName: __ZNSt3__13mapINS_12basic_stringIcNS_11char_traitsIcEENS_9allocatorIcEEEE18ValidatorBoundsHitNS_4lessIS6_EENS4_INS_4pairIKS6_S7_EEEEED2B8ue170006Ev, symObjAddr: 0x1E284, symBinAddr: 0x100021D90, symSize: 0x2C }
  - { offsetInCU: 0x415EA, offset: 0x415EA, size: 0x8, addend: 0x0, symName: __ZNSt3__16__treeINS_12__value_typeINS_12basic_stringIcNS_11char_traitsIcEENS_9allocatorIcEEEE18ValidatorBoundsHitEENS_19__map_value_compareIS7_S9_NS_4lessIS7_EELb1EEENS5_IS9_EEED1Ev, symObjAddr: 0x1E2B0, symBinAddr: 0x100021DBC, symSize: 0x2C }
  - { offsetInCU: 0x41616, offset: 0x41616, size: 0x8, addend: 0x0, symName: __ZNSt3__16__treeINS_12__value_typeINS_12basic_stringIcNS_11char_traitsIcEENS_9allocatorIcEEEE18ValidatorBoundsHitEENS_19__map_value_compareIS7_S9_NS_4lessIS7_EELb1EEENS5_IS9_EEED2Ev, symObjAddr: 0x1E2DC, symBinAddr: 0x100021DE8, symSize: 0x38 }
  - { offsetInCU: 0x41642, offset: 0x41642, size: 0x8, addend: 0x0, symName: __ZNSt3__16__treeINS_12__value_typeINS_12basic_stringIcNS_11char_traitsIcEENS_9allocatorIcEEEE18ValidatorBoundsHitEENS_19__map_value_compareIS7_S9_NS_4lessIS7_EELb1EEENS5_IS9_EEE7destroyEPNS_11__tree_nodeIS9_PvEE, symObjAddr: 0x1E314, symBinAddr: 0x100021E20, symSize: 0xC0 }
  - { offsetInCU: 0x41696, offset: 0x41696, size: 0x8, addend: 0x0, symName: __ZNKSt3__16__treeINS_12__value_typeINS_12basic_stringIcNS_11char_traitsIcEENS_9allocatorIcEEEE18ValidatorBoundsHitEENS_19__map_value_compareIS7_S9_NS_4lessIS7_EELb1EEENS5_IS9_EEE6__rootB8ue170006Ev, symObjAddr: 0x1E3D4, symBinAddr: 0x100021EE0, symSize: 0x28 }
  - { offsetInCU: 0x416BC, offset: 0x416BC, size: 0x8, addend: 0x0, symName: __ZNSt3__16__treeINS_12__value_typeINS_12basic_stringIcNS_11char_traitsIcEENS_9allocatorIcEEEE18ValidatorBoundsHitEENS_19__map_value_compareIS7_S9_NS_4lessIS7_EELb1EEENS5_IS9_EEE12__node_allocB8ue170006Ev, symObjAddr: 0x1E3FC, symBinAddr: 0x100021F08, symSize: 0x28 }
  - { offsetInCU: 0x416E2, offset: 0x416E2, size: 0x8, addend: 0x0, symName: __ZNSt3__116allocator_traitsINS_9allocatorINS_11__tree_nodeINS_12__value_typeINS_12basic_stringIcNS_11char_traitsIcEENS1_IcEEEE18ValidatorBoundsHitEEPvEEEEE7destroyB8ue170006INS_4pairIKS8_S9_EEvvEEvRSD_PT_, symObjAddr: 0x1E424, symBinAddr: 0x100021F30, symSize: 0x28 }
  - { offsetInCU: 0x4171C, offset: 0x4171C, size: 0x8, addend: 0x0, symName: __ZNSt3__122__tree_key_value_typesINS_12__value_typeINS_12basic_stringIcNS_11char_traitsIcEENS_9allocatorIcEEEE18ValidatorBoundsHitEEE9__get_ptrB8ue170006ERS9_, symObjAddr: 0x1E44C, symBinAddr: 0x100021F58, symSize: 0x24 }
  - { offsetInCU: 0x41740, offset: 0x41740, size: 0x8, addend: 0x0, symName: __ZNSt3__116allocator_traitsINS_9allocatorINS_11__tree_nodeINS_12__value_typeINS_12basic_stringIcNS_11char_traitsIcEENS1_IcEEEE18ValidatorBoundsHitEEPvEEEEE10deallocateB8ue170006ERSD_PSC_m, symObjAddr: 0x1E470, symBinAddr: 0x100021F7C, symSize: 0x34 }
  - { offsetInCU: 0x41782, offset: 0x41782, size: 0x8, addend: 0x0, symName: __ZNSt3__117__compressed_pairINS_15__tree_end_nodeIPNS_16__tree_node_baseIPvEEEENS_9allocatorINS_11__tree_nodeINS_12__value_typeINS_12basic_stringIcNS_11char_traitsIcEENS7_IcEEEE18ValidatorBoundsHitEES3_EEEEE6secondB8ue170006Ev, symObjAddr: 0x1E4A4, symBinAddr: 0x100021FB0, symSize: 0x24 }
  - { offsetInCU: 0x417A8, offset: 0x417A8, size: 0x8, addend: 0x0, symName: __ZNSt3__122__compressed_pair_elemINS_9allocatorINS_11__tree_nodeINS_12__value_typeINS_12basic_stringIcNS_11char_traitsIcEENS1_IcEEEE18ValidatorBoundsHitEEPvEEEELi1ELb1EE5__getB8ue170006Ev, symObjAddr: 0x1E4C8, symBinAddr: 0x100021FD4, symSize: 0x14 }
  - { offsetInCU: 0x417CE, offset: 0x417CE, size: 0x8, addend: 0x0, symName: __ZNSt3__14pairIKNS_12basic_stringIcNS_11char_traitsIcEENS_9allocatorIcEEEE18ValidatorBoundsHitED1Ev, symObjAddr: 0x1E4DC, symBinAddr: 0x100021FE8, symSize: 0x2C }
  - { offsetInCU: 0x417FA, offset: 0x417FA, size: 0x8, addend: 0x0, symName: __ZNSt3__14pairIKNS_12basic_stringIcNS_11char_traitsIcEENS_9allocatorIcEEEE18ValidatorBoundsHitED2Ev, symObjAddr: 0x1E508, symBinAddr: 0x100022014, symSize: 0x2C }
  - { offsetInCU: 0x41826, offset: 0x41826, size: 0x8, addend: 0x0, symName: __ZNSt3__112__value_typeINS_12basic_stringIcNS_11char_traitsIcEENS_9allocatorIcEEEE18ValidatorBoundsHitE11__get_valueB8ue170006Ev, symObjAddr: 0x1E534, symBinAddr: 0x100022040, symSize: 0x14 }
  - { offsetInCU: 0x4184C, offset: 0x4184C, size: 0x8, addend: 0x0, symName: __ZNSt3__19allocatorINS_11__tree_nodeINS_12__value_typeINS_12basic_stringIcNS_11char_traitsIcEENS0_IcEEEE18ValidatorBoundsHitEEPvEEE10deallocateB8ue170006EPSB_m, symObjAddr: 0x1E548, symBinAddr: 0x100022054, symSize: 0x70 }
  - { offsetInCU: 0x4188E, offset: 0x4188E, size: 0x8, addend: 0x0, symName: __ZNKSt3__16__treeINS_12__value_typeINS_12basic_stringIcNS_11char_traitsIcEENS_9allocatorIcEEEE18ValidatorBoundsHitEENS_19__map_value_compareIS7_S9_NS_4lessIS7_EELb1EEENS5_IS9_EEE10__end_nodeB8ue170006Ev, symObjAddr: 0x1E5B8, symBinAddr: 0x1000220C4, symSize: 0x2C }
  - { offsetInCU: 0x418B4, offset: 0x418B4, size: 0x8, addend: 0x0, symName: __ZNKSt3__117__compressed_pairINS_15__tree_end_nodeIPNS_16__tree_node_baseIPvEEEENS_9allocatorINS_11__tree_nodeINS_12__value_typeINS_12basic_stringIcNS_11char_traitsIcEENS7_IcEEEE18ValidatorBoundsHitEES3_EEEEE5firstB8ue170006Ev, symObjAddr: 0x1E5E4, symBinAddr: 0x1000220F0, symSize: 0x24 }
  - { offsetInCU: 0x418DA, offset: 0x418DA, size: 0x8, addend: 0x0, symName: __ZN9ValidatorD2Ev, symObjAddr: 0x1E608, symBinAddr: 0x100022114, symSize: 0x134 }
  - { offsetInCU: 0x41907, offset: 0x41907, size: 0x8, addend: 0x0, symName: __ZN20TestlibFinalizeGuardC2Ev, symObjAddr: 0x1E73C, symBinAddr: 0x100022248, symSize: 0x1C }
  - { offsetInCU: 0x41931, offset: 0x41931, size: 0x8, addend: 0x0, symName: __ZN20TestlibFinalizeGuardD2Ev, symObjAddr: 0x1E758, symBinAddr: 0x100022264, symSize: 0x164 }
  - { offsetInCU: 0x41970, offset: 0x41970, size: 0x8, addend: 0x0, symName: __ZN9Validator20writeTestOverviewLogEv, symObjAddr: 0x1E8BC, symBinAddr: 0x1000223C8, symSize: 0x2B0 }
  - { offsetInCU: 0x419BB, offset: 0x419BB, size: 0x8, addend: 0x0, symName: __ZN9Validator15getBoundsHitLogEv, symObjAddr: 0x1EB6C, symBinAddr: 0x100022678, symSize: 0x230 }
  - { offsetInCU: 0x41A06, offset: 0x41A06, size: 0x8, addend: 0x0, symName: __ZN9Validator14getFeaturesLogEv, symObjAddr: 0x1ED9C, symBinAddr: 0x1000228A8, symSize: 0x21C }
  - { offsetInCU: 0x41A51, offset: 0x41A51, size: 0x8, addend: 0x0, symName: __ZNSt3__13mapINS_12basic_stringIcNS_11char_traitsIcEENS_9allocatorIcEEEE18ValidatorBoundsHitNS_4lessIS6_EENS4_INS_4pairIKS6_S7_EEEEE5beginB8ue170006Ev, symObjAddr: 0x1EFB8, symBinAddr: 0x100022AC4, symSize: 0x38 }
  - { offsetInCU: 0x41A77, offset: 0x41A77, size: 0x8, addend: 0x0, symName: __ZNSt3__13mapINS_12basic_stringIcNS_11char_traitsIcEENS_9allocatorIcEEEE18ValidatorBoundsHitNS_4lessIS6_EENS4_INS_4pairIKS6_S7_EEEEE3endB8ue170006Ev, symObjAddr: 0x1F020, symBinAddr: 0x100022B2C, symSize: 0x38 }
  - { offsetInCU: 0x41A9D, offset: 0x41A9D, size: 0x8, addend: 0x0, symName: __ZNKSt3__114__map_iteratorINS_15__tree_iteratorINS_12__value_typeINS_12basic_stringIcNS_11char_traitsIcEENS_9allocatorIcEEEE18ValidatorBoundsHitEEPNS_11__tree_nodeISA_PvEElEEEptB8ue170006Ev, symObjAddr: 0x1F058, symBinAddr: 0x100022B64, symSize: 0x2C }
  - { offsetInCU: 0x41AC3, offset: 0x41AC3, size: 0x8, addend: 0x0, symName: __ZNSt3__112basic_stringIcNS_11char_traitsIcEENS_9allocatorIcEEEpLB8ue170006EPKc, symObjAddr: 0x1F084, symBinAddr: 0x100022B90, symSize: 0x2C }
  - { offsetInCU: 0x41AF8, offset: 0x41AF8, size: 0x8, addend: 0x0, symName: __ZNSt3__114__map_iteratorINS_15__tree_iteratorINS_12__value_typeINS_12basic_stringIcNS_11char_traitsIcEENS_9allocatorIcEEEE18ValidatorBoundsHitEEPNS_11__tree_nodeISA_PvEElEEEppB8ue170006Ei, symObjAddr: 0x1F0B0, symBinAddr: 0x100022BBC, symSize: 0x34 }
  - { offsetInCU: 0x41B38, offset: 0x41B38, size: 0x8, addend: 0x0, symName: __ZNSt3__16__treeINS_12__value_typeINS_12basic_stringIcNS_11char_traitsIcEENS_9allocatorIcEEEE18ValidatorBoundsHitEENS_19__map_value_compareIS7_S9_NS_4lessIS7_EELb1EEENS5_IS9_EEE5beginB8ue170006Ev, symObjAddr: 0x1F0E4, symBinAddr: 0x100022BF0, symSize: 0x34 }
  - { offsetInCU: 0x41B5E, offset: 0x41B5E, size: 0x8, addend: 0x0, symName: __ZNSt3__114__map_iteratorINS_15__tree_iteratorINS_12__value_typeINS_12basic_stringIcNS_11char_traitsIcEENS_9allocatorIcEEEE18ValidatorBoundsHitEEPNS_11__tree_nodeISA_PvEElEEEC1B8ue170006ESF_, symObjAddr: 0x1F118, symBinAddr: 0x100022C24, symSize: 0x34 }
  - { offsetInCU: 0x41B97, offset: 0x41B97, size: 0x8, addend: 0x0, symName: __ZNSt3__115__tree_iteratorINS_12__value_typeINS_12basic_stringIcNS_11char_traitsIcEENS_9allocatorIcEEEE18ValidatorBoundsHitEEPNS_11__tree_nodeIS9_PvEElEC1B8ue170006EPNS_15__tree_end_nodeIPNS_16__tree_node_baseISB_EEEE, symObjAddr: 0x1F14C, symBinAddr: 0x100022C58, symSize: 0x34 }
  - { offsetInCU: 0x41BD0, offset: 0x41BD0, size: 0x8, addend: 0x0, symName: __ZNSt3__115__tree_iteratorINS_12__value_typeINS_12basic_stringIcNS_11char_traitsIcEENS_9allocatorIcEEEE18ValidatorBoundsHitEEPNS_11__tree_nodeIS9_PvEElEC2B8ue170006EPNS_15__tree_end_nodeIPNS_16__tree_node_baseISB_EEEE, symObjAddr: 0x1F180, symBinAddr: 0x100022C8C, symSize: 0x20 }
  - { offsetInCU: 0x41C09, offset: 0x41C09, size: 0x8, addend: 0x0, symName: __ZNSt3__114__map_iteratorINS_15__tree_iteratorINS_12__value_typeINS_12basic_stringIcNS_11char_traitsIcEENS_9allocatorIcEEEE18ValidatorBoundsHitEEPNS_11__tree_nodeISA_PvEElEEEC2B8ue170006ESF_, symObjAddr: 0x1F1A0, symBinAddr: 0x100022CAC, symSize: 0x20 }
  - { offsetInCU: 0x41C42, offset: 0x41C42, size: 0x8, addend: 0x0, symName: __ZNSt3__16__treeINS_12__value_typeINS_12basic_stringIcNS_11char_traitsIcEENS_9allocatorIcEEEE18ValidatorBoundsHitEENS_19__map_value_compareIS7_S9_NS_4lessIS7_EELb1EEENS5_IS9_EEE3endB8ue170006Ev, symObjAddr: 0x1F224, symBinAddr: 0x100022D30, symSize: 0x34 }
  - { offsetInCU: 0x41C68, offset: 0x41C68, size: 0x8, addend: 0x0, symName: __ZNSt3__114pointer_traitsIPNS_4pairIKNS_12basic_stringIcNS_11char_traitsIcEENS_9allocatorIcEEEE18ValidatorBoundsHitEEE10pointer_toB8ue170006ERSA_, symObjAddr: 0x1F258, symBinAddr: 0x100022D64, symSize: 0x14 }
  - { offsetInCU: 0x41C8B, offset: 0x41C8B, size: 0x8, addend: 0x0, symName: __ZNKSt3__115__tree_iteratorINS_12__value_typeINS_12basic_stringIcNS_11char_traitsIcEENS_9allocatorIcEEEE18ValidatorBoundsHitEEPNS_11__tree_nodeIS9_PvEElEptB8ue170006Ev, symObjAddr: 0x1F26C, symBinAddr: 0x100022D78, symSize: 0x2C }
  - { offsetInCU: 0x41CB1, offset: 0x41CB1, size: 0x8, addend: 0x0, symName: __ZNSt3__114pointer_traitsIPNS_12__value_typeINS_12basic_stringIcNS_11char_traitsIcEENS_9allocatorIcEEEE18ValidatorBoundsHitEEE10pointer_toB8ue170006ERS9_, symObjAddr: 0x1F298, symBinAddr: 0x100022DA4, symSize: 0x14 }
  - { offsetInCU: 0x41CD4, offset: 0x41CD4, size: 0x8, addend: 0x0, symName: __ZNKSt3__115__tree_iteratorINS_12__value_typeINS_12basic_stringIcNS_11char_traitsIcEENS_9allocatorIcEEEE18ValidatorBoundsHitEEPNS_11__tree_nodeIS9_PvEElE8__get_npB8ue170006Ev, symObjAddr: 0x1F2AC, symBinAddr: 0x100022DB8, symSize: 0x18 }
  - { offsetInCU: 0x41CFA, offset: 0x41CFA, size: 0x8, addend: 0x0, symName: __ZNSt3__114__map_iteratorINS_15__tree_iteratorINS_12__value_typeINS_12basic_stringIcNS_11char_traitsIcEENS_9allocatorIcEEEE18ValidatorBoundsHitEEPNS_11__tree_nodeISA_PvEElEEEppB8ue170006Ev, symObjAddr: 0x1F2C4, symBinAddr: 0x100022DD0, symSize: 0x2C }
  - { offsetInCU: 0x41D20, offset: 0x41D20, size: 0x8, addend: 0x0, symName: __ZNSt3__115__tree_iteratorINS_12__value_typeINS_12basic_stringIcNS_11char_traitsIcEENS_9allocatorIcEEEE18ValidatorBoundsHitEEPNS_11__tree_nodeIS9_PvEElEppB8ue170006Ev, symObjAddr: 0x1F2F0, symBinAddr: 0x100022DFC, symSize: 0x38 }
  - { offsetInCU: 0x41D46, offset: 0x41D46, size: 0x8, addend: 0x0, symName: __ZNKSt3__116__tree_node_baseIPvE15__parent_unsafeB8ue170006Ev, symObjAddr: 0x1F438, symBinAddr: 0x100022F44, symSize: 0x18 }
  - { offsetInCU: 0x41D6C, offset: 0x41D6C, size: 0x8, addend: 0x0, symName: __ZNSt3__13setINS_12basic_stringIcNS_11char_traitsIcEENS_9allocatorIcEEEENS_4lessIS6_EENS4_IS6_EEE5beginB8ue170006Ev, symObjAddr: 0x1F450, symBinAddr: 0x100022F5C, symSize: 0x38 }
  - { offsetInCU: 0x41D92, offset: 0x41D92, size: 0x8, addend: 0x0, symName: __ZNSt3__13setINS_12basic_stringIcNS_11char_traitsIcEENS_9allocatorIcEEEENS_4lessIS6_EENS4_IS6_EEE3endB8ue170006Ev, symObjAddr: 0x1F4BC, symBinAddr: 0x100022FC8, symSize: 0x38 }
  - { offsetInCU: 0x41DB8, offset: 0x41DB8, size: 0x8, addend: 0x0, symName: __ZNKSt3__121__tree_const_iteratorINS_12basic_stringIcNS_11char_traitsIcEENS_9allocatorIcEEEEPNS_11__tree_nodeIS6_PvEElEdeB8ue170006Ev, symObjAddr: 0x1F4F4, symBinAddr: 0x100023000, symSize: 0x28 }
  - { offsetInCU: 0x41DDE, offset: 0x41DDE, size: 0x8, addend: 0x0, symName: __ZNKSt3__13setINS_12basic_stringIcNS_11char_traitsIcEENS_9allocatorIcEEEENS_4lessIS6_EENS4_IS6_EEE5countB8ue170006ERKS6_, symObjAddr: 0x1F51C, symBinAddr: 0x100023028, symSize: 0x2C }
  - { offsetInCU: 0x41E13, offset: 0x41E13, size: 0x8, addend: 0x0, symName: __ZNSt3__121__tree_const_iteratorINS_12basic_stringIcNS_11char_traitsIcEENS_9allocatorIcEEEEPNS_11__tree_nodeIS6_PvEElEppB8ue170006Ei, symObjAddr: 0x1F548, symBinAddr: 0x100023054, symSize: 0x34 }
  - { offsetInCU: 0x41E53, offset: 0x41E53, size: 0x8, addend: 0x0, symName: __ZNSt3__16__treeINS_12basic_stringIcNS_11char_traitsIcEENS_9allocatorIcEEEENS_4lessIS6_EENS4_IS6_EEE5beginB8ue170006Ev, symObjAddr: 0x1F57C, symBinAddr: 0x100023088, symSize: 0x34 }
  - { offsetInCU: 0x41E79, offset: 0x41E79, size: 0x8, addend: 0x0, symName: __ZNSt3__121__tree_const_iteratorINS_12basic_stringIcNS_11char_traitsIcEENS_9allocatorIcEEEEPNS_11__tree_nodeIS6_PvEElEC1B8ue170006ENS_15__tree_iteratorIS6_SA_lEE, symObjAddr: 0x1F5B0, symBinAddr: 0x1000230BC, symSize: 0x34 }
  - { offsetInCU: 0x41EB2, offset: 0x41EB2, size: 0x8, addend: 0x0, symName: __ZNSt3__115__tree_iteratorINS_12basic_stringIcNS_11char_traitsIcEENS_9allocatorIcEEEEPNS_11__tree_nodeIS6_PvEElEC1B8ue170006EPNS_15__tree_end_nodeIPNS_16__tree_node_baseIS8_EEEE, symObjAddr: 0x1F5E4, symBinAddr: 0x1000230F0, symSize: 0x34 }
  - { offsetInCU: 0x41EEB, offset: 0x41EEB, size: 0x8, addend: 0x0, symName: __ZNSt3__115__tree_iteratorINS_12basic_stringIcNS_11char_traitsIcEENS_9allocatorIcEEEEPNS_11__tree_nodeIS6_PvEElEC2B8ue170006EPNS_15__tree_end_nodeIPNS_16__tree_node_baseIS8_EEEE, symObjAddr: 0x1F618, symBinAddr: 0x100023124, symSize: 0x20 }
  - { offsetInCU: 0x41F24, offset: 0x41F24, size: 0x8, addend: 0x0, symName: __ZNSt3__121__tree_const_iteratorINS_12basic_stringIcNS_11char_traitsIcEENS_9allocatorIcEEEEPNS_11__tree_nodeIS6_PvEElEC2B8ue170006ENS_15__tree_iteratorIS6_SA_lEE, symObjAddr: 0x1F638, symBinAddr: 0x100023144, symSize: 0x20 }
  - { offsetInCU: 0x41F5D, offset: 0x41F5D, size: 0x8, addend: 0x0, symName: __ZNSt3__16__treeINS_12basic_stringIcNS_11char_traitsIcEENS_9allocatorIcEEEENS_4lessIS6_EENS4_IS6_EEE3endB8ue170006Ev, symObjAddr: 0x1F688, symBinAddr: 0x100023194, symSize: 0x34 }
  - { offsetInCU: 0x41F83, offset: 0x41F83, size: 0x8, addend: 0x0, symName: __ZNKSt3__121__tree_const_iteratorINS_12basic_stringIcNS_11char_traitsIcEENS_9allocatorIcEEEEPNS_11__tree_nodeIS6_PvEElE8__get_npB8ue170006Ev, symObjAddr: 0x1F6BC, symBinAddr: 0x1000231C8, symSize: 0x18 }
  - { offsetInCU: 0x41FA9, offset: 0x41FA9, size: 0x8, addend: 0x0, symName: __ZNKSt3__16__treeINS_12basic_stringIcNS_11char_traitsIcEENS_9allocatorIcEEEENS_4lessIS6_EENS4_IS6_EEE14__count_uniqueIS6_EEmRKT_, symObjAddr: 0x1F6D4, symBinAddr: 0x1000231E0, symSize: 0xC8 }
  - { offsetInCU: 0x41FF8, offset: 0x41FF8, size: 0x8, addend: 0x0, symName: __ZNKSt3__16__treeINS_12basic_stringIcNS_11char_traitsIcEENS_9allocatorIcEEEENS_4lessIS6_EENS4_IS6_EEE10value_compB8ue170006Ev, symObjAddr: 0x1F79C, symBinAddr: 0x1000232A8, symSize: 0x28 }
  - { offsetInCU: 0x4201E, offset: 0x4201E, size: 0x8, addend: 0x0, symName: __ZNKSt3__14lessINS_12basic_stringIcNS_11char_traitsIcEENS_9allocatorIcEEEEEclB8ue170006ERKS6_S9_, symObjAddr: 0x1F7C4, symBinAddr: 0x1000232D0, symSize: 0x34 }
  - { offsetInCU: 0x42062, offset: 0x42062, size: 0x8, addend: 0x0, symName: __ZNKSt3__117__compressed_pairImNS_4lessINS_12basic_stringIcNS_11char_traitsIcEENS_9allocatorIcEEEEEEE6secondB8ue170006Ev, symObjAddr: 0x1F7F8, symBinAddr: 0x100023304, symSize: 0x24 }
  - { offsetInCU: 0x42088, offset: 0x42088, size: 0x8, addend: 0x0, symName: __ZNKSt3__122__compressed_pair_elemINS_4lessINS_12basic_stringIcNS_11char_traitsIcEENS_9allocatorIcEEEEEELi1ELb1EE5__getB8ue170006Ev, symObjAddr: 0x1F81C, symBinAddr: 0x100023328, symSize: 0x14 }
  - { offsetInCU: 0x420AE, offset: 0x420AE, size: 0x8, addend: 0x0, symName: __ZNKSt3__112basic_stringIcNS_11char_traitsIcEENS_9allocatorIcEEE7compareB8ue170006ERKS5_, symObjAddr: 0x1F868, symBinAddr: 0x100023374, symSize: 0x4C }
  - { offsetInCU: 0x420E5, offset: 0x420E5, size: 0x8, addend: 0x0, symName: __ZNKSt3__112basic_stringIcNS_11char_traitsIcEENS_9allocatorIcEEE7compareINS_17basic_string_viewIcS2_EELi0EEEiRKT_, symObjAddr: 0x1F8B4, symBinAddr: 0x1000233C0, symSize: 0x140 }
  - { offsetInCU: 0x42168, offset: 0x42168, size: 0x8, addend: 0x0, symName: __ZNKSt3__112basic_stringIcNS_11char_traitsIcEENS_9allocatorIcEEEcvNS_17basic_string_viewIcS2_EEB8ue170006Ev, symObjAddr: 0x1F9F4, symBinAddr: 0x100023500, symSize: 0x50 }
  - { offsetInCU: 0x4218E, offset: 0x4218E, size: 0x8, addend: 0x0, symName: __ZNKSt3__117basic_string_viewIcNS_11char_traitsIcEEE4sizeB8ue170006Ev, symObjAddr: 0x1FA44, symBinAddr: 0x100023550, symSize: 0x18 }
  - { offsetInCU: 0x421B4, offset: 0x421B4, size: 0x8, addend: 0x0, symName: __ZNSt3__111char_traitsIcE7compareB8ue170006EPKcS3_m, symObjAddr: 0x1FA5C, symBinAddr: 0x100023568, symSize: 0x64 }
  - { offsetInCU: 0x421F3, offset: 0x421F3, size: 0x8, addend: 0x0, symName: __ZNKSt3__112basic_stringIcNS_11char_traitsIcEENS_9allocatorIcEEE4dataB8ue170006Ev, symObjAddr: 0x1FAC0, symBinAddr: 0x1000235CC, symSize: 0x28 }
  - { offsetInCU: 0x42219, offset: 0x42219, size: 0x8, addend: 0x0, symName: __ZNKSt3__117basic_string_viewIcNS_11char_traitsIcEEE4dataB8ue170006Ev, symObjAddr: 0x1FAE8, symBinAddr: 0x1000235F4, symSize: 0x18 }
  - { offsetInCU: 0x4223F, offset: 0x4223F, size: 0x8, addend: 0x0, symName: __ZNKSt3__112basic_stringIcNS_11char_traitsIcEENS_9allocatorIcEEE13__get_pointerB8ue170006Ev, symObjAddr: 0x1FB14, symBinAddr: 0x100023620, symSize: 0x54 }
  - { offsetInCU: 0x42265, offset: 0x42265, size: 0x8, addend: 0x0, symName: __ZNKSt3__112basic_stringIcNS_11char_traitsIcEENS_9allocatorIcEEE9__is_longB8ue170006Ev, symObjAddr: 0x1FB68, symBinAddr: 0x100023674, symSize: 0x74 }
  - { offsetInCU: 0x4228B, offset: 0x4228B, size: 0x8, addend: 0x0, symName: __ZNKSt3__112basic_stringIcNS_11char_traitsIcEENS_9allocatorIcEEE18__get_long_pointerB8ue170006Ev, symObjAddr: 0x1FBDC, symBinAddr: 0x1000236E8, symSize: 0x28 }
  - { offsetInCU: 0x422B1, offset: 0x422B1, size: 0x8, addend: 0x0, symName: __ZNKSt3__112basic_stringIcNS_11char_traitsIcEENS_9allocatorIcEEE19__get_short_pointerB8ue170006Ev, symObjAddr: 0x1FC04, symBinAddr: 0x100023710, symSize: 0x28 }
  - { offsetInCU: 0x422D7, offset: 0x422D7, size: 0x8, addend: 0x0, symName: __ZNKSt3__117__compressed_pairINS_12basic_stringIcNS_11char_traitsIcEENS_9allocatorIcEEE5__repES5_E5firstB8ue170006Ev, symObjAddr: 0x1FC2C, symBinAddr: 0x100023738, symSize: 0x24 }
  - { offsetInCU: 0x422FD, offset: 0x422FD, size: 0x8, addend: 0x0, symName: __ZNKSt3__122__compressed_pair_elemINS_12basic_stringIcNS_11char_traitsIcEENS_9allocatorIcEEE5__repELi0ELb0EE5__getB8ue170006Ev, symObjAddr: 0x1FC50, symBinAddr: 0x10002375C, symSize: 0x14 }
  - { offsetInCU: 0x42323, offset: 0x42323, size: 0x8, addend: 0x0, symName: __ZNSt3__114pointer_traitsIPKcE10pointer_toB8ue170006ERS1_, symObjAddr: 0x1FC64, symBinAddr: 0x100023770, symSize: 0x14 }
  - { offsetInCU: 0x42346, offset: 0x42346, size: 0x8, addend: 0x0, symName: __ZNSt3__117basic_string_viewIcNS_11char_traitsIcEEEC1B8ue170006EPKcm, symObjAddr: 0x1FC78, symBinAddr: 0x100023784, symSize: 0x3C }
  - { offsetInCU: 0x4238E, offset: 0x4238E, size: 0x8, addend: 0x0, symName: __ZNSt3__117basic_string_viewIcNS_11char_traitsIcEEEC2B8ue170006EPKcm, symObjAddr: 0x1FCB4, symBinAddr: 0x1000237C0, symSize: 0x2C }
  - { offsetInCU: 0x423D6, offset: 0x423D6, size: 0x8, addend: 0x0, symName: __ZNSt3__121__tree_const_iteratorINS_12basic_stringIcNS_11char_traitsIcEENS_9allocatorIcEEEEPNS_11__tree_nodeIS6_PvEElEppB8ue170006Ev, symObjAddr: 0x1FCE0, symBinAddr: 0x1000237EC, symSize: 0x38 }
  - { offsetInCU: 0x423FC, offset: 0x423FC, size: 0x8, addend: 0x0, symName: __ZNSt3__113basic_fstreamIcNS_11char_traitsIcEEED2Ev, symObjAddr: 0x1FD18, symBinAddr: 0x100023824, symSize: 0xA4 }
  - { offsetInCU: 0x42435, offset: 0x42435, size: 0x8, addend: 0x0, symName: __ZThn16_NSt3__113basic_fstreamIcNS_11char_traitsIcEEED1Ev, symObjAddr: 0x1FDBC, symBinAddr: 0x1000238C8, symSize: 0x1C }
  - { offsetInCU: 0x4244B, offset: 0x4244B, size: 0x8, addend: 0x0, symName: __ZTv0_n24_NSt3__113basic_fstreamIcNS_11char_traitsIcEEED1Ev, symObjAddr: 0x1FDD8, symBinAddr: 0x1000238E4, symSize: 0x28 }
  - { offsetInCU: 0x42461, offset: 0x42461, size: 0x8, addend: 0x0, symName: __ZNSt3__113basic_fstreamIcNS_11char_traitsIcEEED0Ev, symObjAddr: 0x1FE00, symBinAddr: 0x10002390C, symSize: 0x58 }
  - { offsetInCU: 0x4248D, offset: 0x4248D, size: 0x8, addend: 0x0, symName: __ZThn16_NSt3__113basic_fstreamIcNS_11char_traitsIcEEED0Ev, symObjAddr: 0x1FE58, symBinAddr: 0x100023964, symSize: 0x18 }
  - { offsetInCU: 0x424A3, offset: 0x424A3, size: 0x8, addend: 0x0, symName: __ZTv0_n24_NSt3__113basic_fstreamIcNS_11char_traitsIcEEED0Ev, symObjAddr: 0x1FE70, symBinAddr: 0x10002397C, symSize: 0x20 }
  - { offsetInCU: 0x424B9, offset: 0x424B9, size: 0x8, addend: 0x0, symName: __ZN23StringInputStreamReaderC2ERKNSt3__112basic_stringIcNS0_11char_traitsIcEENS0_9allocatorIcEEEE, symObjAddr: 0x1FE90, symBinAddr: 0x10002399C, symSize: 0x84 }
  - { offsetInCU: 0x424F2, offset: 0x424F2, size: 0x8, addend: 0x0, symName: __ZN17InputStreamReaderC2Ev, symObjAddr: 0x1FF14, symBinAddr: 0x100023A20, symSize: 0x24 }
  - { offsetInCU: 0x4251F, offset: 0x4251F, size: 0x8, addend: 0x0, symName: __ZN23StringInputStreamReader7curCharEv, symObjAddr: 0x1FF38, symBinAddr: 0x100023A44, symSize: 0x74 }
  - { offsetInCU: 0x42545, offset: 0x42545, size: 0x8, addend: 0x0, symName: __ZN23StringInputStreamReader8nextCharEv, symObjAddr: 0x1FFAC, symBinAddr: 0x100023AB8, symSize: 0x8C }
  - { offsetInCU: 0x4256B, offset: 0x4256B, size: 0x8, addend: 0x0, symName: __ZN23StringInputStreamReader8skipCharEv, symObjAddr: 0x20038, symBinAddr: 0x100023B44, symSize: 0x20 }
  - { offsetInCU: 0x42591, offset: 0x42591, size: 0x8, addend: 0x0, symName: __ZN23StringInputStreamReader10unreadCharEi, symObjAddr: 0x20058, symBinAddr: 0x100023B64, symSize: 0xE0 }
  - { offsetInCU: 0x425C6, offset: 0x425C6, size: 0x8, addend: 0x0, symName: __ZN23StringInputStreamReader7getNameEv, symObjAddr: 0x20138, symBinAddr: 0x100023C44, symSize: 0x30 }
  - { offsetInCU: 0x425EC, offset: 0x425EC, size: 0x8, addend: 0x0, symName: __ZN23StringInputStreamReader3eofEv, symObjAddr: 0x20168, symBinAddr: 0x100023C74, symSize: 0x40 }
  - { offsetInCU: 0x42612, offset: 0x42612, size: 0x8, addend: 0x0, symName: __ZN23StringInputStreamReader5closeEv, symObjAddr: 0x201A8, symBinAddr: 0x100023CB4, symSize: 0x10 }
  - { offsetInCU: 0x42638, offset: 0x42638, size: 0x8, addend: 0x0, symName: __ZN23StringInputStreamReader7getLineEv, symObjAddr: 0x201B8, symBinAddr: 0x100023CC4, symSize: 0x14 }
  - { offsetInCU: 0x4265E, offset: 0x4265E, size: 0x8, addend: 0x0, symName: __ZN23StringInputStreamReaderD1Ev, symObjAddr: 0x201CC, symBinAddr: 0x100023CD8, symSize: 0x2C }
  - { offsetInCU: 0x4268B, offset: 0x4268B, size: 0x8, addend: 0x0, symName: __ZN23StringInputStreamReaderD0Ev, symObjAddr: 0x201F8, symBinAddr: 0x100023D04, symSize: 0x58 }
  - { offsetInCU: 0x426B8, offset: 0x426B8, size: 0x8, addend: 0x0, symName: __ZN23StringInputStreamReaderD2Ev, symObjAddr: 0x20250, symBinAddr: 0x100023D5C, symSize: 0x70 }
  - { offsetInCU: 0x426E5, offset: 0x426E5, size: 0x8, addend: 0x0, symName: __ZNSt3__116allocator_traitsINS_9allocatorIcEEE37select_on_container_copy_constructionB8ue170006IS2_vvEES2_RKS2_, symObjAddr: 0x203D0, symBinAddr: 0x100023EDC, symSize: 0x10 }
  - { offsetInCU: 0x42714, offset: 0x42714, size: 0x8, addend: 0x0, symName: __ZNKSt3__112basic_stringIcNS_11char_traitsIcEENS_9allocatorIcEEE13get_allocatorB8ue170006Ev, symObjAddr: 0x203E0, symBinAddr: 0x100023EEC, symSize: 0x24 }
  - { offsetInCU: 0x4273A, offset: 0x4273A, size: 0x8, addend: 0x0, symName: __ZNSt3__112basic_stringIcNS_11char_traitsIcEENS_9allocatorIcEEEC1B8ue170006ENS_24__uninitialized_size_tagEmRKS4_, symObjAddr: 0x20404, symBinAddr: 0x100023F10, symSize: 0x3C }
  - { offsetInCU: 0x4278D, offset: 0x4278D, size: 0x8, addend: 0x0, symName: __ZNSt3__112basic_stringIcNS_11char_traitsIcEENS_9allocatorIcEEE13__get_pointerB8ue170006Ev, symObjAddr: 0x20440, symBinAddr: 0x100023F4C, symSize: 0x54 }
  - { offsetInCU: 0x427B3, offset: 0x427B3, size: 0x8, addend: 0x0, symName: __ZNSt3__111char_traitsIcE4copyB8ue170006EPcPKcm, symObjAddr: 0x20494, symBinAddr: 0x100023FA0, symSize: 0x64 }
  - { offsetInCU: 0x427F2, offset: 0x427F2, size: 0x8, addend: 0x0, symName: __ZNSt3__111char_traitsIcE6assignB8ue170006EPcmc, symObjAddr: 0x204F8, symBinAddr: 0x100024004, symSize: 0x58 }
  - { offsetInCU: 0x42831, offset: 0x42831, size: 0x8, addend: 0x0, symName: __ZNKSt3__112basic_stringIcNS_11char_traitsIcEENS_9allocatorIcEEE7__allocB8ue170006Ev, symObjAddr: 0x20550, symBinAddr: 0x10002405C, symSize: 0x24 }
  - { offsetInCU: 0x42857, offset: 0x42857, size: 0x8, addend: 0x0, symName: __ZNKSt3__117__compressed_pairINS_12basic_stringIcNS_11char_traitsIcEENS_9allocatorIcEEE5__repES5_E6secondB8ue170006Ev, symObjAddr: 0x20574, symBinAddr: 0x100024080, symSize: 0x24 }
  - { offsetInCU: 0x4287D, offset: 0x4287D, size: 0x8, addend: 0x0, symName: __ZNSt3__112basic_stringIcNS_11char_traitsIcEENS_9allocatorIcEEEC2B8ue170006ENS_24__uninitialized_size_tagEmRKS4_, symObjAddr: 0x20598, symBinAddr: 0x1000240A4, symSize: 0x110 }
  - { offsetInCU: 0x42902, offset: 0x42902, size: 0x8, addend: 0x0, symName: __ZNSt3__117__compressed_pairINS_12basic_stringIcNS_11char_traitsIcEENS_9allocatorIcEEE5__repES5_EC1B8ue170006INS_18__default_init_tagERKS5_EEOT_OT0_, symObjAddr: 0x206A8, symBinAddr: 0x1000241B4, symSize: 0x3C }
  - { offsetInCU: 0x4295A, offset: 0x4295A, size: 0x8, addend: 0x0, symName: __ZNKSt3__112basic_stringIcNS_11char_traitsIcEENS_9allocatorIcEEE8max_sizeB8ue170006Ev, symObjAddr: 0x206E4, symBinAddr: 0x1000241F0, symSize: 0xAC }
  - { offsetInCU: 0x429AC, offset: 0x429AC, size: 0x8, addend: 0x0, symName: __ZNKSt3__112basic_stringIcNS_11char_traitsIcEENS_9allocatorIcEEE20__throw_length_errorB8ue170006Ev, symObjAddr: 0x20790, symBinAddr: 0x10002429C, symSize: 0x1C }
  - { offsetInCU: 0x429D2, offset: 0x429D2, size: 0x8, addend: 0x0, symName: __ZNSt3__112basic_stringIcNS_11char_traitsIcEENS_9allocatorIcEEE13__fits_in_ssoB8ue170006Em, symObjAddr: 0x207AC, symBinAddr: 0x1000242B8, symSize: 0x4C }
  - { offsetInCU: 0x429F6, offset: 0x429F6, size: 0x8, addend: 0x0, symName: __ZNSt3__117__compressed_pairINS_12basic_stringIcNS_11char_traitsIcEENS_9allocatorIcEEE5__repES5_E5firstB8ue170006Ev, symObjAddr: 0x207F8, symBinAddr: 0x100024304, symSize: 0x24 }
  - { offsetInCU: 0x42A1C, offset: 0x42A1C, size: 0x8, addend: 0x0, symName: __ZNSt3__112basic_stringIcNS_11char_traitsIcEENS_9allocatorIcEEE16__set_short_sizeB8ue170006Em, symObjAddr: 0x2081C, symBinAddr: 0x100024328, symSize: 0x78 }
  - { offsetInCU: 0x42A51, offset: 0x42A51, size: 0x8, addend: 0x0, symName: __ZNSt3__112basic_stringIcNS_11char_traitsIcEENS_9allocatorIcEEE11__recommendB8ue170006Em, symObjAddr: 0x20894, symBinAddr: 0x1000243A0, symSize: 0x9C }
  - { offsetInCU: 0x42A84, offset: 0x42A84, size: 0x8, addend: 0x0, symName: __ZNSt3__116allocator_traitsINS_9allocatorIcEEE8allocateB8ue170006ERS2_m, symObjAddr: 0x20930, symBinAddr: 0x10002443C, symSize: 0x2C }
  - { offsetInCU: 0x42AB7, offset: 0x42AB7, size: 0x8, addend: 0x0, symName: __ZNSt3__112basic_stringIcNS_11char_traitsIcEENS_9allocatorIcEEE7__allocB8ue170006Ev, symObjAddr: 0x2095C, symBinAddr: 0x100024468, symSize: 0x24 }
  - { offsetInCU: 0x42ADD, offset: 0x42ADD, size: 0x8, addend: 0x0, symName: __ZNSt3__112basic_stringIcNS_11char_traitsIcEENS_9allocatorIcEEE16__begin_lifetimeB8ue170006EPcm, symObjAddr: 0x20980, symBinAddr: 0x10002448C, symSize: 0x14 }
  - { offsetInCU: 0x42B10, offset: 0x42B10, size: 0x8, addend: 0x0, symName: __ZNSt3__112basic_stringIcNS_11char_traitsIcEENS_9allocatorIcEEE14__set_long_capB8ue170006Em, symObjAddr: 0x20994, symBinAddr: 0x1000244A0, symSize: 0x70 }
  - { offsetInCU: 0x42B45, offset: 0x42B45, size: 0x8, addend: 0x0, symName: __ZNSt3__112basic_stringIcNS_11char_traitsIcEENS_9allocatorIcEEE18__set_long_pointerB8ue170006EPc, symObjAddr: 0x20A04, symBinAddr: 0x100024510, symSize: 0x38 }
  - { offsetInCU: 0x42B7A, offset: 0x42B7A, size: 0x8, addend: 0x0, symName: __ZNSt3__112basic_stringIcNS_11char_traitsIcEENS_9allocatorIcEEE15__set_long_sizeB8ue170006Em, symObjAddr: 0x20A3C, symBinAddr: 0x100024548, symSize: 0x38 }
  - { offsetInCU: 0x42BAF, offset: 0x42BAF, size: 0x8, addend: 0x0, symName: __ZNSt3__117__compressed_pairINS_12basic_stringIcNS_11char_traitsIcEENS_9allocatorIcEEE5__repES5_EC2B8ue170006INS_18__default_init_tagERKS5_EEOT_OT0_, symObjAddr: 0x20A74, symBinAddr: 0x100024580, symSize: 0x40 }
  - { offsetInCU: 0x42C07, offset: 0x42C07, size: 0x8, addend: 0x0, symName: __ZNSt3__122__compressed_pair_elemINS_12basic_stringIcNS_11char_traitsIcEENS_9allocatorIcEEE5__repELi0ELb0EEC2B8ue170006ENS_18__default_init_tagE, symObjAddr: 0x20AB4, symBinAddr: 0x1000245C0, symSize: 0x14 }
  - { offsetInCU: 0x42C3B, offset: 0x42C3B, size: 0x8, addend: 0x0, symName: __ZNSt3__122__compressed_pair_elemINS_9allocatorIcEELi1ELb1EEC2B8ue170006IRKS2_vEEOT_, symObjAddr: 0x20AC8, symBinAddr: 0x1000245D4, symSize: 0x18 }
  - { offsetInCU: 0x42C7D, offset: 0x42C7D, size: 0x8, addend: 0x0, symName: __ZNSt3__114numeric_limitsImE3maxB8ue170006Ev, symObjAddr: 0x20AE0, symBinAddr: 0x1000245EC, symSize: 0x14 }
  - { offsetInCU: 0x42C91, offset: 0x42C91, size: 0x8, addend: 0x0, symName: __ZNSt3__123__libcpp_numeric_limitsImLb1EE3maxB8ue170006Ev, symObjAddr: 0x20AF4, symBinAddr: 0x100024600, symSize: 0x8 }
  - { offsetInCU: 0x42CA5, offset: 0x42CA5, size: 0x8, addend: 0x0, symName: __ZNSt3__122__compressed_pair_elemINS_12basic_stringIcNS_11char_traitsIcEENS_9allocatorIcEEE5__repELi0ELb0EE5__getB8ue170006Ev, symObjAddr: 0x20AFC, symBinAddr: 0x100024608, symSize: 0x14 }
  - { offsetInCU: 0x42CCB, offset: 0x42CCB, size: 0x8, addend: 0x0, symName: __ZNSt3__112basic_stringIcNS_11char_traitsIcEENS_9allocatorIcEEE10__align_itB8ue170006ILm16EEEmm, symObjAddr: 0x20B10, symBinAddr: 0x10002461C, symSize: 0x1C }
  - { offsetInCU: 0x42CF9, offset: 0x42CF9, size: 0x8, addend: 0x0, symName: __ZNSt3__117__compressed_pairINS_12basic_stringIcNS_11char_traitsIcEENS_9allocatorIcEEE5__repES5_E6secondB8ue170006Ev, symObjAddr: 0x20B2C, symBinAddr: 0x100024638, symSize: 0x24 }
  - { offsetInCU: 0x42D1F, offset: 0x42D1F, size: 0x8, addend: 0x0, symName: __ZNSt3__112basic_stringIcNS_11char_traitsIcEENS_9allocatorIcEEE18__get_long_pointerB8ue170006Ev, symObjAddr: 0x20B50, symBinAddr: 0x10002465C, symSize: 0x28 }
  - { offsetInCU: 0x42D45, offset: 0x42D45, size: 0x8, addend: 0x0, symName: __ZNSt3__112basic_stringIcNS_11char_traitsIcEENS_9allocatorIcEEE19__get_short_pointerB8ue170006Ev, symObjAddr: 0x20B78, symBinAddr: 0x100024684, symSize: 0x28 }
  - { offsetInCU: 0x42D6B, offset: 0x42D6B, size: 0x8, addend: 0x0, symName: __ZNSt3__114pointer_traitsIPcE10pointer_toB8ue170006ERc, symObjAddr: 0x20BA0, symBinAddr: 0x1000246AC, symSize: 0x14 }
  - { offsetInCU: 0x42DB0, offset: 0x42DB0, size: 0x8, addend: 0x0, symName: __ZNKSt3__114__copy_trivialclB8ue170006IKccLi0EEENS_4pairIPT_PT0_EES5_S5_S7_, symObjAddr: 0x20DD4, symBinAddr: 0x1000248E0, symSize: 0x48 }
  - { offsetInCU: 0x42E34, offset: 0x42E34, size: 0x8, addend: 0x0, symName: __ZNSt3__14pairIPKcS2_EC1B8ue170006ERKS2_S5_, symObjAddr: 0x20EDC, symBinAddr: 0x1000249E8, symSize: 0x3C }
  - { offsetInCU: 0x42E7A, offset: 0x42E7A, size: 0x8, addend: 0x0, symName: __ZNSt3__14pairIPKcS2_EC2B8ue170006ERKS2_S5_, symObjAddr: 0x20F18, symBinAddr: 0x100024A24, symSize: 0x34 }
  - { offsetInCU: 0x42EC0, offset: 0x42EC0, size: 0x8, addend: 0x0, symName: __ZNSt3__118__unwrap_iter_implIPKcLb1EE8__unwrapB8ue170006ES2_, symObjAddr: 0x20F4C, symBinAddr: 0x100024A58, symSize: 0x24 }
  - { offsetInCU: 0x42EE3, offset: 0x42EE3, size: 0x8, addend: 0x0, symName: __ZNSt3__14pairIPKcPcEC1B8ue170006ERKS2_RKS3_, symObjAddr: 0x210C0, symBinAddr: 0x100024BCC, symSize: 0x3C }
  - { offsetInCU: 0x42F29, offset: 0x42F29, size: 0x8, addend: 0x0, symName: __ZNSt3__14pairIPKcPcEC2B8ue170006ERKS2_RKS3_, symObjAddr: 0x210FC, symBinAddr: 0x100024C08, symSize: 0x34 }
  - { offsetInCU: 0x42F6F, offset: 0x42F6F, size: 0x8, addend: 0x0, symName: __ZNSt3__118__unwrap_iter_implIPKcLb1EE8__rewrapB8ue170006ES2_S2_, symObjAddr: 0x21180, symBinAddr: 0x100024C8C, symSize: 0x48 }
  - { offsetInCU: 0x42FA0, offset: 0x42FA0, size: 0x8, addend: 0x0, symName: __ZN21FileInputStreamReaderC2EP7__sFILERKNSt3__112basic_stringIcNS2_11char_traitsIcEENS2_9allocatorIcEEEE, symObjAddr: 0x21284, symBinAddr: 0x100024D90, symSize: 0xCC }
  - { offsetInCU: 0x42FE8, offset: 0x42FE8, size: 0x8, addend: 0x0, symName: __ZN21FileInputStreamReader7curCharEv, symObjAddr: 0x21350, symBinAddr: 0x100024E5C, symSize: 0x80 }
  - { offsetInCU: 0x4302B, offset: 0x4302B, size: 0x8, addend: 0x0, symName: __ZN21FileInputStreamReader8nextCharEv, symObjAddr: 0x213D0, symBinAddr: 0x100024EDC, symSize: 0x6C }
  - { offsetInCU: 0x43051, offset: 0x43051, size: 0x8, addend: 0x0, symName: __ZN21FileInputStreamReader8skipCharEv, symObjAddr: 0x2143C, symBinAddr: 0x100024F48, symSize: 0x28 }
  - { offsetInCU: 0x43077, offset: 0x43077, size: 0x8, addend: 0x0, symName: __ZN21FileInputStreamReader10unreadCharEi, symObjAddr: 0x21464, symBinAddr: 0x100024F70, symSize: 0x2C }
  - { offsetInCU: 0x430AC, offset: 0x430AC, size: 0x8, addend: 0x0, symName: __ZN21FileInputStreamReader7getNameEv, symObjAddr: 0x21490, symBinAddr: 0x100024F9C, symSize: 0x3C }
  - { offsetInCU: 0x430D2, offset: 0x430D2, size: 0x8, addend: 0x0, symName: __ZN21FileInputStreamReader3eofEv, symObjAddr: 0x214CC, symBinAddr: 0x100024FD8, symSize: 0x108 }
  - { offsetInCU: 0x43115, offset: 0x43115, size: 0x8, addend: 0x0, symName: __ZN21FileInputStreamReader5closeEv, symObjAddr: 0x215D4, symBinAddr: 0x1000250E0, symSize: 0x54 }
  - { offsetInCU: 0x4313B, offset: 0x4313B, size: 0x8, addend: 0x0, symName: __ZN21FileInputStreamReader7getLineEv, symObjAddr: 0x21628, symBinAddr: 0x100025134, symSize: 0x18 }
  - { offsetInCU: 0x43161, offset: 0x43161, size: 0x8, addend: 0x0, symName: __ZN21FileInputStreamReaderD1Ev, symObjAddr: 0x21640, symBinAddr: 0x10002514C, symSize: 0x2C }
  - { offsetInCU: 0x4318E, offset: 0x4318E, size: 0x8, addend: 0x0, symName: __ZN21FileInputStreamReaderD0Ev, symObjAddr: 0x2166C, symBinAddr: 0x100025178, symSize: 0x58 }
  - { offsetInCU: 0x431BB, offset: 0x431BB, size: 0x8, addend: 0x0, symName: __ZN21FileInputStreamReader4getcEP7__sFILE, symObjAddr: 0x216C4, symBinAddr: 0x1000251D0, symSize: 0x98 }
  - { offsetInCU: 0x431FF, offset: 0x431FF, size: 0x8, addend: 0x0, symName: __ZN21FileInputStreamReader6ungetcEi, symObjAddr: 0x2175C, symBinAddr: 0x100025268, symSize: 0x64 }
  - { offsetInCU: 0x43234, offset: 0x43234, size: 0x8, addend: 0x0, symName: __ZN21FileInputStreamReader15postprocessGetcEi, symObjAddr: 0x217C0, symBinAddr: 0x1000252CC, symSize: 0x44 }
  - { offsetInCU: 0x43269, offset: 0x43269, size: 0x8, addend: 0x0, symName: __ZNKSt3__16vectorIiNS_9allocatorIiEEE5emptyB8ue170006Ev, symObjAddr: 0x21804, symBinAddr: 0x100025310, symSize: 0x28 }
  - { offsetInCU: 0x4328F, offset: 0x4328F, size: 0x8, addend: 0x0, symName: __ZNSt3__16vectorIiNS_9allocatorIiEEE4backB8ue170006Ev, symObjAddr: 0x2182C, symBinAddr: 0x100025338, symSize: 0x1C }
  - { offsetInCU: 0x432B5, offset: 0x432B5, size: 0x8, addend: 0x0, symName: __ZNSt3__16vectorIiNS_9allocatorIiEEE8pop_backEv, symObjAddr: 0x21848, symBinAddr: 0x100025354, symSize: 0x2C }
  - { offsetInCU: 0x432DD, offset: 0x432DD, size: 0x8, addend: 0x0, symName: __ZNSt3__16vectorIiNS_9allocatorIiEEE17__destruct_at_endB8ue170006EPi, symObjAddr: 0x21874, symBinAddr: 0x100025380, symSize: 0x4C }
  - { offsetInCU: 0x43321, offset: 0x43321, size: 0x8, addend: 0x0, symName: __ZNSt3__16vectorIiNS_9allocatorIiEEE22__base_destruct_at_endB8ue170006EPi, symObjAddr: 0x218C0, symBinAddr: 0x1000253CC, symSize: 0xA0 }
  - { offsetInCU: 0x43365, offset: 0x43365, size: 0x8, addend: 0x0, symName: __ZNKSt3__16vectorIiNS_9allocatorIiEEE17__annotate_shrinkB8ue170006Em, symObjAddr: 0x21960, symBinAddr: 0x10002546C, symSize: 0xB4 }
  - { offsetInCU: 0x4339A, offset: 0x4339A, size: 0x8, addend: 0x0, symName: __ZN21FileInputStreamReaderD2Ev, symObjAddr: 0x21A14, symBinAddr: 0x100025520, symSize: 0xA4 }
  - { offsetInCU: 0x433C7, offset: 0x433C7, size: 0x8, addend: 0x0, symName: __ZN29BufferedFileInputStreamReaderC2EP7__sFILERKNSt3__112basic_stringIcNS2_11char_traitsIcEENS2_9allocatorIcEEEE, symObjAddr: 0x21AB8, symBinAddr: 0x1000255C4, symSize: 0x114 }
  - { offsetInCU: 0x4340F, offset: 0x4340F, size: 0x8, addend: 0x0, symName: __ZN29BufferedFileInputStreamReader7curCharEv, symObjAddr: 0x21BCC, symBinAddr: 0x1000256D8, symSize: 0x8C }
  - { offsetInCU: 0x43435, offset: 0x43435, size: 0x8, addend: 0x0, symName: __ZN29BufferedFileInputStreamReader8nextCharEv, symObjAddr: 0x21C58, symBinAddr: 0x100025764, symSize: 0x88 }
  - { offsetInCU: 0x4345B, offset: 0x4345B, size: 0x8, addend: 0x0, symName: __ZN29BufferedFileInputStreamReader8skipCharEv, symObjAddr: 0x21CE0, symBinAddr: 0x1000257EC, symSize: 0x24 }
  - { offsetInCU: 0x43481, offset: 0x43481, size: 0x8, addend: 0x0, symName: __ZN29BufferedFileInputStreamReader10unreadCharEi, symObjAddr: 0x21D04, symBinAddr: 0x100025810, symSize: 0xF0 }
  - { offsetInCU: 0x434B6, offset: 0x434B6, size: 0x8, addend: 0x0, symName: __ZN29BufferedFileInputStreamReader7getNameEv, symObjAddr: 0x21DF4, symBinAddr: 0x100025900, symSize: 0x3C }
  - { offsetInCU: 0x434DC, offset: 0x434DC, size: 0x8, addend: 0x0, symName: __ZN29BufferedFileInputStreamReader3eofEv, symObjAddr: 0x21E30, symBinAddr: 0x10002593C, symSize: 0x64 }
  - { offsetInCU: 0x43502, offset: 0x43502, size: 0x8, addend: 0x0, symName: __ZN29BufferedFileInputStreamReader5closeEv, symObjAddr: 0x21E94, symBinAddr: 0x1000259A0, symSize: 0x54 }
  - { offsetInCU: 0x43528, offset: 0x43528, size: 0x8, addend: 0x0, symName: __ZN29BufferedFileInputStreamReader7getLineEv, symObjAddr: 0x21EE8, symBinAddr: 0x1000259F4, symSize: 0x18 }
  - { offsetInCU: 0x4354E, offset: 0x4354E, size: 0x8, addend: 0x0, symName: __ZN29BufferedFileInputStreamReaderD1Ev, symObjAddr: 0x21F00, symBinAddr: 0x100025A0C, symSize: 0x2C }
  - { offsetInCU: 0x43578, offset: 0x43578, size: 0x8, addend: 0x0, symName: __ZN29BufferedFileInputStreamReaderD0Ev, symObjAddr: 0x21F2C, symBinAddr: 0x100025A38, symSize: 0x58 }
  - { offsetInCU: 0x435A2, offset: 0x435A2, size: 0x8, addend: 0x0, symName: __ZN29BufferedFileInputStreamReader6refillEv, symObjAddr: 0x21F84, symBinAddr: 0x100025A90, symSize: 0x2AC }
  - { offsetInCU: 0x435E6, offset: 0x435E6, size: 0x8, addend: 0x0, symName: __ZN29BufferedFileInputStreamReader9incrementEv, symObjAddr: 0x22230, symBinAddr: 0x100025D3C, symSize: 0x5C }
  - { offsetInCU: 0x4361B, offset: 0x4361B, size: 0x8, addend: 0x0, symName: __ZN29BufferedFileInputStreamReaderD2Ev, symObjAddr: 0x2228C, symBinAddr: 0x100025D98, symSize: 0x118 }
  - { offsetInCU: 0x43645, offset: 0x43645, size: 0x8, addend: 0x0, symName: __ZNSt3__114basic_ifstreamIcNS_11char_traitsIcEEED2Ev, symObjAddr: 0x223A4, symBinAddr: 0x100025EB0, symSize: 0x9C }
  - { offsetInCU: 0x4367F, offset: 0x4367F, size: 0x8, addend: 0x0, symName: __ZTv0_n24_NSt3__114basic_ifstreamIcNS_11char_traitsIcEEED1Ev, symObjAddr: 0x22440, symBinAddr: 0x100025F4C, symSize: 0x28 }
  - { offsetInCU: 0x43696, offset: 0x43696, size: 0x8, addend: 0x0, symName: __ZL6equalsxPKc, symObjAddr: 0x22468, symBinAddr: 0x100025F74, symSize: 0x228 }
  - { offsetInCU: 0x43700, offset: 0x43700, size: 0x8, addend: 0x0, symName: __ZL6equalsyPKc, symObjAddr: 0x22690, symBinAddr: 0x10002619C, symSize: 0x17C }
  - { offsetInCU: 0x4376A, offset: 0x4376A, size: 0x8, addend: 0x0, symName: __ZN9Validator30isVariableNameBoundsAnalyzableERKNSt3__112basic_stringIcNS0_11char_traitsIcEENS0_9allocatorIcEEEE, symObjAddr: 0x2280C, symBinAddr: 0x100026318, symSize: 0xF0 }
  - { offsetInCU: 0x437BC, offset: 0x437BC, size: 0x8, addend: 0x0, symName: __ZN18ValidatorBoundsHit5mergeERKS_, symObjAddr: 0x228FC, symBinAddr: 0x100026408, symSize: 0x64 }
  - { offsetInCU: 0x437F1, offset: 0x437F1, size: 0x8, addend: 0x0, symName: __ZNSt3__13mapINS_12basic_stringIcNS_11char_traitsIcEENS_9allocatorIcEEEE18ValidatorBoundsHitNS_4lessIS6_EENS4_INS_4pairIKS6_S7_EEEEEixERSB_, symObjAddr: 0x22960, symBinAddr: 0x10002646C, symSize: 0xC8 }
  - { offsetInCU: 0x4386A, offset: 0x4386A, size: 0x8, addend: 0x0, symName: __ZL13__testlib_maxIbET_RKS0_S2_, symObjAddr: 0x22A28, symBinAddr: 0x100026534, symSize: 0x64 }
  - { offsetInCU: 0x438B1, offset: 0x438B1, size: 0x8, addend: 0x0, symName: __ZNSt3__16__treeINS_12__value_typeINS_12basic_stringIcNS_11char_traitsIcEENS_9allocatorIcEEEE18ValidatorBoundsHitEENS_19__map_value_compareIS7_S9_NS_4lessIS7_EELb1EEENS5_IS9_EEE12__find_equalIS7_EERPNS_16__tree_node_baseIPvEERPNS_15__tree_end_nodeISK_EERKT_, symObjAddr: 0x22A8C, symBinAddr: 0x100026598, symSize: 0x184 }
  - { offsetInCU: 0x4391E, offset: 0x4391E, size: 0x8, addend: 0x0, symName: __ZNSt3__13mapINS_12basic_stringIcNS_11char_traitsIcEENS_9allocatorIcEEEE18ValidatorBoundsHitNS_4lessIS6_EENS4_INS_4pairIKS6_S7_EEEEE25__construct_node_with_keyERSB_, symObjAddr: 0x22C10, symBinAddr: 0x10002671C, symSize: 0x144 }
  - { offsetInCU: 0x43974, offset: 0x43974, size: 0x8, addend: 0x0, symName: __ZNSt3__16__treeINS_12__value_typeINS_12basic_stringIcNS_11char_traitsIcEENS_9allocatorIcEEEE18ValidatorBoundsHitEENS_19__map_value_compareIS7_S9_NS_4lessIS7_EELb1EEENS5_IS9_EEE16__insert_node_atEPNS_15__tree_end_nodeIPNS_16__tree_node_baseIPvEEEERSK_SK_, symObjAddr: 0x22D54, symBinAddr: 0x100026860, symSize: 0xCC }
  - { offsetInCU: 0x439C9, offset: 0x439C9, size: 0x8, addend: 0x0, symName: __ZNKSt3__110unique_ptrINS_11__tree_nodeINS_12__value_typeINS_12basic_stringIcNS_11char_traitsIcEENS_9allocatorIcEEEE18ValidatorBoundsHitEEPvEENS_21__map_node_destructorINS6_ISC_EEEEE3getB8ue170006Ev, symObjAddr: 0x22E20, symBinAddr: 0x10002692C, symSize: 0x28 }
  - { offsetInCU: 0x439EF, offset: 0x439EF, size: 0x8, addend: 0x0, symName: __ZNSt3__110unique_ptrINS_11__tree_nodeINS_12__value_typeINS_12basic_stringIcNS_11char_traitsIcEENS_9allocatorIcEEEE18ValidatorBoundsHitEEPvEENS_21__map_node_destructorINS6_ISC_EEEEE7releaseB8ue170006Ev, symObjAddr: 0x22E48, symBinAddr: 0x100026954, symSize: 0x44 }
  - { offsetInCU: 0x43A24, offset: 0x43A24, size: 0x8, addend: 0x0, symName: __ZNSt3__110unique_ptrINS_11__tree_nodeINS_12__value_typeINS_12basic_stringIcNS_11char_traitsIcEENS_9allocatorIcEEEE18ValidatorBoundsHitEEPvEENS_21__map_node_destructorINS6_ISC_EEEEED1B8ue170006Ev, symObjAddr: 0x22E8C, symBinAddr: 0x100026998, symSize: 0x2C }
  - { offsetInCU: 0x43A4E, offset: 0x43A4E, size: 0x8, addend: 0x0, symName: __ZNKSt3__16__treeINS_12__value_typeINS_12basic_stringIcNS_11char_traitsIcEENS_9allocatorIcEEEE18ValidatorBoundsHitEENS_19__map_value_compareIS7_S9_NS_4lessIS7_EELb1EEENS5_IS9_EEE10__root_ptrB8ue170006Ev, symObjAddr: 0x22EB8, symBinAddr: 0x1000269C4, symSize: 0x24 }
  - { offsetInCU: 0x43A74, offset: 0x43A74, size: 0x8, addend: 0x0, symName: __ZNSt3__16__treeINS_12__value_typeINS_12basic_stringIcNS_11char_traitsIcEENS_9allocatorIcEEEE18ValidatorBoundsHitEENS_19__map_value_compareIS7_S9_NS_4lessIS7_EELb1EEENS5_IS9_EEE10value_compB8ue170006Ev, symObjAddr: 0x22EDC, symBinAddr: 0x1000269E8, symSize: 0x28 }
  - { offsetInCU: 0x43A9A, offset: 0x43A9A, size: 0x8, addend: 0x0, symName: __ZNKSt3__119__map_value_compareINS_12basic_stringIcNS_11char_traitsIcEENS_9allocatorIcEEEENS_12__value_typeIS6_18ValidatorBoundsHitEENS_4lessIS6_EELb1EEclB8ue170006ERKS6_RKS9_, symObjAddr: 0x22F04, symBinAddr: 0x100026A10, symSize: 0x50 }
  - { offsetInCU: 0x43ADE, offset: 0x43ADE, size: 0x8, addend: 0x0, symName: __ZNKSt3__119__map_value_compareINS_12basic_stringIcNS_11char_traitsIcEENS_9allocatorIcEEEENS_12__value_typeIS6_18ValidatorBoundsHitEENS_4lessIS6_EELb1EEclB8ue170006ERKS9_RKS6_, symObjAddr: 0x22F54, symBinAddr: 0x100026A60, symSize: 0x48 }
  - { offsetInCU: 0x43B22, offset: 0x43B22, size: 0x8, addend: 0x0, symName: __ZNSt3__117__compressed_pairImNS_19__map_value_compareINS_12basic_stringIcNS_11char_traitsIcEENS_9allocatorIcEEEENS_12__value_typeIS7_18ValidatorBoundsHitEENS_4lessIS7_EELb1EEEE6secondB8ue170006Ev, symObjAddr: 0x22F9C, symBinAddr: 0x100026AA8, symSize: 0x24 }
  - { offsetInCU: 0x43B48, offset: 0x43B48, size: 0x8, addend: 0x0, symName: __ZNSt3__122__compressed_pair_elemINS_19__map_value_compareINS_12basic_stringIcNS_11char_traitsIcEENS_9allocatorIcEEEENS_12__value_typeIS7_18ValidatorBoundsHitEENS_4lessIS7_EELb1EEELi1ELb1EE5__getB8ue170006Ev, symObjAddr: 0x22FC0, symBinAddr: 0x100026ACC, symSize: 0x14 }
  - { offsetInCU: 0x43B6E, offset: 0x43B6E, size: 0x8, addend: 0x0, symName: __ZNKSt3__112__value_typeINS_12basic_stringIcNS_11char_traitsIcEENS_9allocatorIcEEEE18ValidatorBoundsHitE11__get_valueB8ue170006Ev, symObjAddr: 0x22FD4, symBinAddr: 0x100026AE0, symSize: 0x14 }
  - { offsetInCU: 0x43B94, offset: 0x43B94, size: 0x8, addend: 0x0, symName: __ZNSt3__116allocator_traitsINS_9allocatorINS_11__tree_nodeINS_12__value_typeINS_12basic_stringIcNS_11char_traitsIcEENS1_IcEEEE18ValidatorBoundsHitEEPvEEEEE8allocateB8ue170006ERSD_m, symObjAddr: 0x22FE8, symBinAddr: 0x100026AF4, symSize: 0x2C }
  - { offsetInCU: 0x43BC7, offset: 0x43BC7, size: 0x8, addend: 0x0, symName: __ZNSt3__121__map_node_destructorINS_9allocatorINS_11__tree_nodeINS_12__value_typeINS_12basic_stringIcNS_11char_traitsIcEENS1_IcEEEE18ValidatorBoundsHitEEPvEEEEEC1B8ue170006ERSD_, symObjAddr: 0x23014, symBinAddr: 0x100026B20, symSize: 0x34 }
  - { offsetInCU: 0x43C06, offset: 0x43C06, size: 0x8, addend: 0x0, symName: __ZNSt3__110unique_ptrINS_11__tree_nodeINS_12__value_typeINS_12basic_stringIcNS_11char_traitsIcEENS_9allocatorIcEEEE18ValidatorBoundsHitEEPvEENS_21__map_node_destructorINS6_ISC_EEEEEC1B8ue170006ILb1EvEEPSC_NS_16__dependent_typeINS_27__unique_ptr_deleter_sfinaeISF_EEXT_EE20__good_rval_ref_typeE, symObjAddr: 0x23048, symBinAddr: 0x100026B54, symSize: 0x3C }
  - { offsetInCU: 0x43C57, offset: 0x43C57, size: 0x8, addend: 0x0, symName: __ZNSt3__116allocator_traitsINS_9allocatorINS_11__tree_nodeINS_12__value_typeINS_12basic_stringIcNS_11char_traitsIcEENS1_IcEEEE18ValidatorBoundsHitEEPvEEEEE9constructB8ue170006IKS8_JRSG_EvEEvRSD_PT_DpOT0_, symObjAddr: 0x23084, symBinAddr: 0x100026B90, symSize: 0x34 }
  - { offsetInCU: 0x43CAE, offset: 0x43CAE, size: 0x8, addend: 0x0, symName: __ZNKSt3__110unique_ptrINS_11__tree_nodeINS_12__value_typeINS_12basic_stringIcNS_11char_traitsIcEENS_9allocatorIcEEEE18ValidatorBoundsHitEEPvEENS_21__map_node_destructorINS6_ISC_EEEEEptB8ue170006Ev, symObjAddr: 0x230B8, symBinAddr: 0x100026BC4, symSize: 0x28 }
  - { offsetInCU: 0x43CD4, offset: 0x43CD4, size: 0x8, addend: 0x0, symName: __ZNSt3__110unique_ptrINS_11__tree_nodeINS_12__value_typeINS_12basic_stringIcNS_11char_traitsIcEENS_9allocatorIcEEEE18ValidatorBoundsHitEEPvEENS_21__map_node_destructorINS6_ISC_EEEEE11get_deleterB8ue170006Ev, symObjAddr: 0x230E0, symBinAddr: 0x100026BEC, symSize: 0x24 }
  - { offsetInCU: 0x43CFF, offset: 0x43CFF, size: 0x8, addend: 0x0, symName: __ZNSt3__116allocator_traitsINS_9allocatorINS_11__tree_nodeINS_12__value_typeINS_12basic_stringIcNS_11char_traitsIcEENS1_IcEEEE18ValidatorBoundsHitEEPvEEEEE9constructB8ue170006IS9_JEvEEvRSD_PT_DpOT0_, symObjAddr: 0x23104, symBinAddr: 0x100026C10, symSize: 0x2C }
  - { offsetInCU: 0x43D41, offset: 0x43D41, size: 0x8, addend: 0x0, symName: __ZNSt3__19allocatorINS_11__tree_nodeINS_12__value_typeINS_12basic_stringIcNS_11char_traitsIcEENS0_IcEEEE18ValidatorBoundsHitEEPvEEE8allocateB8ue170006Em, symObjAddr: 0x23130, symBinAddr: 0x100026C3C, symSize: 0x84 }
  - { offsetInCU: 0x43D80, offset: 0x43D80, size: 0x8, addend: 0x0, symName: __ZNSt3__116allocator_traitsINS_9allocatorINS_11__tree_nodeINS_12__value_typeINS_12basic_stringIcNS_11char_traitsIcEENS1_IcEEEE18ValidatorBoundsHitEEPvEEEEE8max_sizeB8ue170006ISD_vEEmRKSD_, symObjAddr: 0x231B4, symBinAddr: 0x100026CC0, symSize: 0x24 }
  - { offsetInCU: 0x43DAE, offset: 0x43DAE, size: 0x8, addend: 0x0, symName: __ZNKSt3__19allocatorINS_11__tree_nodeINS_12__value_typeINS_12basic_stringIcNS_11char_traitsIcEENS0_IcEEEE18ValidatorBoundsHitEEPvEEE8max_sizeB8ue170006Ev, symObjAddr: 0x231D8, symBinAddr: 0x100026CE4, symSize: 0x14 }
  - { offsetInCU: 0x43DD4, offset: 0x43DD4, size: 0x8, addend: 0x0, symName: __ZNSt3__121__map_node_destructorINS_9allocatorINS_11__tree_nodeINS_12__value_typeINS_12basic_stringIcNS_11char_traitsIcEENS1_IcEEEE18ValidatorBoundsHitEEPvEEEEEC2B8ue170006ERSD_, symObjAddr: 0x231EC, symBinAddr: 0x100026CF8, symSize: 0x28 }
  - { offsetInCU: 0x43E0D, offset: 0x43E0D, size: 0x8, addend: 0x0, symName: __ZNSt3__110unique_ptrINS_11__tree_nodeINS_12__value_typeINS_12basic_stringIcNS_11char_traitsIcEENS_9allocatorIcEEEE18ValidatorBoundsHitEEPvEENS_21__map_node_destructorINS6_ISC_EEEEEC2B8ue170006ILb1EvEEPSC_NS_16__dependent_typeINS_27__unique_ptr_deleter_sfinaeISF_EEXT_EE20__good_rval_ref_typeE, symObjAddr: 0x23214, symBinAddr: 0x100026D20, symSize: 0x5C }
  - { offsetInCU: 0x43E5E, offset: 0x43E5E, size: 0x8, addend: 0x0, symName: __ZNSt3__117__compressed_pairIPNS_11__tree_nodeINS_12__value_typeINS_12basic_stringIcNS_11char_traitsIcEENS_9allocatorIcEEEE18ValidatorBoundsHitEEPvEENS_21__map_node_destructorINS6_ISC_EEEEEC1B8ue170006IRSD_SG_EEOT_OT0_, symObjAddr: 0x23270, symBinAddr: 0x100026D7C, symSize: 0x3C }
  - { offsetInCU: 0x43EB6, offset: 0x43EB6, size: 0x8, addend: 0x0, symName: __ZNSt3__117__compressed_pairIPNS_11__tree_nodeINS_12__value_typeINS_12basic_stringIcNS_11char_traitsIcEENS_9allocatorIcEEEE18ValidatorBoundsHitEEPvEENS_21__map_node_destructorINS6_ISC_EEEEEC2B8ue170006IRSD_SG_EEOT_OT0_, symObjAddr: 0x232AC, symBinAddr: 0x100026DB8, symSize: 0x48 }
  - { offsetInCU: 0x43F0E, offset: 0x43F0E, size: 0x8, addend: 0x0, symName: __ZNSt3__122__compressed_pair_elemIPNS_11__tree_nodeINS_12__value_typeINS_12basic_stringIcNS_11char_traitsIcEENS_9allocatorIcEEEE18ValidatorBoundsHitEEPvEELi0ELb0EEC2B8ue170006IRSD_vEEOT_, symObjAddr: 0x232F4, symBinAddr: 0x100026E00, symSize: 0x24 }
  - { offsetInCU: 0x43F50, offset: 0x43F50, size: 0x8, addend: 0x0, symName: __ZNSt3__122__compressed_pair_elemINS_21__map_node_destructorINS_9allocatorINS_11__tree_nodeINS_12__value_typeINS_12basic_stringIcNS_11char_traitsIcEENS2_IcEEEE18ValidatorBoundsHitEEPvEEEEEELi1ELb0EEC2B8ue170006ISF_vEEOT_, symObjAddr: 0x23318, symBinAddr: 0x100026E24, symSize: 0x24 }
  - { offsetInCU: 0x43F92, offset: 0x43F92, size: 0x8, addend: 0x0, symName: __ZNSt3__19allocatorINS_11__tree_nodeINS_12__value_typeINS_12basic_stringIcNS_11char_traitsIcEENS0_IcEEEE18ValidatorBoundsHitEEPvEEE9constructB8ue170006IKS7_JRSE_EEEvPT_DpOT0_, symObjAddr: 0x2333C, symBinAddr: 0x100026E48, symSize: 0x30 }
  - { offsetInCU: 0x43FE8, offset: 0x43FE8, size: 0x8, addend: 0x0, symName: __ZNKSt3__117__compressed_pairIPNS_11__tree_nodeINS_12__value_typeINS_12basic_stringIcNS_11char_traitsIcEENS_9allocatorIcEEEE18ValidatorBoundsHitEEPvEENS_21__map_node_destructorINS6_ISC_EEEEE5firstB8ue170006Ev, symObjAddr: 0x2336C, symBinAddr: 0x100026E78, symSize: 0x24 }
  - { offsetInCU: 0x4400E, offset: 0x4400E, size: 0x8, addend: 0x0, symName: __ZNKSt3__122__compressed_pair_elemIPNS_11__tree_nodeINS_12__value_typeINS_12basic_stringIcNS_11char_traitsIcEENS_9allocatorIcEEEE18ValidatorBoundsHitEEPvEELi0ELb0EE5__getB8ue170006Ev, symObjAddr: 0x23390, symBinAddr: 0x100026E9C, symSize: 0x14 }
  - { offsetInCU: 0x44034, offset: 0x44034, size: 0x8, addend: 0x0, symName: __ZNSt3__117__compressed_pairIPNS_11__tree_nodeINS_12__value_typeINS_12basic_stringIcNS_11char_traitsIcEENS_9allocatorIcEEEE18ValidatorBoundsHitEEPvEENS_21__map_node_destructorINS6_ISC_EEEEE6secondB8ue170006Ev, symObjAddr: 0x233A4, symBinAddr: 0x100026EB0, symSize: 0x28 }
  - { offsetInCU: 0x4405A, offset: 0x4405A, size: 0x8, addend: 0x0, symName: __ZNSt3__122__compressed_pair_elemINS_21__map_node_destructorINS_9allocatorINS_11__tree_nodeINS_12__value_typeINS_12basic_stringIcNS_11char_traitsIcEENS2_IcEEEE18ValidatorBoundsHitEEPvEEEEEELi1ELb0EE5__getB8ue170006Ev, symObjAddr: 0x233CC, symBinAddr: 0x100026ED8, symSize: 0x14 }
  - { offsetInCU: 0x44080, offset: 0x44080, size: 0x8, addend: 0x0, symName: __ZNSt3__19allocatorINS_11__tree_nodeINS_12__value_typeINS_12basic_stringIcNS_11char_traitsIcEENS0_IcEEEE18ValidatorBoundsHitEEPvEEE9constructB8ue170006IS8_JEEEvPT_DpOT0_, symObjAddr: 0x233E0, symBinAddr: 0x100026EEC, symSize: 0x34 }
  - { offsetInCU: 0x440C2, offset: 0x440C2, size: 0x8, addend: 0x0, symName: __ZNSt3__16__treeINS_12__value_typeINS_12basic_stringIcNS_11char_traitsIcEENS_9allocatorIcEEEE18ValidatorBoundsHitEENS_19__map_value_compareIS7_S9_NS_4lessIS7_EELb1EEENS5_IS9_EEE4sizeB8ue170006Ev, symObjAddr: 0x23690, symBinAddr: 0x10002719C, symSize: 0x28 }
  - { offsetInCU: 0x440E8, offset: 0x440E8, size: 0x8, addend: 0x0, symName: __ZNSt3__116__tree_node_baseIPvE12__set_parentB8ue170006EPS2_, symObjAddr: 0x23870, symBinAddr: 0x10002737C, symSize: 0x20 }
  - { offsetInCU: 0x4411D, offset: 0x4411D, size: 0x8, addend: 0x0, symName: __ZNSt3__117__compressed_pairImNS_19__map_value_compareINS_12basic_stringIcNS_11char_traitsIcEENS_9allocatorIcEEEENS_12__value_typeIS7_18ValidatorBoundsHitEENS_4lessIS7_EELb1EEEE5firstB8ue170006Ev, symObjAddr: 0x23890, symBinAddr: 0x10002739C, symSize: 0x24 }
  - { offsetInCU: 0x44143, offset: 0x44143, size: 0x8, addend: 0x0, symName: __ZNSt3__122__compressed_pair_elemImLi0ELb0EE5__getB8ue170006Ev, symObjAddr: 0x238B4, symBinAddr: 0x1000273C0, symSize: 0x14 }
  - { offsetInCU: 0x44169, offset: 0x44169, size: 0x8, addend: 0x0, symName: __ZNSt3__117__compressed_pairIPNS_11__tree_nodeINS_12__value_typeINS_12basic_stringIcNS_11char_traitsIcEENS_9allocatorIcEEEE18ValidatorBoundsHitEEPvEENS_21__map_node_destructorINS6_ISC_EEEEE5firstB8ue170006Ev, symObjAddr: 0x238C8, symBinAddr: 0x1000273D4, symSize: 0x24 }
  - { offsetInCU: 0x4418F, offset: 0x4418F, size: 0x8, addend: 0x0, symName: __ZNSt3__122__compressed_pair_elemIPNS_11__tree_nodeINS_12__value_typeINS_12basic_stringIcNS_11char_traitsIcEENS_9allocatorIcEEEE18ValidatorBoundsHitEEPvEELi0ELb0EE5__getB8ue170006Ev, symObjAddr: 0x238EC, symBinAddr: 0x1000273F8, symSize: 0x14 }
  - { offsetInCU: 0x441B5, offset: 0x441B5, size: 0x8, addend: 0x0, symName: __ZNSt3__110unique_ptrINS_11__tree_nodeINS_12__value_typeINS_12basic_stringIcNS_11char_traitsIcEENS_9allocatorIcEEEE18ValidatorBoundsHitEEPvEENS_21__map_node_destructorINS6_ISC_EEEEED2B8ue170006Ev, symObjAddr: 0x23900, symBinAddr: 0x10002740C, symSize: 0x30 }
  - { offsetInCU: 0x441DF, offset: 0x441DF, size: 0x8, addend: 0x0, symName: __ZNSt3__110unique_ptrINS_11__tree_nodeINS_12__value_typeINS_12basic_stringIcNS_11char_traitsIcEENS_9allocatorIcEEEE18ValidatorBoundsHitEEPvEENS_21__map_node_destructorINS6_ISC_EEEEE5resetB8ue170006EPSC_, symObjAddr: 0x23930, symBinAddr: 0x10002743C, symSize: 0x78 }
  - { offsetInCU: 0x44223, offset: 0x44223, size: 0x8, addend: 0x0, symName: __ZNSt3__121__map_node_destructorINS_9allocatorINS_11__tree_nodeINS_12__value_typeINS_12basic_stringIcNS_11char_traitsIcEENS1_IcEEEE18ValidatorBoundsHitEEPvEEEEEclB8ue170006EPSC_, symObjAddr: 0x239A8, symBinAddr: 0x1000274B4, symSize: 0xE4 }
  - { offsetInCU: 0x44258, offset: 0x44258, size: 0x8, addend: 0x0, symName: __ZNSt3__116allocator_traitsINS_9allocatorINS_11__tree_nodeINS_12__value_typeINS_12basic_stringIcNS_11char_traitsIcEENS1_IcEEEE18ValidatorBoundsHitEEPvEEEEE7destroyB8ue170006IS9_vvEEvRSD_PT_, symObjAddr: 0x23A8C, symBinAddr: 0x100027598, symSize: 0x14 }
  - { offsetInCU: 0x44292, offset: 0x44292, size: 0x8, addend: 0x0, symName: __ZNSt3__116allocator_traitsINS_9allocatorINS_11__tree_nodeINS_12__value_typeINS_12basic_stringIcNS_11char_traitsIcEENS1_IcEEEE18ValidatorBoundsHitEEPvEEEEE7destroyB8ue170006IKS8_vvEEvRSD_PT_, symObjAddr: 0x23AA0, symBinAddr: 0x1000275AC, symSize: 0x28 }
  - { offsetInCU: 0x442CC, offset: 0x442CC, size: 0x8, addend: 0x0, symName: __ZN18ValidatorBoundsHitC2Ebb, symObjAddr: 0x23AC8, symBinAddr: 0x1000275D4, symSize: 0x40 }
  - { offsetInCU: 0x44314, offset: 0x44314, size: 0x8, addend: 0x0, symName: __ZL15__testlib_isNaNd, symObjAddr: 0x23B08, symBinAddr: 0x100027614, symSize: 0xA0 }
  - { offsetInCU: 0x4437F, offset: 0x4437F, size: 0x8, addend: 0x0, symName: __ZL21__testlib_prelimIsNaNd, symObjAddr: 0x23BA8, symBinAddr: 0x1000276B4, symSize: 0xBC }
  - { offsetInCU: 0x443BD, offset: 0x443BD, size: 0x8, addend: 0x0, symName: __ZL13__testlib_absIdET_RKS0_, symObjAddr: 0x23C64, symBinAddr: 0x100027770, symSize: 0x50 }
  - { offsetInCU: 0x443F5, offset: 0x443F5, size: 0x8, addend: 0x0, symName: __ZL13__testlib_minIdET_RKS0_S2_, symObjAddr: 0x23CB4, symBinAddr: 0x1000277C0, symSize: 0x58 }
  - { offsetInCU: 0x4443C, offset: 0x4443C, size: 0x8, addend: 0x0, symName: __ZL20__testlib_isInfinited, symObjAddr: 0x23D0C, symBinAddr: 0x100027818, symSize: 0x60 }
  - { offsetInCU: 0x4447A, offset: 0x4447A, size: 0x8, addend: 0x0, symName: __ZL13__testlib_nanv, symObjAddr: 0x23D6C, symBinAddr: 0x100027878, symSize: 0xC }
  - { offsetInCU: 0x44499, offset: 0x44499, size: 0x8, addend: 0x0, symName: __ZN9Validator23isFeatureNameAnalyzableERKNSt3__112basic_stringIcNS0_11char_traitsIcEENS0_9allocatorIcEEEE, symObjAddr: 0x23D78, symBinAddr: 0x100027884, symSize: 0xB0 }
  - { offsetInCU: 0x444EB, offset: 0x444EB, size: 0x8, addend: 0x0, symName: __ZNSt3__13setINS_12basic_stringIcNS_11char_traitsIcEENS_9allocatorIcEEEENS_4lessIS6_EENS4_IS6_EEE6insertB8ue170006ERKS6_, symObjAddr: 0x23E28, symBinAddr: 0x100027934, symSize: 0x4C }
  - { offsetInCU: 0x44520, offset: 0x44520, size: 0x8, addend: 0x0, symName: __ZNSt3__16__treeINS_12basic_stringIcNS_11char_traitsIcEENS_9allocatorIcEEEENS_4lessIS6_EENS4_IS6_EEE15__insert_uniqueB8ue170006ERKS6_, symObjAddr: 0x23E74, symBinAddr: 0x100027980, symSize: 0x50 }
  - { offsetInCU: 0x44555, offset: 0x44555, size: 0x8, addend: 0x0, symName: __ZNSt3__14pairINS_21__tree_const_iteratorINS_12basic_stringIcNS_11char_traitsIcEENS_9allocatorIcEEEEPNS_11__tree_nodeIS7_PvEElEEbEC1B8ue170006INS_15__tree_iteratorIS7_SB_lEEbEERKNS0_IT_T0_EE, symObjAddr: 0x23EC4, symBinAddr: 0x1000279D0, symSize: 0x34 }
  - { offsetInCU: 0x4459F, offset: 0x4459F, size: 0x8, addend: 0x0, symName: __ZNSt3__16__treeINS_12basic_stringIcNS_11char_traitsIcEENS_9allocatorIcEEEENS_4lessIS6_EENS4_IS6_EEE25__emplace_unique_key_argsIS6_JRKS6_EEENS_4pairINS_15__tree_iteratorIS6_PNS_11__tree_nodeIS6_PvEElEEbEERKT_DpOT0_, symObjAddr: 0x23EF8, symBinAddr: 0x100027A04, symSize: 0xF0 }
  - { offsetInCU: 0x4464B, offset: 0x4464B, size: 0x8, addend: 0x0, symName: __ZNSt3__122__tree_key_value_typesINS_12basic_stringIcNS_11char_traitsIcEENS_9allocatorIcEEEEE9__get_keyB8ue170006ERKS6_, symObjAddr: 0x23FE8, symBinAddr: 0x100027AF4, symSize: 0x14 }
  - { offsetInCU: 0x4466F, offset: 0x4466F, size: 0x8, addend: 0x0, symName: __ZNSt3__16__treeINS_12basic_stringIcNS_11char_traitsIcEENS_9allocatorIcEEEENS_4lessIS6_EENS4_IS6_EEE12__find_equalIS6_EERPNS_16__tree_node_baseIPvEERPNS_15__tree_end_nodeISF_EERKT_, symObjAddr: 0x23FFC, symBinAddr: 0x100027B08, symSize: 0x184 }
  - { offsetInCU: 0x446DC, offset: 0x446DC, size: 0x8, addend: 0x0, symName: __ZNSt3__16__treeINS_12basic_stringIcNS_11char_traitsIcEENS_9allocatorIcEEEENS_4lessIS6_EENS4_IS6_EEE16__construct_nodeIJRKS6_EEENS_10unique_ptrINS_11__tree_nodeIS6_PvEENS_22__tree_node_destructorINS4_ISH_EEEEEEDpOT_, symObjAddr: 0x24180, symBinAddr: 0x100027C8C, symSize: 0x110 }
  - { offsetInCU: 0x4473D, offset: 0x4473D, size: 0x8, addend: 0x0, symName: __ZNSt3__16__treeINS_12basic_stringIcNS_11char_traitsIcEENS_9allocatorIcEEEENS_4lessIS6_EENS4_IS6_EEE16__insert_node_atEPNS_15__tree_end_nodeIPNS_16__tree_node_baseIPvEEEERSF_SF_, symObjAddr: 0x24290, symBinAddr: 0x100027D9C, symSize: 0xCC }
  - { offsetInCU: 0x44792, offset: 0x44792, size: 0x8, addend: 0x0, symName: __ZNKSt3__110unique_ptrINS_11__tree_nodeINS_12basic_stringIcNS_11char_traitsIcEENS_9allocatorIcEEEEPvEENS_22__tree_node_destructorINS5_IS9_EEEEE3getB8ue170006Ev, symObjAddr: 0x2435C, symBinAddr: 0x100027E68, symSize: 0x28 }
  - { offsetInCU: 0x447B8, offset: 0x447B8, size: 0x8, addend: 0x0, symName: __ZNSt3__110unique_ptrINS_11__tree_nodeINS_12basic_stringIcNS_11char_traitsIcEENS_9allocatorIcEEEEPvEENS_22__tree_node_destructorINS5_IS9_EEEEE7releaseB8ue170006Ev, symObjAddr: 0x24384, symBinAddr: 0x100027E90, symSize: 0x44 }
  - { offsetInCU: 0x447ED, offset: 0x447ED, size: 0x8, addend: 0x0, symName: __ZNSt3__110unique_ptrINS_11__tree_nodeINS_12basic_stringIcNS_11char_traitsIcEENS_9allocatorIcEEEEPvEENS_22__tree_node_destructorINS5_IS9_EEEEED1B8ue170006Ev, symObjAddr: 0x243C8, symBinAddr: 0x100027ED4, symSize: 0x2C }
  - { offsetInCU: 0x44817, offset: 0x44817, size: 0x8, addend: 0x0, symName: __ZNSt3__115__tree_iteratorINS_12basic_stringIcNS_11char_traitsIcEENS_9allocatorIcEEEEPNS_11__tree_nodeIS6_PvEElEC1B8ue170006ESA_, symObjAddr: 0x243F4, symBinAddr: 0x100027F00, symSize: 0x34 }
  - { offsetInCU: 0x44850, offset: 0x44850, size: 0x8, addend: 0x0, symName: __ZNSt3__14pairINS_15__tree_iteratorINS_12basic_stringIcNS_11char_traitsIcEENS_9allocatorIcEEEEPNS_11__tree_nodeIS7_PvEElEEbEC1B8ue170006ERKSC_RKb, symObjAddr: 0x24428, symBinAddr: 0x100027F34, symSize: 0x3C }
  - { offsetInCU: 0x44896, offset: 0x44896, size: 0x8, addend: 0x0, symName: __ZNKSt3__16__treeINS_12basic_stringIcNS_11char_traitsIcEENS_9allocatorIcEEEENS_4lessIS6_EENS4_IS6_EEE10__root_ptrB8ue170006Ev, symObjAddr: 0x24464, symBinAddr: 0x100027F70, symSize: 0x24 }
  - { offsetInCU: 0x448BC, offset: 0x448BC, size: 0x8, addend: 0x0, symName: __ZNSt3__16__treeINS_12basic_stringIcNS_11char_traitsIcEENS_9allocatorIcEEEENS_4lessIS6_EENS4_IS6_EEE10value_compB8ue170006Ev, symObjAddr: 0x24488, symBinAddr: 0x100027F94, symSize: 0x28 }
  - { offsetInCU: 0x448E2, offset: 0x448E2, size: 0x8, addend: 0x0, symName: __ZNSt3__117__compressed_pairImNS_4lessINS_12basic_stringIcNS_11char_traitsIcEENS_9allocatorIcEEEEEEE6secondB8ue170006Ev, symObjAddr: 0x244B0, symBinAddr: 0x100027FBC, symSize: 0x24 }
  - { offsetInCU: 0x44908, offset: 0x44908, size: 0x8, addend: 0x0, symName: __ZNSt3__122__compressed_pair_elemINS_4lessINS_12basic_stringIcNS_11char_traitsIcEENS_9allocatorIcEEEEEELi1ELb1EE5__getB8ue170006Ev, symObjAddr: 0x244D4, symBinAddr: 0x100027FE0, symSize: 0x14 }
  - { offsetInCU: 0x4492E, offset: 0x4492E, size: 0x8, addend: 0x0, symName: __ZNSt3__116allocator_traitsINS_9allocatorINS_11__tree_nodeINS_12basic_stringIcNS_11char_traitsIcEENS1_IcEEEEPvEEEEE8allocateB8ue170006ERSA_m, symObjAddr: 0x244E8, symBinAddr: 0x100027FF4, symSize: 0x2C }
  - { offsetInCU: 0x44961, offset: 0x44961, size: 0x8, addend: 0x0, symName: __ZNSt3__122__tree_node_destructorINS_9allocatorINS_11__tree_nodeINS_12basic_stringIcNS_11char_traitsIcEENS1_IcEEEEPvEEEEEC1B8ue170006ERSA_b, symObjAddr: 0x24514, symBinAddr: 0x100028020, symSize: 0x48 }
  - { offsetInCU: 0x449AF, offset: 0x449AF, size: 0x8, addend: 0x0, symName: __ZNSt3__110unique_ptrINS_11__tree_nodeINS_12basic_stringIcNS_11char_traitsIcEENS_9allocatorIcEEEEPvEENS_22__tree_node_destructorINS5_IS9_EEEEEC1B8ue170006ILb1EvEEPS9_NS_16__dependent_typeINS_27__unique_ptr_deleter_sfinaeISC_EEXT_EE20__good_rval_ref_typeE, symObjAddr: 0x2455C, symBinAddr: 0x100028068, symSize: 0x3C }
  - { offsetInCU: 0x44A00, offset: 0x44A00, size: 0x8, addend: 0x0, symName: __ZNSt3__116allocator_traitsINS_9allocatorINS_11__tree_nodeINS_12basic_stringIcNS_11char_traitsIcEENS1_IcEEEEPvEEEEE9constructB8ue170006IS7_JRKS7_EvEEvRSA_PT_DpOT0_, symObjAddr: 0x24598, symBinAddr: 0x1000280A4, symSize: 0x34 }
  - { offsetInCU: 0x44A57, offset: 0x44A57, size: 0x8, addend: 0x0, symName: __ZNKSt3__110unique_ptrINS_11__tree_nodeINS_12basic_stringIcNS_11char_traitsIcEENS_9allocatorIcEEEEPvEENS_22__tree_node_destructorINS5_IS9_EEEEEptB8ue170006Ev, symObjAddr: 0x245CC, symBinAddr: 0x1000280D8, symSize: 0x28 }
  - { offsetInCU: 0x44A7D, offset: 0x44A7D, size: 0x8, addend: 0x0, symName: __ZNSt3__110unique_ptrINS_11__tree_nodeINS_12basic_stringIcNS_11char_traitsIcEENS_9allocatorIcEEEEPvEENS_22__tree_node_destructorINS5_IS9_EEEEE11get_deleterB8ue170006Ev, symObjAddr: 0x245F4, symBinAddr: 0x100028100, symSize: 0x24 }
  - { offsetInCU: 0x44AA3, offset: 0x44AA3, size: 0x8, addend: 0x0, symName: __ZNSt3__19allocatorINS_11__tree_nodeINS_12basic_stringIcNS_11char_traitsIcEENS0_IcEEEEPvEEE8allocateB8ue170006Em, symObjAddr: 0x24618, symBinAddr: 0x100028124, symSize: 0x8C }
  - { offsetInCU: 0x44AE2, offset: 0x44AE2, size: 0x8, addend: 0x0, symName: __ZNSt3__116allocator_traitsINS_9allocatorINS_11__tree_nodeINS_12basic_stringIcNS_11char_traitsIcEENS1_IcEEEEPvEEEEE8max_sizeB8ue170006ISA_vEEmRKSA_, symObjAddr: 0x246A4, symBinAddr: 0x1000281B0, symSize: 0x24 }
  - { offsetInCU: 0x44B10, offset: 0x44B10, size: 0x8, addend: 0x0, symName: __ZNKSt3__19allocatorINS_11__tree_nodeINS_12basic_stringIcNS_11char_traitsIcEENS0_IcEEEEPvEEE8max_sizeB8ue170006Ev, symObjAddr: 0x246C8, symBinAddr: 0x1000281D4, symSize: 0x20 }
  - { offsetInCU: 0x44B36, offset: 0x44B36, size: 0x8, addend: 0x0, symName: __ZNSt3__122__tree_node_destructorINS_9allocatorINS_11__tree_nodeINS_12basic_stringIcNS_11char_traitsIcEENS1_IcEEEEPvEEEEEC2B8ue170006ERSA_b, symObjAddr: 0x246E8, symBinAddr: 0x1000281F4, symSize: 0x38 }
  - { offsetInCU: 0x44B7E, offset: 0x44B7E, size: 0x8, addend: 0x0, symName: __ZNSt3__110unique_ptrINS_11__tree_nodeINS_12basic_stringIcNS_11char_traitsIcEENS_9allocatorIcEEEEPvEENS_22__tree_node_destructorINS5_IS9_EEEEEC2B8ue170006ILb1EvEEPS9_NS_16__dependent_typeINS_27__unique_ptr_deleter_sfinaeISC_EEXT_EE20__good_rval_ref_typeE, symObjAddr: 0x24720, symBinAddr: 0x10002822C, symSize: 0x5C }
  - { offsetInCU: 0x44BCF, offset: 0x44BCF, size: 0x8, addend: 0x0, symName: __ZNSt3__117__compressed_pairIPNS_11__tree_nodeINS_12basic_stringIcNS_11char_traitsIcEENS_9allocatorIcEEEEPvEENS_22__tree_node_destructorINS5_IS9_EEEEEC1B8ue170006IRSA_SD_EEOT_OT0_, symObjAddr: 0x2477C, symBinAddr: 0x100028288, symSize: 0x3C }
  - { offsetInCU: 0x44C27, offset: 0x44C27, size: 0x8, addend: 0x0, symName: __ZNSt3__117__compressed_pairIPNS_11__tree_nodeINS_12basic_stringIcNS_11char_traitsIcEENS_9allocatorIcEEEEPvEENS_22__tree_node_destructorINS5_IS9_EEEEEC2B8ue170006IRSA_SD_EEOT_OT0_, symObjAddr: 0x247B8, symBinAddr: 0x1000282C4, symSize: 0x48 }
  - { offsetInCU: 0x44C7F, offset: 0x44C7F, size: 0x8, addend: 0x0, symName: __ZNSt3__122__compressed_pair_elemIPNS_11__tree_nodeINS_12basic_stringIcNS_11char_traitsIcEENS_9allocatorIcEEEEPvEELi0ELb0EEC2B8ue170006IRSA_vEEOT_, symObjAddr: 0x24800, symBinAddr: 0x10002830C, symSize: 0x24 }
  - { offsetInCU: 0x44CC1, offset: 0x44CC1, size: 0x8, addend: 0x0, symName: __ZNSt3__122__compressed_pair_elemINS_22__tree_node_destructorINS_9allocatorINS_11__tree_nodeINS_12basic_stringIcNS_11char_traitsIcEENS2_IcEEEEPvEEEEEELi1ELb0EEC2B8ue170006ISC_vEEOT_, symObjAddr: 0x24824, symBinAddr: 0x100028330, symSize: 0x24 }
  - { offsetInCU: 0x44D03, offset: 0x44D03, size: 0x8, addend: 0x0, symName: __ZNSt3__19allocatorINS_11__tree_nodeINS_12basic_stringIcNS_11char_traitsIcEENS0_IcEEEEPvEEE9constructB8ue170006IS6_JRKS6_EEEvPT_DpOT0_, symObjAddr: 0x24848, symBinAddr: 0x100028354, symSize: 0x30 }
  - { offsetInCU: 0x44D59, offset: 0x44D59, size: 0x8, addend: 0x0, symName: __ZNKSt3__117__compressed_pairIPNS_11__tree_nodeINS_12basic_stringIcNS_11char_traitsIcEENS_9allocatorIcEEEEPvEENS_22__tree_node_destructorINS5_IS9_EEEEE5firstB8ue170006Ev, symObjAddr: 0x24878, symBinAddr: 0x100028384, symSize: 0x24 }
  - { offsetInCU: 0x44D7F, offset: 0x44D7F, size: 0x8, addend: 0x0, symName: __ZNKSt3__122__compressed_pair_elemIPNS_11__tree_nodeINS_12basic_stringIcNS_11char_traitsIcEENS_9allocatorIcEEEEPvEELi0ELb0EE5__getB8ue170006Ev, symObjAddr: 0x2489C, symBinAddr: 0x1000283A8, symSize: 0x14 }
  - { offsetInCU: 0x44DA5, offset: 0x44DA5, size: 0x8, addend: 0x0, symName: __ZNSt3__117__compressed_pairIPNS_11__tree_nodeINS_12basic_stringIcNS_11char_traitsIcEENS_9allocatorIcEEEEPvEENS_22__tree_node_destructorINS5_IS9_EEEEE6secondB8ue170006Ev, symObjAddr: 0x248B0, symBinAddr: 0x1000283BC, symSize: 0x28 }
  - { offsetInCU: 0x44DCB, offset: 0x44DCB, size: 0x8, addend: 0x0, symName: __ZNSt3__122__compressed_pair_elemINS_22__tree_node_destructorINS_9allocatorINS_11__tree_nodeINS_12basic_stringIcNS_11char_traitsIcEENS2_IcEEEEPvEEEEEELi1ELb0EE5__getB8ue170006Ev, symObjAddr: 0x248D8, symBinAddr: 0x1000283E4, symSize: 0x14 }
  - { offsetInCU: 0x44DF1, offset: 0x44DF1, size: 0x8, addend: 0x0, symName: __ZNSt3__16__treeINS_12basic_stringIcNS_11char_traitsIcEENS_9allocatorIcEEEENS_4lessIS6_EENS4_IS6_EEE4sizeB8ue170006Ev, symObjAddr: 0x248EC, symBinAddr: 0x1000283F8, symSize: 0x28 }
  - { offsetInCU: 0x44E17, offset: 0x44E17, size: 0x8, addend: 0x0, symName: __ZNSt3__117__compressed_pairImNS_4lessINS_12basic_stringIcNS_11char_traitsIcEENS_9allocatorIcEEEEEEE5firstB8ue170006Ev, symObjAddr: 0x24914, symBinAddr: 0x100028420, symSize: 0x24 }
  - { offsetInCU: 0x44E3D, offset: 0x44E3D, size: 0x8, addend: 0x0, symName: __ZNSt3__117__compressed_pairIPNS_11__tree_nodeINS_12basic_stringIcNS_11char_traitsIcEENS_9allocatorIcEEEEPvEENS_22__tree_node_destructorINS5_IS9_EEEEE5firstB8ue170006Ev, symObjAddr: 0x24938, symBinAddr: 0x100028444, symSize: 0x24 }
  - { offsetInCU: 0x44E63, offset: 0x44E63, size: 0x8, addend: 0x0, symName: __ZNSt3__122__compressed_pair_elemIPNS_11__tree_nodeINS_12basic_stringIcNS_11char_traitsIcEENS_9allocatorIcEEEEPvEELi0ELb0EE5__getB8ue170006Ev, symObjAddr: 0x2495C, symBinAddr: 0x100028468, symSize: 0x14 }
  - { offsetInCU: 0x44E89, offset: 0x44E89, size: 0x8, addend: 0x0, symName: __ZNSt3__110unique_ptrINS_11__tree_nodeINS_12basic_stringIcNS_11char_traitsIcEENS_9allocatorIcEEEEPvEENS_22__tree_node_destructorINS5_IS9_EEEEED2B8ue170006Ev, symObjAddr: 0x24970, symBinAddr: 0x10002847C, symSize: 0x30 }
  - { offsetInCU: 0x44EB3, offset: 0x44EB3, size: 0x8, addend: 0x0, symName: __ZNSt3__110unique_ptrINS_11__tree_nodeINS_12basic_stringIcNS_11char_traitsIcEENS_9allocatorIcEEEEPvEENS_22__tree_node_destructorINS5_IS9_EEEEE5resetB8ue170006EPS9_, symObjAddr: 0x249A0, symBinAddr: 0x1000284AC, symSize: 0x78 }
  - { offsetInCU: 0x44EF7, offset: 0x44EF7, size: 0x8, addend: 0x0, symName: __ZNSt3__122__tree_node_destructorINS_9allocatorINS_11__tree_nodeINS_12basic_stringIcNS_11char_traitsIcEENS1_IcEEEEPvEEEEEclB8ue170006EPS9_, symObjAddr: 0x24A18, symBinAddr: 0x100028524, symSize: 0xA4 }
  - { offsetInCU: 0x44F2C, offset: 0x44F2C, size: 0x8, addend: 0x0, symName: __ZNSt3__115__tree_iteratorINS_12basic_stringIcNS_11char_traitsIcEENS_9allocatorIcEEEEPNS_11__tree_nodeIS6_PvEElEC2B8ue170006ESA_, symObjAddr: 0x24ABC, symBinAddr: 0x1000285C8, symSize: 0x20 }
  - { offsetInCU: 0x44F65, offset: 0x44F65, size: 0x8, addend: 0x0, symName: __ZNSt3__14pairINS_15__tree_iteratorINS_12basic_stringIcNS_11char_traitsIcEENS_9allocatorIcEEEEPNS_11__tree_nodeIS7_PvEElEEbEC2B8ue170006ERKSC_RKb, symObjAddr: 0x24ADC, symBinAddr: 0x1000285E8, symSize: 0x38 }
  - { offsetInCU: 0x44FAB, offset: 0x44FAB, size: 0x8, addend: 0x0, symName: __ZNSt3__14pairINS_21__tree_const_iteratorINS_12basic_stringIcNS_11char_traitsIcEENS_9allocatorIcEEEEPNS_11__tree_nodeIS7_PvEElEEbEC2B8ue170006INS_15__tree_iteratorIS7_SB_lEEbEERKNS0_IT_T0_EE, symObjAddr: 0x24B14, symBinAddr: 0x100028620, symSize: 0x50 }
  - { offsetInCU: 0x44FF5, offset: 0x44FF5, size: 0x8, addend: 0x0, symName: __ZN5TimerC2Ev, symObjAddr: 0x24B64, symBinAddr: 0x100028670, symSize: 0x34 }
  - { offsetInCU: 0x4501F, offset: 0x4501F, size: 0x8, addend: 0x0, symName: __ZN3AntC2Ev, symObjAddr: 0x24B98, symBinAddr: 0x1000286A4, symSize: 0x130 }
  - { offsetInCU: 0x45049, offset: 0x45049, size: 0x8, addend: 0x0, symName: __ZN8SolutionC2Ev, symObjAddr: 0x24CC8, symBinAddr: 0x1000287D4, symSize: 0x68 }
  - { offsetInCU: 0x45073, offset: 0x45073, size: 0x8, addend: 0x0, symName: __ZNSt3__16vectorIjNS_9allocatorIjEEEC1B8ue170006Ev, symObjAddr: 0x24D30, symBinAddr: 0x10002883C, symSize: 0x2C }
  - { offsetInCU: 0x4509D, offset: 0x4509D, size: 0x8, addend: 0x0, symName: __ZN7BitmaskC1Ev, symObjAddr: 0x24D5C, symBinAddr: 0x100028868, symSize: 0x2C }
  - { offsetInCU: 0x450C7, offset: 0x450C7, size: 0x8, addend: 0x0, symName: __ZNSt3__14pairIddEC1B8ue170006Ev, symObjAddr: 0x24D88, symBinAddr: 0x100028894, symSize: 0x2C }
  - { offsetInCU: 0x450F1, offset: 0x450F1, size: 0x8, addend: 0x0, symName: __ZN7BitmaskD1Ev, symObjAddr: 0x24DB4, symBinAddr: 0x1000288C0, symSize: 0x2C }
  - { offsetInCU: 0x4511D, offset: 0x4511D, size: 0x8, addend: 0x0, symName: __ZN8SolutionD2Ev, symObjAddr: 0x24DE0, symBinAddr: 0x1000288EC, symSize: 0x68 }
  - { offsetInCU: 0x45149, offset: 0x45149, size: 0x8, addend: 0x0, symName: __ZNSt3__16vectorIjNS_9allocatorIjEEEC2B8ue170006Ev, symObjAddr: 0x24E48, symBinAddr: 0x100028954, symSize: 0x44 }
  - { offsetInCU: 0x45173, offset: 0x45173, size: 0x8, addend: 0x0, symName: __ZNSt3__117__compressed_pairIPjNS_9allocatorIjEEEC1B8ue170006IDnNS_18__default_init_tagEEEOT_OT0_, symObjAddr: 0x24E8C, symBinAddr: 0x100028998, symSize: 0x3C }
  - { offsetInCU: 0x451CB, offset: 0x451CB, size: 0x8, addend: 0x0, symName: __ZNSt3__117__compressed_pairIPjNS_9allocatorIjEEEC2B8ue170006IDnNS_18__default_init_tagEEEOT_OT0_, symObjAddr: 0x24EC8, symBinAddr: 0x1000289D4, symSize: 0x40 }
  - { offsetInCU: 0x45223, offset: 0x45223, size: 0x8, addend: 0x0, symName: __ZNSt3__122__compressed_pair_elemIPjLi0ELb0EEC2B8ue170006IDnvEEOT_, symObjAddr: 0x24F08, symBinAddr: 0x100028A14, symSize: 0x1C }
  - { offsetInCU: 0x45265, offset: 0x45265, size: 0x8, addend: 0x0, symName: __ZNSt3__122__compressed_pair_elemINS_9allocatorIjEELi1ELb1EEC2B8ue170006ENS_18__default_init_tagE, symObjAddr: 0x24F24, symBinAddr: 0x100028A30, symSize: 0x2C }
  - { offsetInCU: 0x45299, offset: 0x45299, size: 0x8, addend: 0x0, symName: __ZNSt3__19allocatorIjEC2B8ue170006Ev, symObjAddr: 0x24F50, symBinAddr: 0x100028A5C, symSize: 0x2C }
  - { offsetInCU: 0x452C3, offset: 0x452C3, size: 0x8, addend: 0x0, symName: __ZNSt3__116__non_trivial_ifILb1ENS_9allocatorIjEEEC2B8ue170006Ev, symObjAddr: 0x24F7C, symBinAddr: 0x100028A88, symSize: 0x14 }
  - { offsetInCU: 0x452ED, offset: 0x452ED, size: 0x8, addend: 0x0, symName: __ZN7BitmaskC2Ev, symObjAddr: 0x24F90, symBinAddr: 0x100028A9C, symSize: 0x34 }
  - { offsetInCU: 0x45317, offset: 0x45317, size: 0x8, addend: 0x0, symName: __ZNSt3__14pairIddEC2B8ue170006Ev, symObjAddr: 0x24FC4, symBinAddr: 0x100028AD0, symSize: 0x20 }
  - { offsetInCU: 0x45341, offset: 0x45341, size: 0x8, addend: 0x0, symName: __ZN7BitmaskD2Ev, symObjAddr: 0x24FE4, symBinAddr: 0x100028AF0, symSize: 0x30 }
  - { offsetInCU: 0x4536D, offset: 0x4536D, size: 0x8, addend: 0x0, symName: __ZN3KNNC2Ev, symObjAddr: 0x25014, symBinAddr: 0x100028B20, symSize: 0x10C }
  - { offsetInCU: 0x45399, offset: 0x45399, size: 0x8, addend: 0x0, symName: __ZNSt3__16vectorINS0_IiNS_9allocatorIiEEEENS1_IS3_EEEC1B8ue170006Ev, symObjAddr: 0x25120, symBinAddr: 0x100028C2C, symSize: 0x2C }
  - { offsetInCU: 0x453C3, offset: 0x453C3, size: 0x8, addend: 0x0, symName: __ZNSt3__16vectorINS0_IiNS_9allocatorIiEEEENS1_IS3_EEED1B8ue170006Ev, symObjAddr: 0x2514C, symBinAddr: 0x100028C58, symSize: 0x2C }
  - { offsetInCU: 0x453ED, offset: 0x453ED, size: 0x8, addend: 0x0, symName: __ZNSt3__16vectorINS0_IiNS_9allocatorIiEEEENS1_IS3_EEEC2B8ue170006Ev, symObjAddr: 0x25178, symBinAddr: 0x100028C84, symSize: 0x44 }
  - { offsetInCU: 0x45417, offset: 0x45417, size: 0x8, addend: 0x0, symName: __ZNSt3__117__compressed_pairIPNS_6vectorIiNS_9allocatorIiEEEENS2_IS4_EEEC1B8ue170006IDnNS_18__default_init_tagEEEOT_OT0_, symObjAddr: 0x251BC, symBinAddr: 0x100028CC8, symSize: 0x3C }
  - { offsetInCU: 0x4546F, offset: 0x4546F, size: 0x8, addend: 0x0, symName: __ZNSt3__117__compressed_pairIPNS_6vectorIiNS_9allocatorIiEEEENS2_IS4_EEEC2B8ue170006IDnNS_18__default_init_tagEEEOT_OT0_, symObjAddr: 0x251F8, symBinAddr: 0x100028D04, symSize: 0x40 }
  - { offsetInCU: 0x454C7, offset: 0x454C7, size: 0x8, addend: 0x0, symName: __ZNSt3__122__compressed_pair_elemIPNS_6vectorIiNS_9allocatorIiEEEELi0ELb0EEC2B8ue170006IDnvEEOT_, symObjAddr: 0x25238, symBinAddr: 0x100028D44, symSize: 0x1C }
  - { offsetInCU: 0x45509, offset: 0x45509, size: 0x8, addend: 0x0, symName: __ZNSt3__122__compressed_pair_elemINS_9allocatorINS_6vectorIiNS1_IiEEEEEELi1ELb1EEC2B8ue170006ENS_18__default_init_tagE, symObjAddr: 0x25254, symBinAddr: 0x100028D60, symSize: 0x2C }
  - { offsetInCU: 0x4553D, offset: 0x4553D, size: 0x8, addend: 0x0, symName: __ZNSt3__19allocatorINS_6vectorIiNS0_IiEEEEEC2B8ue170006Ev, symObjAddr: 0x25280, symBinAddr: 0x100028D8C, symSize: 0x2C }
  - { offsetInCU: 0x45567, offset: 0x45567, size: 0x8, addend: 0x0, symName: __ZNSt3__116__non_trivial_ifILb1ENS_9allocatorINS_6vectorIiNS1_IiEEEEEEEC2B8ue170006Ev, symObjAddr: 0x252AC, symBinAddr: 0x100028DB8, symSize: 0x14 }
  - { offsetInCU: 0x45591, offset: 0x45591, size: 0x8, addend: 0x0, symName: __ZNSt3__16vectorINS0_IiNS_9allocatorIiEEEENS1_IS3_EEED2B8ue170006Ev, symObjAddr: 0x252C0, symBinAddr: 0x100028DCC, symSize: 0x3C }
  - { offsetInCU: 0x455BB, offset: 0x455BB, size: 0x8, addend: 0x0, symName: __ZNSt3__16vectorINS0_IiNS_9allocatorIiEEEENS1_IS3_EEE16__destroy_vectorC1B8ue170006ERS5_, symObjAddr: 0x252FC, symBinAddr: 0x100028E08, symSize: 0x34 }
  - { offsetInCU: 0x455F4, offset: 0x455F4, size: 0x8, addend: 0x0, symName: __ZNSt3__16vectorINS0_IiNS_9allocatorIiEEEENS1_IS3_EEE16__destroy_vectorclB8ue170006Ev, symObjAddr: 0x25330, symBinAddr: 0x100028E3C, symSize: 0x90 }
  - { offsetInCU: 0x4561A, offset: 0x4561A, size: 0x8, addend: 0x0, symName: __ZNSt3__16vectorINS0_IiNS_9allocatorIiEEEENS1_IS3_EEE16__destroy_vectorC2B8ue170006ERS5_, symObjAddr: 0x253C0, symBinAddr: 0x100028ECC, symSize: 0x20 }
  - { offsetInCU: 0x45653, offset: 0x45653, size: 0x8, addend: 0x0, symName: __ZNSt3__16vectorINS0_IiNS_9allocatorIiEEEENS1_IS3_EEE7__clearB8ue170006Ev, symObjAddr: 0x253E0, symBinAddr: 0x100028EEC, symSize: 0x28 }
  - { offsetInCU: 0x45679, offset: 0x45679, size: 0x8, addend: 0x0, symName: __ZNKSt3__16vectorINS0_IiNS_9allocatorIiEEEENS1_IS3_EEE17__annotate_deleteB8ue170006Ev, symObjAddr: 0x25408, symBinAddr: 0x100028F14, symSize: 0xD4 }
  - { offsetInCU: 0x4569F, offset: 0x4569F, size: 0x8, addend: 0x0, symName: __ZNSt3__116allocator_traitsINS_9allocatorINS_6vectorIiNS1_IiEEEEEEE10deallocateB8ue170006ERS5_PS4_m, symObjAddr: 0x254DC, symBinAddr: 0x100028FE8, symSize: 0x34 }
  - { offsetInCU: 0x456E1, offset: 0x456E1, size: 0x8, addend: 0x0, symName: __ZNSt3__16vectorINS0_IiNS_9allocatorIiEEEENS1_IS3_EEE7__allocB8ue170006Ev, symObjAddr: 0x25510, symBinAddr: 0x10002901C, symSize: 0x28 }
  - { offsetInCU: 0x45707, offset: 0x45707, size: 0x8, addend: 0x0, symName: __ZNKSt3__16vectorINS0_IiNS_9allocatorIiEEEENS1_IS3_EEE8capacityB8ue170006Ev, symObjAddr: 0x25538, symBinAddr: 0x100029044, symSize: 0x40 }
  - { offsetInCU: 0x4572D, offset: 0x4572D, size: 0x8, addend: 0x0, symName: __ZNSt3__16vectorINS0_IiNS_9allocatorIiEEEENS1_IS3_EEE22__base_destruct_at_endB8ue170006EPS3_, symObjAddr: 0x25578, symBinAddr: 0x100029084, symSize: 0xA0 }
  - { offsetInCU: 0x45771, offset: 0x45771, size: 0x8, addend: 0x0, symName: __ZNSt3__116allocator_traitsINS_9allocatorINS_6vectorIiNS1_IiEEEEEEE7destroyB8ue170006IS4_vEEvRS5_PT_, symObjAddr: 0x25618, symBinAddr: 0x100029124, symSize: 0x2C }
  - { offsetInCU: 0x457AE, offset: 0x457AE, size: 0x8, addend: 0x0, symName: __ZNSt3__19allocatorINS_6vectorIiNS0_IiEEEEE7destroyB8ue170006EPS3_, symObjAddr: 0x25658, symBinAddr: 0x100029164, symSize: 0x28 }
  - { offsetInCU: 0x457E2, offset: 0x457E2, size: 0x8, addend: 0x0, symName: __ZNKSt3__16vectorINS0_IiNS_9allocatorIiEEEENS1_IS3_EEE31__annotate_contiguous_containerB8ue170006EPKvS7_S7_S7_, symObjAddr: 0x25680, symBinAddr: 0x10002918C, symSize: 0x20 }
  - { offsetInCU: 0x45834, offset: 0x45834, size: 0x8, addend: 0x0, symName: __ZNKSt3__16vectorINS0_IiNS_9allocatorIiEEEENS1_IS3_EEE4dataB8ue170006Ev, symObjAddr: 0x256A0, symBinAddr: 0x1000291AC, symSize: 0x28 }
  - { offsetInCU: 0x4585A, offset: 0x4585A, size: 0x8, addend: 0x0, symName: __ZNKSt3__16vectorINS0_IiNS_9allocatorIiEEEENS1_IS3_EEE4sizeB8ue170006Ev, symObjAddr: 0x256C8, symBinAddr: 0x1000291D4, symSize: 0x28 }
  - { offsetInCU: 0x45880, offset: 0x45880, size: 0x8, addend: 0x0, symName: __ZNSt3__19allocatorINS_6vectorIiNS0_IiEEEEE10deallocateB8ue170006EPS3_m, symObjAddr: 0x256F0, symBinAddr: 0x1000291FC, symSize: 0x74 }
  - { offsetInCU: 0x458C2, offset: 0x458C2, size: 0x8, addend: 0x0, symName: __ZNSt3__117__compressed_pairIPNS_6vectorIiNS_9allocatorIiEEEENS2_IS4_EEE6secondB8ue170006Ev, symObjAddr: 0x25764, symBinAddr: 0x100029270, symSize: 0x24 }
  - { offsetInCU: 0x458E8, offset: 0x458E8, size: 0x8, addend: 0x0, symName: __ZNSt3__122__compressed_pair_elemINS_9allocatorINS_6vectorIiNS1_IiEEEEEELi1ELb1EE5__getB8ue170006Ev, symObjAddr: 0x25788, symBinAddr: 0x100029294, symSize: 0x14 }
  - { offsetInCU: 0x4590E, offset: 0x4590E, size: 0x8, addend: 0x0, symName: __ZNKSt3__16vectorINS0_IiNS_9allocatorIiEEEENS1_IS3_EEE9__end_capB8ue170006Ev, symObjAddr: 0x2579C, symBinAddr: 0x1000292A8, symSize: 0x28 }
  - { offsetInCU: 0x45934, offset: 0x45934, size: 0x8, addend: 0x0, symName: __ZNKSt3__117__compressed_pairIPNS_6vectorIiNS_9allocatorIiEEEENS2_IS4_EEE5firstB8ue170006Ev, symObjAddr: 0x257C4, symBinAddr: 0x1000292D0, symSize: 0x24 }
  - { offsetInCU: 0x4595A, offset: 0x4595A, size: 0x8, addend: 0x0, symName: __ZNKSt3__122__compressed_pair_elemIPNS_6vectorIiNS_9allocatorIiEEEELi0ELb0EE5__getB8ue170006Ev, symObjAddr: 0x257E8, symBinAddr: 0x1000292F4, symSize: 0x14 }
  - { offsetInCU: 0x45980, offset: 0x45980, size: 0x8, addend: 0x0, symName: __ZNSt3__16vectorINS0_IiNS_9allocatorIiEEEENS1_IS3_EEE9push_backB8ue170006ERKS3_, symObjAddr: 0x257FC, symBinAddr: 0x100029308, symSize: 0x6C }
  - { offsetInCU: 0x459B7, offset: 0x459B7, size: 0x8, addend: 0x0, symName: __ZNKSt3__16vectorINS0_IiNS_9allocatorIiEEEENS1_IS3_EEEixB8ue170006Em, symObjAddr: 0x25868, symBinAddr: 0x100029374, symSize: 0x2C }
  - { offsetInCU: 0x459EE, offset: 0x459EE, size: 0x8, addend: 0x0, symName: __ZNKSt3__16vectorIiNS_9allocatorIiEEEixB8ue170006Em, symObjAddr: 0x25894, symBinAddr: 0x1000293A0, symSize: 0x24 }
  - { offsetInCU: 0x45A25, offset: 0x45A25, size: 0x8, addend: 0x0, symName: __ZNSt3__16vectorINS0_IiNS_9allocatorIiEEEENS1_IS3_EEE9__end_capB8ue170006Ev, symObjAddr: 0x258B8, symBinAddr: 0x1000293C4, symSize: 0x28 }
  - { offsetInCU: 0x45A4B, offset: 0x45A4B, size: 0x8, addend: 0x0, symName: __ZNSt3__16vectorINS0_IiNS_9allocatorIiEEEENS1_IS3_EEE22__construct_one_at_endB8ue170006IJRKS3_EEEvDpOT_, symObjAddr: 0x258E0, symBinAddr: 0x1000293EC, symSize: 0x98 }
  - { offsetInCU: 0x45A9A, offset: 0x45A9A, size: 0x8, addend: 0x0, symName: __ZNSt3__16vectorINS0_IiNS_9allocatorIiEEEENS1_IS3_EEE21__push_back_slow_pathIRKS3_EEvOT_, symObjAddr: 0x25978, symBinAddr: 0x100029484, symSize: 0xE0 }
  - { offsetInCU: 0x45AF8, offset: 0x45AF8, size: 0x8, addend: 0x0, symName: __ZNSt3__117__compressed_pairIPNS_6vectorIiNS_9allocatorIiEEEENS2_IS4_EEE5firstB8ue170006Ev, symObjAddr: 0x25A58, symBinAddr: 0x100029564, symSize: 0x24 }
  - { offsetInCU: 0x45B1E, offset: 0x45B1E, size: 0x8, addend: 0x0, symName: __ZNSt3__122__compressed_pair_elemIPNS_6vectorIiNS_9allocatorIiEEEELi0ELb0EE5__getB8ue170006Ev, symObjAddr: 0x25A7C, symBinAddr: 0x100029588, symSize: 0x14 }
  - { offsetInCU: 0x45B5F, offset: 0x45B5F, size: 0x8, addend: 0x0, symName: __ZNSt3__16vectorINS0_IiNS_9allocatorIiEEEENS1_IS3_EEE21_ConstructTransactionC1B8ue170006ERS5_m, symObjAddr: 0x25A90, symBinAddr: 0x10002959C, symSize: 0x3C }
  - { offsetInCU: 0x45BA7, offset: 0x45BA7, size: 0x8, addend: 0x0, symName: __ZNSt3__116allocator_traitsINS_9allocatorINS_6vectorIiNS1_IiEEEEEEE9constructB8ue170006IS4_JRKS4_EvEEvRS5_PT_DpOT0_, symObjAddr: 0x25ACC, symBinAddr: 0x1000295D8, symSize: 0x34 }
  - { offsetInCU: 0x45BFE, offset: 0x45BFE, size: 0x8, addend: 0x0, symName: __ZNSt3__16vectorINS0_IiNS_9allocatorIiEEEENS1_IS3_EEE21_ConstructTransactionD1B8ue170006Ev, symObjAddr: 0x25B00, symBinAddr: 0x10002960C, symSize: 0x2C }
  - { offsetInCU: 0x45C28, offset: 0x45C28, size: 0x8, addend: 0x0, symName: __ZNSt3__16vectorINS0_IiNS_9allocatorIiEEEENS1_IS3_EEE21_ConstructTransactionC2B8ue170006ERS5_m, symObjAddr: 0x25B2C, symBinAddr: 0x100029638, symSize: 0x4C }
  - { offsetInCU: 0x45C70, offset: 0x45C70, size: 0x8, addend: 0x0, symName: __ZNSt3__19allocatorINS_6vectorIiNS0_IiEEEEE9constructB8ue170006IS3_JRKS3_EEEvPT_DpOT0_, symObjAddr: 0x25B78, symBinAddr: 0x100029684, symSize: 0x30 }
  - { offsetInCU: 0x45CC6, offset: 0x45CC6, size: 0x8, addend: 0x0, symName: __ZNSt3__16vectorINS0_IiNS_9allocatorIiEEEENS1_IS3_EEE21_ConstructTransactionD2B8ue170006Ev, symObjAddr: 0x25BA8, symBinAddr: 0x1000296B4, symSize: 0x20 }
  - { offsetInCU: 0x45CF0, offset: 0x45CF0, size: 0x8, addend: 0x0, symName: __ZNKSt3__16vectorINS0_IiNS_9allocatorIiEEEENS1_IS3_EEE11__recommendB8ue170006Em, symObjAddr: 0x25BC8, symBinAddr: 0x1000296D4, symSize: 0xB4 }
  - { offsetInCU: 0x45D45, offset: 0x45D45, size: 0x8, addend: 0x0, symName: __ZNSt3__114__split_bufferINS_6vectorIiNS_9allocatorIiEEEERNS2_IS4_EEEC1EmmS6_, symObjAddr: 0x25C7C, symBinAddr: 0x100029788, symSize: 0x44 }
  - { offsetInCU: 0x45D9B, offset: 0x45D9B, size: 0x8, addend: 0x0, symName: __ZNSt3__114__split_bufferINS_6vectorIiNS_9allocatorIiEEEERNS2_IS4_EEED1Ev, symObjAddr: 0x25DD0, symBinAddr: 0x1000298DC, symSize: 0x2C }
  - { offsetInCU: 0x45DC7, offset: 0x45DC7, size: 0x8, addend: 0x0, symName: __ZNKSt3__16vectorINS0_IiNS_9allocatorIiEEEENS1_IS3_EEE8max_sizeEv, symObjAddr: 0x25DFC, symBinAddr: 0x100029908, symSize: 0x74 }
  - { offsetInCU: 0x45DEF, offset: 0x45DEF, size: 0x8, addend: 0x0, symName: __ZNKSt3__16vectorINS0_IiNS_9allocatorIiEEEENS1_IS3_EEE20__throw_length_errorB8ue170006Ev, symObjAddr: 0x25E70, symBinAddr: 0x10002997C, symSize: 0x1C }
  - { offsetInCU: 0x45E20, offset: 0x45E20, size: 0x8, addend: 0x0, symName: __ZNSt3__116allocator_traitsINS_9allocatorINS_6vectorIiNS1_IiEEEEEEE8max_sizeB8ue170006IS5_vEEmRKS5_, symObjAddr: 0x25E8C, symBinAddr: 0x100029998, symSize: 0x24 }
  - { offsetInCU: 0x45E4E, offset: 0x45E4E, size: 0x8, addend: 0x0, symName: __ZNKSt3__16vectorINS0_IiNS_9allocatorIiEEEENS1_IS3_EEE7__allocB8ue170006Ev, symObjAddr: 0x25EB0, symBinAddr: 0x1000299BC, symSize: 0x28 }
  - { offsetInCU: 0x45E74, offset: 0x45E74, size: 0x8, addend: 0x0, symName: __ZNKSt3__19allocatorINS_6vectorIiNS0_IiEEEEE8max_sizeB8ue170006Ev, symObjAddr: 0x25ED8, symBinAddr: 0x1000299E4, symSize: 0x18 }
  - { offsetInCU: 0x45E9A, offset: 0x45E9A, size: 0x8, addend: 0x0, symName: __ZNKSt3__117__compressed_pairIPNS_6vectorIiNS_9allocatorIiEEEENS2_IS4_EEE6secondB8ue170006Ev, symObjAddr: 0x25EF0, symBinAddr: 0x1000299FC, symSize: 0x24 }
  - { offsetInCU: 0x45EC0, offset: 0x45EC0, size: 0x8, addend: 0x0, symName: __ZNKSt3__122__compressed_pair_elemINS_9allocatorINS_6vectorIiNS1_IiEEEEEELi1ELb1EE5__getB8ue170006Ev, symObjAddr: 0x25F14, symBinAddr: 0x100029A20, symSize: 0x14 }
  - { offsetInCU: 0x45EE6, offset: 0x45EE6, size: 0x8, addend: 0x0, symName: __ZNSt3__114__split_bufferINS_6vectorIiNS_9allocatorIiEEEERNS2_IS4_EEEC2EmmS6_, symObjAddr: 0x25F28, symBinAddr: 0x100029A34, symSize: 0xE0 }
  - { offsetInCU: 0x45F59, offset: 0x45F59, size: 0x8, addend: 0x0, symName: __ZNSt3__117__compressed_pairIPNS_6vectorIiNS_9allocatorIiEEEERNS2_IS4_EEEC1B8ue170006IDnS7_EEOT_OT0_, symObjAddr: 0x26008, symBinAddr: 0x100029B14, symSize: 0x3C }
  - { offsetInCU: 0x45FB1, offset: 0x45FB1, size: 0x8, addend: 0x0, symName: __ZNSt3__114__split_bufferINS_6vectorIiNS_9allocatorIiEEEERNS2_IS4_EEE7__allocB8ue170006Ev, symObjAddr: 0x26084, symBinAddr: 0x100029B90, symSize: 0x28 }
  - { offsetInCU: 0x45FD7, offset: 0x45FD7, size: 0x8, addend: 0x0, symName: __ZNSt3__114__split_bufferINS_6vectorIiNS_9allocatorIiEEEERNS2_IS4_EEE9__end_capB8ue170006Ev, symObjAddr: 0x260AC, symBinAddr: 0x100029BB8, symSize: 0x28 }
  - { offsetInCU: 0x45FFD, offset: 0x45FFD, size: 0x8, addend: 0x0, symName: __ZNSt3__117__compressed_pairIPNS_6vectorIiNS_9allocatorIiEEEERNS2_IS4_EEEC2B8ue170006IDnS7_EEOT_OT0_, symObjAddr: 0x260D4, symBinAddr: 0x100029BE0, symSize: 0x48 }
  - { offsetInCU: 0x46055, offset: 0x46055, size: 0x8, addend: 0x0, symName: __ZNSt3__122__compressed_pair_elemIRNS_9allocatorINS_6vectorIiNS1_IiEEEEEELi1ELb0EEC2B8ue170006IS6_vEEOT_, symObjAddr: 0x2611C, symBinAddr: 0x100029C28, symSize: 0x20 }
  - { offsetInCU: 0x46097, offset: 0x46097, size: 0x8, addend: 0x0, symName: __ZNSt3__19allocatorINS_6vectorIiNS0_IiEEEEE8allocateB8ue170006Em, symObjAddr: 0x2613C, symBinAddr: 0x100029C48, symSize: 0x8C }
  - { offsetInCU: 0x460CB, offset: 0x460CB, size: 0x8, addend: 0x0, symName: __ZNSt3__117__compressed_pairIPNS_6vectorIiNS_9allocatorIiEEEERNS2_IS4_EEE6secondB8ue170006Ev, symObjAddr: 0x261C8, symBinAddr: 0x100029CD4, symSize: 0x28 }
  - { offsetInCU: 0x460F1, offset: 0x460F1, size: 0x8, addend: 0x0, symName: __ZNSt3__122__compressed_pair_elemIRNS_9allocatorINS_6vectorIiNS1_IiEEEEEELi1ELb0EE5__getB8ue170006Ev, symObjAddr: 0x261F0, symBinAddr: 0x100029CFC, symSize: 0x18 }
  - { offsetInCU: 0x46117, offset: 0x46117, size: 0x8, addend: 0x0, symName: __ZNSt3__117__compressed_pairIPNS_6vectorIiNS_9allocatorIiEEEERNS2_IS4_EEE5firstB8ue170006Ev, symObjAddr: 0x26208, symBinAddr: 0x100029D14, symSize: 0x24 }
  - { offsetInCU: 0x4613D, offset: 0x4613D, size: 0x8, addend: 0x0, symName: __ZNSt3__116reverse_iteratorIPNS_6vectorIiNS_9allocatorIiEEEEEC1B8ue170006ES5_, symObjAddr: 0x26360, symBinAddr: 0x100029E6C, symSize: 0x34 }
  - { offsetInCU: 0x46175, offset: 0x46175, size: 0x8, addend: 0x0, symName: __ZNKSt3__116reverse_iteratorIPNS_6vectorIiNS_9allocatorIiEEEEE4baseB8ue170006Ev, symObjAddr: 0x26394, symBinAddr: 0x100029EA0, symSize: 0x18 }
  - { offsetInCU: 0x4619B, offset: 0x4619B, size: 0x8, addend: 0x0, symName: __ZNKSt3__16vectorINS0_IiNS_9allocatorIiEEEENS1_IS3_EEE14__annotate_newB8ue170006Em, symObjAddr: 0x263E8, symBinAddr: 0x100029EF4, symSize: 0xC8 }
  - { offsetInCU: 0x461D0, offset: 0x461D0, size: 0x8, addend: 0x0, symName: __ZNSt3__129_AllocatorDestroyRangeReverseINS_9allocatorINS_6vectorIiNS1_IiEEEEEENS_16reverse_iteratorIPS4_EEEC1B8ue170006ERS5_RS8_SB_, symObjAddr: 0x264FC, symBinAddr: 0x10002A008, symSize: 0x44 }
  - { offsetInCU: 0x46227, offset: 0x46227, size: 0x8, addend: 0x0, symName: __ZNKSt3__116reverse_iteratorIPNS_6vectorIiNS_9allocatorIiEEEEEdeB8ue170006Ev, symObjAddr: 0x265AC, symBinAddr: 0x10002A0B8, symSize: 0x28 }
  - { offsetInCU: 0x4625B, offset: 0x4625B, size: 0x8, addend: 0x0, symName: __ZNSt3__116reverse_iteratorIPNS_6vectorIiNS_9allocatorIiEEEEEppB8ue170006Ev, symObjAddr: 0x265D4, symBinAddr: 0x10002A0E0, symSize: 0x20 }
  - { offsetInCU: 0x46281, offset: 0x46281, size: 0x8, addend: 0x0, symName: __ZNSt3__128__exception_guard_exceptionsINS_29_AllocatorDestroyRangeReverseINS_9allocatorINS_6vectorIiNS2_IiEEEEEENS_16reverse_iteratorIPS5_EEEEE10__completeB8ue170006Ev, symObjAddr: 0x265F4, symBinAddr: 0x10002A100, symSize: 0x1C }
  - { offsetInCU: 0x462A7, offset: 0x462A7, size: 0x8, addend: 0x0, symName: __ZNSt3__128__exception_guard_exceptionsINS_29_AllocatorDestroyRangeReverseINS_9allocatorINS_6vectorIiNS2_IiEEEEEENS_16reverse_iteratorIPS5_EEEEED1B8ue170006Ev, symObjAddr: 0x26610, symBinAddr: 0x10002A11C, symSize: 0x2C }
  - { offsetInCU: 0x462D1, offset: 0x462D1, size: 0x8, addend: 0x0, symName: __ZNSt3__128__exception_guard_exceptionsINS_29_AllocatorDestroyRangeReverseINS_9allocatorINS_6vectorIiNS2_IiEEEEEENS_16reverse_iteratorIPS5_EEEEEC1B8ue170006ESA_, symObjAddr: 0x2663C, symBinAddr: 0x10002A148, symSize: 0x34 }
  - { offsetInCU: 0x4630A, offset: 0x4630A, size: 0x8, addend: 0x0, symName: __ZNSt3__128__exception_guard_exceptionsINS_29_AllocatorDestroyRangeReverseINS_9allocatorINS_6vectorIiNS2_IiEEEEEENS_16reverse_iteratorIPS5_EEEEEC2B8ue170006ESA_, symObjAddr: 0x26670, symBinAddr: 0x10002A17C, symSize: 0x30 }
  - { offsetInCU: 0x46343, offset: 0x46343, size: 0x8, addend: 0x0, symName: __ZNSt3__129_AllocatorDestroyRangeReverseINS_9allocatorINS_6vectorIiNS1_IiEEEEEENS_16reverse_iteratorIPS4_EEEC2B8ue170006ERS5_RS8_SB_, symObjAddr: 0x266A0, symBinAddr: 0x10002A1AC, symSize: 0x38 }
  - { offsetInCU: 0x463A0, offset: 0x463A0, size: 0x8, addend: 0x0, symName: __ZNSt3__119__to_address_helperINS_16reverse_iteratorIPNS_6vectorIiNS_9allocatorIiEEEEEEvE6__callB8ue170006ERKS7_, symObjAddr: 0x266D8, symBinAddr: 0x10002A1E4, symSize: 0x4C }
  - { offsetInCU: 0x463C3, offset: 0x463C3, size: 0x8, addend: 0x0, symName: __ZNKSt3__116reverse_iteratorIPNS_6vectorIiNS_9allocatorIiEEEEEptB8ue170006Ev, symObjAddr: 0x26724, symBinAddr: 0x10002A230, symSize: 0x24 }
  - { offsetInCU: 0x463E9, offset: 0x463E9, size: 0x8, addend: 0x0, symName: __ZNSt3__128__exception_guard_exceptionsINS_29_AllocatorDestroyRangeReverseINS_9allocatorINS_6vectorIiNS2_IiEEEEEENS_16reverse_iteratorIPS5_EEEEED2B8ue170006Ev, symObjAddr: 0x26748, symBinAddr: 0x10002A254, symSize: 0x48 }
  - { offsetInCU: 0x46413, offset: 0x46413, size: 0x8, addend: 0x0, symName: __ZNKSt3__129_AllocatorDestroyRangeReverseINS_9allocatorINS_6vectorIiNS1_IiEEEEEENS_16reverse_iteratorIPS4_EEEclB8ue170006Ev, symObjAddr: 0x26790, symBinAddr: 0x10002A29C, symSize: 0xB4 }
  - { offsetInCU: 0x4643A, offset: 0x4643A, size: 0x8, addend: 0x0, symName: __ZNSt3__116reverse_iteratorINS0_IPNS_6vectorIiNS_9allocatorIiEEEEEEEC1B8ue170006ES6_, symObjAddr: 0x268B4, symBinAddr: 0x10002A3C0, symSize: 0x3C }
  - { offsetInCU: 0x46472, offset: 0x46472, size: 0x8, addend: 0x0, symName: __ZNSt3__116reverse_iteratorINS0_IPNS_6vectorIiNS_9allocatorIiEEEEEEEppB8ue170006Ev, symObjAddr: 0x26974, symBinAddr: 0x10002A480, symSize: 0x30 }
  - { offsetInCU: 0x46498, offset: 0x46498, size: 0x8, addend: 0x0, symName: __ZNKSt3__116reverse_iteratorINS0_IPNS_6vectorIiNS_9allocatorIiEEEEEEE4baseB8ue170006Ev, symObjAddr: 0x269A4, symBinAddr: 0x10002A4B0, symSize: 0x24 }
  - { offsetInCU: 0x464C4, offset: 0x464C4, size: 0x8, addend: 0x0, symName: __ZNSt3__119__to_address_helperINS_16reverse_iteratorINS1_IPNS_6vectorIiNS_9allocatorIiEEEEEEEEvE6__callB8ue170006ERKS8_, symObjAddr: 0x269C8, symBinAddr: 0x10002A4D4, symSize: 0x4C }
  - { offsetInCU: 0x464E7, offset: 0x464E7, size: 0x8, addend: 0x0, symName: __ZNKSt3__116reverse_iteratorINS0_IPNS_6vectorIiNS_9allocatorIiEEEEEEEptB8ue170006Ev, symObjAddr: 0x26A14, symBinAddr: 0x10002A520, symSize: 0x24 }
  - { offsetInCU: 0x4650D, offset: 0x4650D, size: 0x8, addend: 0x0, symName: __ZNKSt3__116reverse_iteratorINS0_IPNS_6vectorIiNS_9allocatorIiEEEEEEEdeB8ue170006Ev, symObjAddr: 0x26A38, symBinAddr: 0x10002A544, symSize: 0x34 }
  - { offsetInCU: 0x46541, offset: 0x46541, size: 0x8, addend: 0x0, symName: __ZNSt3__116reverse_iteratorIPNS_6vectorIiNS_9allocatorIiEEEEEmmB8ue170006Ev, symObjAddr: 0x26A6C, symBinAddr: 0x10002A578, symSize: 0x20 }
  - { offsetInCU: 0x46567, offset: 0x46567, size: 0x8, addend: 0x0, symName: __ZNSt3__116reverse_iteratorINS0_IPNS_6vectorIiNS_9allocatorIiEEEEEEEC2B8ue170006ES6_, symObjAddr: 0x26A8C, symBinAddr: 0x10002A598, symSize: 0x2C }
  - { offsetInCU: 0x4659F, offset: 0x4659F, size: 0x8, addend: 0x0, symName: __ZNSt3__116reverse_iteratorIPNS_6vectorIiNS_9allocatorIiEEEEEC2B8ue170006ES5_, symObjAddr: 0x26AB8, symBinAddr: 0x10002A5C4, symSize: 0x28 }
  - { offsetInCU: 0x465D7, offset: 0x465D7, size: 0x8, addend: 0x0, symName: __ZNSt3__114__split_bufferINS_6vectorIiNS_9allocatorIiEEEERNS2_IS4_EEED2Ev, symObjAddr: 0x26AE0, symBinAddr: 0x10002A5EC, symSize: 0x80 }
  - { offsetInCU: 0x46603, offset: 0x46603, size: 0x8, addend: 0x0, symName: __ZNSt3__114__split_bufferINS_6vectorIiNS_9allocatorIiEEEERNS2_IS4_EEE5clearB8ue170006Ev, symObjAddr: 0x26B60, symBinAddr: 0x10002A66C, symSize: 0x28 }
  - { offsetInCU: 0x46629, offset: 0x46629, size: 0x8, addend: 0x0, symName: __ZNKSt3__114__split_bufferINS_6vectorIiNS_9allocatorIiEEEERNS2_IS4_EEE8capacityB8ue170006Ev, symObjAddr: 0x26B88, symBinAddr: 0x10002A694, symSize: 0x40 }
  - { offsetInCU: 0x4664F, offset: 0x4664F, size: 0x8, addend: 0x0, symName: __ZNSt3__114__split_bufferINS_6vectorIiNS_9allocatorIiEEEERNS2_IS4_EEE17__destruct_at_endB8ue170006EPS4_, symObjAddr: 0x26BC8, symBinAddr: 0x10002A6D4, symSize: 0x2C }
  - { offsetInCU: 0x46683, offset: 0x46683, size: 0x8, addend: 0x0, symName: __ZNSt3__114__split_bufferINS_6vectorIiNS_9allocatorIiEEEERNS2_IS4_EEE17__destruct_at_endB8ue170006EPS4_NS_17integral_constantIbLb0EEE, symObjAddr: 0x26BF4, symBinAddr: 0x10002A700, symSize: 0x94 }
  - { offsetInCU: 0x466C3, offset: 0x466C3, size: 0x8, addend: 0x0, symName: __ZNKSt3__114__split_bufferINS_6vectorIiNS_9allocatorIiEEEERNS2_IS4_EEE9__end_capB8ue170006Ev, symObjAddr: 0x26C88, symBinAddr: 0x10002A794, symSize: 0x28 }
  - { offsetInCU: 0x466E9, offset: 0x466E9, size: 0x8, addend: 0x0, symName: __ZNKSt3__117__compressed_pairIPNS_6vectorIiNS_9allocatorIiEEEERNS2_IS4_EEE5firstB8ue170006Ev, symObjAddr: 0x26CB0, symBinAddr: 0x10002A7BC, symSize: 0x24 }
  - { offsetInCU: 0x4670F, offset: 0x4670F, size: 0x8, addend: 0x0, symName: __ZN14MinMaxACOModelC2ERK14ProgramOptionsj, symObjAddr: 0x26CD4, symBinAddr: 0x10002A7E0, symSize: 0x80 }
  - { offsetInCU: 0x46755, offset: 0x46755, size: 0x8, addend: 0x0, symName: __ZN15MatrixPheromoneC1Ev, symObjAddr: 0x26D54, symBinAddr: 0x10002A860, symSize: 0x2C }
  - { offsetInCU: 0x46781, offset: 0x46781, size: 0x8, addend: 0x0, symName: __ZN14MinMaxACOModel24init_trail_limits_smoothERK14ProgramOptions, symObjAddr: 0x26D80, symBinAddr: 0x10002A88C, symSize: 0x34 }
  - { offsetInCU: 0x467B5, offset: 0x467B5, size: 0x8, addend: 0x0, symName: __ZN15MatrixPheromoneC2Ev, symObjAddr: 0x26DB4, symBinAddr: 0x10002A8C0, symSize: 0x34 }
  - { offsetInCU: 0x467E1, offset: 0x467E1, size: 0x8, addend: 0x0, symName: __ZNSt3__16vectorIdNS_9allocatorIdEEEC1B8ue170006Ev, symObjAddr: 0x26DE8, symBinAddr: 0x10002A8F4, symSize: 0x2C }
  - { offsetInCU: 0x4680B, offset: 0x4680B, size: 0x8, addend: 0x0, symName: __ZNSt3__16vectorIdNS_9allocatorIdEEEC2B8ue170006Ev, symObjAddr: 0x26E14, symBinAddr: 0x10002A920, symSize: 0x44 }
  - { offsetInCU: 0x46835, offset: 0x46835, size: 0x8, addend: 0x0, symName: __ZNSt3__117__compressed_pairIPdNS_9allocatorIdEEEC1B8ue170006IDnNS_18__default_init_tagEEEOT_OT0_, symObjAddr: 0x26E58, symBinAddr: 0x10002A964, symSize: 0x3C }
  - { offsetInCU: 0x4688D, offset: 0x4688D, size: 0x8, addend: 0x0, symName: __ZNSt3__117__compressed_pairIPdNS_9allocatorIdEEEC2B8ue170006IDnNS_18__default_init_tagEEEOT_OT0_, symObjAddr: 0x26E94, symBinAddr: 0x10002A9A0, symSize: 0x40 }
  - { offsetInCU: 0x468E5, offset: 0x468E5, size: 0x8, addend: 0x0, symName: __ZNSt3__122__compressed_pair_elemIPdLi0ELb0EEC2B8ue170006IDnvEEOT_, symObjAddr: 0x26ED4, symBinAddr: 0x10002A9E0, symSize: 0x1C }
  - { offsetInCU: 0x46927, offset: 0x46927, size: 0x8, addend: 0x0, symName: __ZNSt3__122__compressed_pair_elemINS_9allocatorIdEELi1ELb1EEC2B8ue170006ENS_18__default_init_tagE, symObjAddr: 0x26EF0, symBinAddr: 0x10002A9FC, symSize: 0x2C }
  - { offsetInCU: 0x4695B, offset: 0x4695B, size: 0x8, addend: 0x0, symName: __ZNSt3__19allocatorIdEC2B8ue170006Ev, symObjAddr: 0x26F1C, symBinAddr: 0x10002AA28, symSize: 0x2C }
  - { offsetInCU: 0x46985, offset: 0x46985, size: 0x8, addend: 0x0, symName: __ZNSt3__116__non_trivial_ifILb1ENS_9allocatorIdEEEC2B8ue170006Ev, symObjAddr: 0x26F48, symBinAddr: 0x10002AA54, symSize: 0x14 }
  - { offsetInCU: 0x469AF, offset: 0x469AF, size: 0x8, addend: 0x0, symName: __ZN15MatrixPheromone11init_smoothEiRK14ProgramOptions, symObjAddr: 0x26F5C, symBinAddr: 0x10002AA68, symSize: 0xA0 }
  - { offsetInCU: 0x46A0D, offset: 0x46A0D, size: 0x8, addend: 0x0, symName: __ZNSt3__16vectorIdNS_9allocatorIdEEE9push_backB8ue170006ERKd, symObjAddr: 0x26FFC, symBinAddr: 0x10002AB08, symSize: 0x6C }
  - { offsetInCU: 0x46A44, offset: 0x46A44, size: 0x8, addend: 0x0, symName: __ZNSt3__16vectorIdNS_9allocatorIdEEE9__end_capB8ue170006Ev, symObjAddr: 0x27068, symBinAddr: 0x10002AB74, symSize: 0x28 }
  - { offsetInCU: 0x46A6A, offset: 0x46A6A, size: 0x8, addend: 0x0, symName: __ZNSt3__16vectorIdNS_9allocatorIdEEE22__construct_one_at_endB8ue170006IJRKdEEEvDpOT_, symObjAddr: 0x27090, symBinAddr: 0x10002AB9C, symSize: 0x98 }
  - { offsetInCU: 0x46AB9, offset: 0x46AB9, size: 0x8, addend: 0x0, symName: __ZNSt3__16vectorIdNS_9allocatorIdEEE21__push_back_slow_pathIRKdEEvOT_, symObjAddr: 0x27128, symBinAddr: 0x10002AC34, symSize: 0xE0 }
  - { offsetInCU: 0x46B17, offset: 0x46B17, size: 0x8, addend: 0x0, symName: __ZNSt3__117__compressed_pairIPdNS_9allocatorIdEEE5firstB8ue170006Ev, symObjAddr: 0x27208, symBinAddr: 0x10002AD14, symSize: 0x24 }
  - { offsetInCU: 0x46B3D, offset: 0x46B3D, size: 0x8, addend: 0x0, symName: __ZNSt3__122__compressed_pair_elemIPdLi0ELb0EE5__getB8ue170006Ev, symObjAddr: 0x2722C, symBinAddr: 0x10002AD38, symSize: 0x14 }
  - { offsetInCU: 0x46B7E, offset: 0x46B7E, size: 0x8, addend: 0x0, symName: __ZNSt3__16vectorIdNS_9allocatorIdEEE21_ConstructTransactionC1B8ue170006ERS3_m, symObjAddr: 0x27240, symBinAddr: 0x10002AD4C, symSize: 0x3C }
  - { offsetInCU: 0x46BC6, offset: 0x46BC6, size: 0x8, addend: 0x0, symName: __ZNSt3__116allocator_traitsINS_9allocatorIdEEE9constructB8ue170006IdJRKdEvEEvRS2_PT_DpOT0_, symObjAddr: 0x2727C, symBinAddr: 0x10002AD88, symSize: 0x34 }
  - { offsetInCU: 0x46C1D, offset: 0x46C1D, size: 0x8, addend: 0x0, symName: __ZNSt3__16vectorIdNS_9allocatorIdEEE7__allocB8ue170006Ev, symObjAddr: 0x272B0, symBinAddr: 0x10002ADBC, symSize: 0x28 }
  - { offsetInCU: 0x46C43, offset: 0x46C43, size: 0x8, addend: 0x0, symName: __ZNSt3__16vectorIdNS_9allocatorIdEEE21_ConstructTransactionD1B8ue170006Ev, symObjAddr: 0x272EC, symBinAddr: 0x10002ADF8, symSize: 0x2C }
  - { offsetInCU: 0x46C6D, offset: 0x46C6D, size: 0x8, addend: 0x0, symName: __ZNSt3__16vectorIdNS_9allocatorIdEEE21_ConstructTransactionC2B8ue170006ERS3_m, symObjAddr: 0x27318, symBinAddr: 0x10002AE24, symSize: 0x44 }
  - { offsetInCU: 0x46CB5, offset: 0x46CB5, size: 0x8, addend: 0x0, symName: __ZNSt3__19allocatorIdE9constructB8ue170006IdJRKdEEEvPT_DpOT0_, symObjAddr: 0x2735C, symBinAddr: 0x10002AE68, symSize: 0x28 }
  - { offsetInCU: 0x46D0B, offset: 0x46D0B, size: 0x8, addend: 0x0, symName: __ZNSt3__117__compressed_pairIPdNS_9allocatorIdEEE6secondB8ue170006Ev, symObjAddr: 0x27384, symBinAddr: 0x10002AE90, symSize: 0x24 }
  - { offsetInCU: 0x46D31, offset: 0x46D31, size: 0x8, addend: 0x0, symName: __ZNSt3__122__compressed_pair_elemINS_9allocatorIdEELi1ELb1EE5__getB8ue170006Ev, symObjAddr: 0x273A8, symBinAddr: 0x10002AEB4, symSize: 0x14 }
  - { offsetInCU: 0x46D57, offset: 0x46D57, size: 0x8, addend: 0x0, symName: __ZNSt3__16vectorIdNS_9allocatorIdEEE21_ConstructTransactionD2B8ue170006Ev, symObjAddr: 0x273BC, symBinAddr: 0x10002AEC8, symSize: 0x20 }
  - { offsetInCU: 0x46D81, offset: 0x46D81, size: 0x8, addend: 0x0, symName: __ZNKSt3__16vectorIdNS_9allocatorIdEEE11__recommendB8ue170006Em, symObjAddr: 0x273DC, symBinAddr: 0x10002AEE8, symSize: 0xB4 }
  - { offsetInCU: 0x46DD6, offset: 0x46DD6, size: 0x8, addend: 0x0, symName: __ZNKSt3__16vectorIdNS_9allocatorIdEEE4sizeB8ue170006Ev, symObjAddr: 0x27490, symBinAddr: 0x10002AF9C, symSize: 0x28 }
  - { offsetInCU: 0x46DFC, offset: 0x46DFC, size: 0x8, addend: 0x0, symName: __ZNSt3__114__split_bufferIdRNS_9allocatorIdEEEC1EmmS3_, symObjAddr: 0x274B8, symBinAddr: 0x10002AFC4, symSize: 0x44 }
  - { offsetInCU: 0x46E52, offset: 0x46E52, size: 0x8, addend: 0x0, symName: __ZNSt3__114__split_bufferIdRNS_9allocatorIdEEED1Ev, symObjAddr: 0x2760C, symBinAddr: 0x10002B118, symSize: 0x2C }
  - { offsetInCU: 0x46E7E, offset: 0x46E7E, size: 0x8, addend: 0x0, symName: __ZNKSt3__16vectorIdNS_9allocatorIdEEE8max_sizeEv, symObjAddr: 0x27638, symBinAddr: 0x10002B144, symSize: 0x74 }
  - { offsetInCU: 0x46EA6, offset: 0x46EA6, size: 0x8, addend: 0x0, symName: __ZNKSt3__16vectorIdNS_9allocatorIdEEE20__throw_length_errorB8ue170006Ev, symObjAddr: 0x276AC, symBinAddr: 0x10002B1B8, symSize: 0x1C }
  - { offsetInCU: 0x46ECC, offset: 0x46ECC, size: 0x8, addend: 0x0, symName: __ZNKSt3__16vectorIdNS_9allocatorIdEEE8capacityB8ue170006Ev, symObjAddr: 0x276C8, symBinAddr: 0x10002B1D4, symSize: 0x40 }
  - { offsetInCU: 0x46EFD, offset: 0x46EFD, size: 0x8, addend: 0x0, symName: __ZNSt3__116allocator_traitsINS_9allocatorIdEEE8max_sizeB8ue170006IS2_vEEmRKS2_, symObjAddr: 0x27708, symBinAddr: 0x10002B214, symSize: 0x24 }
  - { offsetInCU: 0x46F2B, offset: 0x46F2B, size: 0x8, addend: 0x0, symName: __ZNKSt3__16vectorIdNS_9allocatorIdEEE7__allocB8ue170006Ev, symObjAddr: 0x2772C, symBinAddr: 0x10002B238, symSize: 0x28 }
  - { offsetInCU: 0x46F51, offset: 0x46F51, size: 0x8, addend: 0x0, symName: __ZNKSt3__19allocatorIdE8max_sizeB8ue170006Ev, symObjAddr: 0x27754, symBinAddr: 0x10002B260, symSize: 0x14 }
  - { offsetInCU: 0x46F77, offset: 0x46F77, size: 0x8, addend: 0x0, symName: __ZNKSt3__117__compressed_pairIPdNS_9allocatorIdEEE6secondB8ue170006Ev, symObjAddr: 0x27768, symBinAddr: 0x10002B274, symSize: 0x24 }
  - { offsetInCU: 0x46F9D, offset: 0x46F9D, size: 0x8, addend: 0x0, symName: __ZNKSt3__122__compressed_pair_elemINS_9allocatorIdEELi1ELb1EE5__getB8ue170006Ev, symObjAddr: 0x2778C, symBinAddr: 0x10002B298, symSize: 0x14 }
  - { offsetInCU: 0x46FC3, offset: 0x46FC3, size: 0x8, addend: 0x0, symName: __ZNKSt3__16vectorIdNS_9allocatorIdEEE9__end_capB8ue170006Ev, symObjAddr: 0x277A0, symBinAddr: 0x10002B2AC, symSize: 0x28 }
  - { offsetInCU: 0x46FE9, offset: 0x46FE9, size: 0x8, addend: 0x0, symName: __ZNKSt3__117__compressed_pairIPdNS_9allocatorIdEEE5firstB8ue170006Ev, symObjAddr: 0x277C8, symBinAddr: 0x10002B2D4, symSize: 0x24 }
  - { offsetInCU: 0x4700F, offset: 0x4700F, size: 0x8, addend: 0x0, symName: __ZNKSt3__122__compressed_pair_elemIPdLi0ELb0EE5__getB8ue170006Ev, symObjAddr: 0x277EC, symBinAddr: 0x10002B2F8, symSize: 0x14 }
  - { offsetInCU: 0x47035, offset: 0x47035, size: 0x8, addend: 0x0, symName: __ZNSt3__114__split_bufferIdRNS_9allocatorIdEEEC2EmmS3_, symObjAddr: 0x27800, symBinAddr: 0x10002B30C, symSize: 0xD4 }
  - { offsetInCU: 0x470A8, offset: 0x470A8, size: 0x8, addend: 0x0, symName: __ZNSt3__117__compressed_pairIPdRNS_9allocatorIdEEEC1B8ue170006IDnS4_EEOT_OT0_, symObjAddr: 0x278D4, symBinAddr: 0x10002B3E0, symSize: 0x3C }
  - { offsetInCU: 0x47100, offset: 0x47100, size: 0x8, addend: 0x0, symName: __ZNSt3__114__split_bufferIdRNS_9allocatorIdEEE7__allocB8ue170006Ev, symObjAddr: 0x27950, symBinAddr: 0x10002B45C, symSize: 0x28 }
  - { offsetInCU: 0x47126, offset: 0x47126, size: 0x8, addend: 0x0, symName: __ZNSt3__114__split_bufferIdRNS_9allocatorIdEEE9__end_capB8ue170006Ev, symObjAddr: 0x27978, symBinAddr: 0x10002B484, symSize: 0x28 }
  - { offsetInCU: 0x4714C, offset: 0x4714C, size: 0x8, addend: 0x0, symName: __ZNSt3__117__compressed_pairIPdRNS_9allocatorIdEEEC2B8ue170006IDnS4_EEOT_OT0_, symObjAddr: 0x279A0, symBinAddr: 0x10002B4AC, symSize: 0x48 }
  - { offsetInCU: 0x471A4, offset: 0x471A4, size: 0x8, addend: 0x0, symName: __ZNSt3__122__compressed_pair_elemIRNS_9allocatorIdEELi1ELb0EEC2B8ue170006IS3_vEEOT_, symObjAddr: 0x279E8, symBinAddr: 0x10002B4F4, symSize: 0x20 }
  - { offsetInCU: 0x471E6, offset: 0x471E6, size: 0x8, addend: 0x0, symName: __ZNSt3__19allocatorIdE8allocateB8ue170006Em, symObjAddr: 0x27A08, symBinAddr: 0x10002B514, symSize: 0x84 }
  - { offsetInCU: 0x4721A, offset: 0x4721A, size: 0x8, addend: 0x0, symName: __ZNSt3__117__compressed_pairIPdRNS_9allocatorIdEEE6secondB8ue170006Ev, symObjAddr: 0x27A8C, symBinAddr: 0x10002B598, symSize: 0x28 }
  - { offsetInCU: 0x47240, offset: 0x47240, size: 0x8, addend: 0x0, symName: __ZNSt3__122__compressed_pair_elemIRNS_9allocatorIdEELi1ELb0EE5__getB8ue170006Ev, symObjAddr: 0x27AB4, symBinAddr: 0x10002B5C0, symSize: 0x18 }
  - { offsetInCU: 0x47266, offset: 0x47266, size: 0x8, addend: 0x0, symName: __ZNSt3__117__compressed_pairIPdRNS_9allocatorIdEEE5firstB8ue170006Ev, symObjAddr: 0x27ACC, symBinAddr: 0x10002B5D8, symSize: 0x24 }
  - { offsetInCU: 0x4728C, offset: 0x4728C, size: 0x8, addend: 0x0, symName: __ZNKSt3__16vectorIdNS_9allocatorIdEEE17__annotate_deleteB8ue170006Ev, symObjAddr: 0x27AF0, symBinAddr: 0x10002B5FC, symSize: 0xB8 }
  - { offsetInCU: 0x472B2, offset: 0x472B2, size: 0x8, addend: 0x0, symName: __ZNSt3__116reverse_iteratorIPdEC1B8ue170006ES1_, symObjAddr: 0x27C90, symBinAddr: 0x10002B79C, symSize: 0x34 }
  - { offsetInCU: 0x472EA, offset: 0x472EA, size: 0x8, addend: 0x0, symName: __ZNKSt3__116reverse_iteratorIPdE4baseB8ue170006Ev, symObjAddr: 0x27CC4, symBinAddr: 0x10002B7D0, symSize: 0x18 }
  - { offsetInCU: 0x47310, offset: 0x47310, size: 0x8, addend: 0x0, symName: __ZNKSt3__16vectorIdNS_9allocatorIdEEE14__annotate_newB8ue170006Em, symObjAddr: 0x27D18, symBinAddr: 0x10002B824, symSize: 0xAC }
  - { offsetInCU: 0x47345, offset: 0x47345, size: 0x8, addend: 0x0, symName: __ZNKSt3__16vectorIdNS_9allocatorIdEEE31__annotate_contiguous_containerB8ue170006EPKvS5_S5_S5_, symObjAddr: 0x27DC4, symBinAddr: 0x10002B8D0, symSize: 0x20 }
  - { offsetInCU: 0x47397, offset: 0x47397, size: 0x8, addend: 0x0, symName: __ZNKSt3__16vectorIdNS_9allocatorIdEEE4dataB8ue170006Ev, symObjAddr: 0x27DE4, symBinAddr: 0x10002B8F0, symSize: 0x28 }
  - { offsetInCU: 0x473BD, offset: 0x473BD, size: 0x8, addend: 0x0, symName: __ZNKSt3__116reverse_iteratorIPdEdeB8ue170006Ev, symObjAddr: 0x27EA4, symBinAddr: 0x10002B9B0, symSize: 0x28 }
  - { offsetInCU: 0x473F1, offset: 0x473F1, size: 0x8, addend: 0x0, symName: __ZNSt3__116reverse_iteratorIPdEppB8ue170006Ev, symObjAddr: 0x27ECC, symBinAddr: 0x10002B9D8, symSize: 0x20 }
  - { offsetInCU: 0x4741D, offset: 0x4741D, size: 0x8, addend: 0x0, symName: __ZNSt3__119__to_address_helperINS_16reverse_iteratorIPdEEvE6__callB8ue170006ERKS3_, symObjAddr: 0x27F64, symBinAddr: 0x10002BA70, symSize: 0x4C }
  - { offsetInCU: 0x47440, offset: 0x47440, size: 0x8, addend: 0x0, symName: __ZNKSt3__116reverse_iteratorIPdEptB8ue170006Ev, symObjAddr: 0x27FB0, symBinAddr: 0x10002BABC, symSize: 0x24 }
  - { offsetInCU: 0x47482, offset: 0x47482, size: 0x8, addend: 0x0, symName: __ZNKSt3__111__move_loopINS_17_ClassicAlgPolicyEEclB8ue170006INS_16reverse_iteratorIPdEES6_S6_EENS_4pairIT_T1_EES8_T0_S9_, symObjAddr: 0x2824C, symBinAddr: 0x10002BD58, symSize: 0xA0 }
  - { offsetInCU: 0x474F3, offset: 0x474F3, size: 0x8, addend: 0x0, symName: __ZNSt3__18_IterOpsINS_17_ClassicAlgPolicyEE11__iter_moveB8ue170006IRNS_16reverse_iteratorIPdEEEENS_9enable_ifIXsr12is_referenceIDTdeclsr3stdE7declvalIRT_EEEEE5valueEDTclsr3stdE4movedeclsr3stdE7declvalISA_EEEEE4typeEOS9_, symObjAddr: 0x2844C, symBinAddr: 0x10002BF58, symSize: 0x28 }
  - { offsetInCU: 0x4751F, offset: 0x4751F, size: 0x8, addend: 0x0, symName: __ZNSt3__18_IterOpsINS_17_ClassicAlgPolicyEE25__validate_iter_referenceB8ue170006IRNS_16reverse_iteratorIPdEEEEvv, symObjAddr: 0x28474, symBinAddr: 0x10002BF80, symSize: 0x4 }
  - { offsetInCU: 0x4753D, offset: 0x4753D, size: 0x8, addend: 0x0, symName: __ZNSt3__118__unwrap_iter_implINS_16reverse_iteratorIPdEELb0EE8__unwrapB8ue170006ES3_, symObjAddr: 0x28478, symBinAddr: 0x10002BF84, symSize: 0x24 }
  - { offsetInCU: 0x47560, offset: 0x47560, size: 0x8, addend: 0x0, symName: __ZNSt3__14pairINS_16reverse_iteratorIPdEES3_EC1B8ue170006ERKS3_S6_, symObjAddr: 0x2849C, symBinAddr: 0x10002BFA8, symSize: 0x3C }
  - { offsetInCU: 0x475A6, offset: 0x475A6, size: 0x8, addend: 0x0, symName: __ZNSt3__14pairINS_16reverse_iteratorIPdEES3_EC2B8ue170006ERKS3_S6_, symObjAddr: 0x284D8, symBinAddr: 0x10002BFE4, symSize: 0x34 }
  - { offsetInCU: 0x475EC, offset: 0x475EC, size: 0x8, addend: 0x0, symName: __ZNSt3__118__unwrap_iter_implINS_16reverse_iteratorIPdEELb0EE8__rewrapB8ue170006ES3_S3_, symObjAddr: 0x2850C, symBinAddr: 0x10002C018, symSize: 0x2C }
  - { offsetInCU: 0x47619, offset: 0x47619, size: 0x8, addend: 0x0, symName: __ZNSt3__116reverse_iteratorIPdEC2B8ue170006ES1_, symObjAddr: 0x28538, symBinAddr: 0x10002C044, symSize: 0x28 }
  - { offsetInCU: 0x47651, offset: 0x47651, size: 0x8, addend: 0x0, symName: __ZNSt3__114__split_bufferIdRNS_9allocatorIdEEED2Ev, symObjAddr: 0x28560, symBinAddr: 0x10002C06C, symSize: 0x80 }
  - { offsetInCU: 0x4767D, offset: 0x4767D, size: 0x8, addend: 0x0, symName: __ZNSt3__114__split_bufferIdRNS_9allocatorIdEEE5clearB8ue170006Ev, symObjAddr: 0x285E0, symBinAddr: 0x10002C0EC, symSize: 0x28 }
  - { offsetInCU: 0x476A3, offset: 0x476A3, size: 0x8, addend: 0x0, symName: __ZNSt3__116allocator_traitsINS_9allocatorIdEEE10deallocateB8ue170006ERS2_Pdm, symObjAddr: 0x28608, symBinAddr: 0x10002C114, symSize: 0x34 }
  - { offsetInCU: 0x476E5, offset: 0x476E5, size: 0x8, addend: 0x0, symName: __ZNKSt3__114__split_bufferIdRNS_9allocatorIdEEE8capacityB8ue170006Ev, symObjAddr: 0x2863C, symBinAddr: 0x10002C148, symSize: 0x40 }
  - { offsetInCU: 0x4770B, offset: 0x4770B, size: 0x8, addend: 0x0, symName: __ZNSt3__114__split_bufferIdRNS_9allocatorIdEEE17__destruct_at_endB8ue170006EPd, symObjAddr: 0x2867C, symBinAddr: 0x10002C188, symSize: 0x2C }
  - { offsetInCU: 0x4773F, offset: 0x4773F, size: 0x8, addend: 0x0, symName: __ZNSt3__114__split_bufferIdRNS_9allocatorIdEEE17__destruct_at_endB8ue170006EPdNS_17integral_constantIbLb0EEE, symObjAddr: 0x286A8, symBinAddr: 0x10002C1B4, symSize: 0x94 }
  - { offsetInCU: 0x4777F, offset: 0x4777F, size: 0x8, addend: 0x0, symName: __ZNSt3__116allocator_traitsINS_9allocatorIdEEE7destroyB8ue170006IdvEEvRS2_PT_, symObjAddr: 0x2873C, symBinAddr: 0x10002C248, symSize: 0x2C }
  - { offsetInCU: 0x477BC, offset: 0x477BC, size: 0x8, addend: 0x0, symName: __ZNSt3__19allocatorIdE7destroyB8ue170006EPd, symObjAddr: 0x28768, symBinAddr: 0x10002C274, symSize: 0x14 }
  - { offsetInCU: 0x477F0, offset: 0x477F0, size: 0x8, addend: 0x0, symName: __ZNSt3__19allocatorIdE10deallocateB8ue170006EPdm, symObjAddr: 0x2877C, symBinAddr: 0x10002C288, symSize: 0x70 }
  - { offsetInCU: 0x47832, offset: 0x47832, size: 0x8, addend: 0x0, symName: __ZNKSt3__114__split_bufferIdRNS_9allocatorIdEEE9__end_capB8ue170006Ev, symObjAddr: 0x287EC, symBinAddr: 0x10002C2F8, symSize: 0x28 }
  - { offsetInCU: 0x47858, offset: 0x47858, size: 0x8, addend: 0x0, symName: __ZNKSt3__117__compressed_pairIPdRNS_9allocatorIdEEE5firstB8ue170006Ev, symObjAddr: 0x28814, symBinAddr: 0x10002C320, symSize: 0x24 }
  - { offsetInCU: 0x4787E, offset: 0x4787E, size: 0x8, addend: 0x0, symName: __ZNSt3__16vectorIjNS_9allocatorIjEEE6resizeEm, symObjAddr: 0x28838, symBinAddr: 0x10002C344, symSize: 0x94 }
  - { offsetInCU: 0x478C4, offset: 0x478C4, size: 0x8, addend: 0x0, symName: __ZNSt3__16vectorIjNS_9allocatorIjEEE5beginB8ue170006Ev, symObjAddr: 0x2893C, symBinAddr: 0x10002C448, symSize: 0x30 }
  - { offsetInCU: 0x478EC, offset: 0x478EC, size: 0x8, addend: 0x0, symName: __ZNSt3__16vectorIjNS_9allocatorIjEEE3endB8ue170006Ev, symObjAddr: 0x2896C, symBinAddr: 0x10002C478, symSize: 0x30 }
  - { offsetInCU: 0x47914, offset: 0x47914, size: 0x8, addend: 0x0, symName: __ZN7Bitmask6resizeEj, symObjAddr: 0x2899C, symBinAddr: 0x10002C4A8, symSize: 0xB0 }
  - { offsetInCU: 0x47964, offset: 0x47964, size: 0x8, addend: 0x0, symName: __ZN7Bitmask5clearEv, symObjAddr: 0x28A4C, symBinAddr: 0x10002C558, symSize: 0x54 }
  - { offsetInCU: 0x4798A, offset: 0x4798A, size: 0x8, addend: 0x0, symName: __ZNSt3__16vectorIjNS_9allocatorIjEEE8__appendEm, symObjAddr: 0x28AA0, symBinAddr: 0x10002C5AC, symSize: 0x110 }
  - { offsetInCU: 0x479E5, offset: 0x479E5, size: 0x8, addend: 0x0, symName: __ZNSt3__16vectorIjNS_9allocatorIjEEE17__destruct_at_endB8ue170006EPj, symObjAddr: 0x28BB0, symBinAddr: 0x10002C6BC, symSize: 0x4C }
  - { offsetInCU: 0x47A29, offset: 0x47A29, size: 0x8, addend: 0x0, symName: __ZNSt3__16vectorIjNS_9allocatorIjEEE9__end_capB8ue170006Ev, symObjAddr: 0x28BFC, symBinAddr: 0x10002C708, symSize: 0x28 }
  - { offsetInCU: 0x47A4F, offset: 0x47A4F, size: 0x8, addend: 0x0, symName: __ZNSt3__16vectorIjNS_9allocatorIjEEE18__construct_at_endEm, symObjAddr: 0x28C24, symBinAddr: 0x10002C730, symSize: 0xD0 }
  - { offsetInCU: 0x47AC1, offset: 0x47AC1, size: 0x8, addend: 0x0, symName: __ZNSt3__16vectorIjNS_9allocatorIjEEE7__allocB8ue170006Ev, symObjAddr: 0x28CF4, symBinAddr: 0x10002C800, symSize: 0x28 }
  - { offsetInCU: 0x47AE7, offset: 0x47AE7, size: 0x8, addend: 0x0, symName: __ZNKSt3__16vectorIjNS_9allocatorIjEEE11__recommendB8ue170006Em, symObjAddr: 0x28D1C, symBinAddr: 0x10002C828, symSize: 0xB4 }
  - { offsetInCU: 0x47B3C, offset: 0x47B3C, size: 0x8, addend: 0x0, symName: __ZNSt3__114__split_bufferIjRNS_9allocatorIjEEEC1EmmS3_, symObjAddr: 0x28DD0, symBinAddr: 0x10002C8DC, symSize: 0x44 }
  - { offsetInCU: 0x47B92, offset: 0x47B92, size: 0x8, addend: 0x0, symName: __ZNSt3__114__split_bufferIjRNS_9allocatorIjEEE18__construct_at_endEm, symObjAddr: 0x28E14, symBinAddr: 0x10002C920, symSize: 0xBC }
  - { offsetInCU: 0x47BD7, offset: 0x47BD7, size: 0x8, addend: 0x0, symName: __ZNSt3__114__split_bufferIjRNS_9allocatorIjEEED1Ev, symObjAddr: 0x28FE0, symBinAddr: 0x10002CAEC, symSize: 0x2C }
  - { offsetInCU: 0x47C03, offset: 0x47C03, size: 0x8, addend: 0x0, symName: __ZNSt3__117__compressed_pairIPjNS_9allocatorIjEEE5firstB8ue170006Ev, symObjAddr: 0x2900C, symBinAddr: 0x10002CB18, symSize: 0x24 }
  - { offsetInCU: 0x47C29, offset: 0x47C29, size: 0x8, addend: 0x0, symName: __ZNSt3__122__compressed_pair_elemIPjLi0ELb0EE5__getB8ue170006Ev, symObjAddr: 0x29030, symBinAddr: 0x10002CB3C, symSize: 0x14 }
  - { offsetInCU: 0x47C6A, offset: 0x47C6A, size: 0x8, addend: 0x0, symName: __ZNSt3__16vectorIjNS_9allocatorIjEEE21_ConstructTransactionC1B8ue170006ERS3_m, symObjAddr: 0x29044, symBinAddr: 0x10002CB50, symSize: 0x3C }
  - { offsetInCU: 0x47CB2, offset: 0x47CB2, size: 0x8, addend: 0x0, symName: __ZNSt3__116allocator_traitsINS_9allocatorIjEEE9constructB8ue170006IjJEvEEvRS2_PT_DpOT0_, symObjAddr: 0x29080, symBinAddr: 0x10002CB8C, symSize: 0x2C }
  - { offsetInCU: 0x47CF4, offset: 0x47CF4, size: 0x8, addend: 0x0, symName: __ZNSt3__16vectorIjNS_9allocatorIjEEE21_ConstructTransactionD1B8ue170006Ev, symObjAddr: 0x290C0, symBinAddr: 0x10002CBCC, symSize: 0x2C }
  - { offsetInCU: 0x47D1E, offset: 0x47D1E, size: 0x8, addend: 0x0, symName: __ZNSt3__16vectorIjNS_9allocatorIjEEE21_ConstructTransactionC2B8ue170006ERS3_m, symObjAddr: 0x290EC, symBinAddr: 0x10002CBF8, symSize: 0x44 }
  - { offsetInCU: 0x47D66, offset: 0x47D66, size: 0x8, addend: 0x0, symName: __ZNSt3__19allocatorIjE9constructB8ue170006IjJEEEvPT_DpOT0_, symObjAddr: 0x29130, symBinAddr: 0x10002CC3C, symSize: 0x1C }
  - { offsetInCU: 0x47DA8, offset: 0x47DA8, size: 0x8, addend: 0x0, symName: __ZNSt3__16vectorIjNS_9allocatorIjEEE21_ConstructTransactionD2B8ue170006Ev, symObjAddr: 0x2914C, symBinAddr: 0x10002CC58, symSize: 0x20 }
  - { offsetInCU: 0x47DD2, offset: 0x47DD2, size: 0x8, addend: 0x0, symName: __ZNSt3__117__compressed_pairIPjNS_9allocatorIjEEE6secondB8ue170006Ev, symObjAddr: 0x2916C, symBinAddr: 0x10002CC78, symSize: 0x24 }
  - { offsetInCU: 0x47DF8, offset: 0x47DF8, size: 0x8, addend: 0x0, symName: __ZNSt3__122__compressed_pair_elemINS_9allocatorIjEELi1ELb1EE5__getB8ue170006Ev, symObjAddr: 0x29190, symBinAddr: 0x10002CC9C, symSize: 0x14 }
  - { offsetInCU: 0x47E1E, offset: 0x47E1E, size: 0x8, addend: 0x0, symName: __ZNKSt3__16vectorIjNS_9allocatorIjEEE8max_sizeEv, symObjAddr: 0x291A4, symBinAddr: 0x10002CCB0, symSize: 0x74 }
  - { offsetInCU: 0x47E46, offset: 0x47E46, size: 0x8, addend: 0x0, symName: __ZNKSt3__16vectorIjNS_9allocatorIjEEE20__throw_length_errorB8ue170006Ev, symObjAddr: 0x29218, symBinAddr: 0x10002CD24, symSize: 0x1C }
  - { offsetInCU: 0x47E6C, offset: 0x47E6C, size: 0x8, addend: 0x0, symName: __ZNKSt3__16vectorIjNS_9allocatorIjEEE8capacityB8ue170006Ev, symObjAddr: 0x29234, symBinAddr: 0x10002CD40, symSize: 0x40 }
  - { offsetInCU: 0x47E9D, offset: 0x47E9D, size: 0x8, addend: 0x0, symName: __ZNSt3__116allocator_traitsINS_9allocatorIjEEE8max_sizeB8ue170006IS2_vEEmRKS2_, symObjAddr: 0x29274, symBinAddr: 0x10002CD80, symSize: 0x24 }
  - { offsetInCU: 0x47ECB, offset: 0x47ECB, size: 0x8, addend: 0x0, symName: __ZNKSt3__16vectorIjNS_9allocatorIjEEE7__allocB8ue170006Ev, symObjAddr: 0x29298, symBinAddr: 0x10002CDA4, symSize: 0x28 }
  - { offsetInCU: 0x47EF1, offset: 0x47EF1, size: 0x8, addend: 0x0, symName: __ZNKSt3__19allocatorIjE8max_sizeB8ue170006Ev, symObjAddr: 0x292C0, symBinAddr: 0x10002CDCC, symSize: 0x14 }
  - { offsetInCU: 0x47F17, offset: 0x47F17, size: 0x8, addend: 0x0, symName: __ZNKSt3__117__compressed_pairIPjNS_9allocatorIjEEE6secondB8ue170006Ev, symObjAddr: 0x292D4, symBinAddr: 0x10002CDE0, symSize: 0x24 }
  - { offsetInCU: 0x47F3D, offset: 0x47F3D, size: 0x8, addend: 0x0, symName: __ZNKSt3__122__compressed_pair_elemINS_9allocatorIjEELi1ELb1EE5__getB8ue170006Ev, symObjAddr: 0x292F8, symBinAddr: 0x10002CE04, symSize: 0x14 }
  - { offsetInCU: 0x47F63, offset: 0x47F63, size: 0x8, addend: 0x0, symName: __ZNKSt3__16vectorIjNS_9allocatorIjEEE9__end_capB8ue170006Ev, symObjAddr: 0x2930C, symBinAddr: 0x10002CE18, symSize: 0x28 }
  - { offsetInCU: 0x47F89, offset: 0x47F89, size: 0x8, addend: 0x0, symName: __ZNKSt3__117__compressed_pairIPjNS_9allocatorIjEEE5firstB8ue170006Ev, symObjAddr: 0x29334, symBinAddr: 0x10002CE40, symSize: 0x24 }
  - { offsetInCU: 0x47FAF, offset: 0x47FAF, size: 0x8, addend: 0x0, symName: __ZNKSt3__122__compressed_pair_elemIPjLi0ELb0EE5__getB8ue170006Ev, symObjAddr: 0x29358, symBinAddr: 0x10002CE64, symSize: 0x14 }
  - { offsetInCU: 0x47FD5, offset: 0x47FD5, size: 0x8, addend: 0x0, symName: __ZNSt3__114__split_bufferIjRNS_9allocatorIjEEEC2EmmS3_, symObjAddr: 0x2936C, symBinAddr: 0x10002CE78, symSize: 0xD4 }
  - { offsetInCU: 0x48048, offset: 0x48048, size: 0x8, addend: 0x0, symName: __ZNSt3__117__compressed_pairIPjRNS_9allocatorIjEEEC1B8ue170006IDnS4_EEOT_OT0_, symObjAddr: 0x29440, symBinAddr: 0x10002CF4C, symSize: 0x3C }
  - { offsetInCU: 0x480A0, offset: 0x480A0, size: 0x8, addend: 0x0, symName: __ZNSt3__114__split_bufferIjRNS_9allocatorIjEEE7__allocB8ue170006Ev, symObjAddr: 0x294BC, symBinAddr: 0x10002CFC8, symSize: 0x28 }
  - { offsetInCU: 0x480C6, offset: 0x480C6, size: 0x8, addend: 0x0, symName: __ZNSt3__114__split_bufferIjRNS_9allocatorIjEEE9__end_capB8ue170006Ev, symObjAddr: 0x294E4, symBinAddr: 0x10002CFF0, symSize: 0x28 }
  - { offsetInCU: 0x480EC, offset: 0x480EC, size: 0x8, addend: 0x0, symName: __ZNSt3__117__compressed_pairIPjRNS_9allocatorIjEEEC2B8ue170006IDnS4_EEOT_OT0_, symObjAddr: 0x2950C, symBinAddr: 0x10002D018, symSize: 0x48 }
  - { offsetInCU: 0x48144, offset: 0x48144, size: 0x8, addend: 0x0, symName: __ZNSt3__122__compressed_pair_elemIRNS_9allocatorIjEELi1ELb0EEC2B8ue170006IS3_vEEOT_, symObjAddr: 0x29554, symBinAddr: 0x10002D060, symSize: 0x20 }
  - { offsetInCU: 0x48186, offset: 0x48186, size: 0x8, addend: 0x0, symName: __ZNSt3__19allocatorIjE8allocateB8ue170006Em, symObjAddr: 0x29574, symBinAddr: 0x10002D080, symSize: 0x84 }
  - { offsetInCU: 0x481BA, offset: 0x481BA, size: 0x8, addend: 0x0, symName: __ZNSt3__117__compressed_pairIPjRNS_9allocatorIjEEE6secondB8ue170006Ev, symObjAddr: 0x295F8, symBinAddr: 0x10002D104, symSize: 0x28 }
  - { offsetInCU: 0x481E0, offset: 0x481E0, size: 0x8, addend: 0x0, symName: __ZNSt3__122__compressed_pair_elemIRNS_9allocatorIjEELi1ELb0EE5__getB8ue170006Ev, symObjAddr: 0x29620, symBinAddr: 0x10002D12C, symSize: 0x18 }
  - { offsetInCU: 0x48206, offset: 0x48206, size: 0x8, addend: 0x0, symName: __ZNSt3__117__compressed_pairIPjRNS_9allocatorIjEEE5firstB8ue170006Ev, symObjAddr: 0x29638, symBinAddr: 0x10002D144, symSize: 0x24 }
  - { offsetInCU: 0x48236, offset: 0x48236, size: 0x8, addend: 0x0, symName: __ZNSt3__114__split_bufferIjRNS_9allocatorIjEEE21_ConstructTransactionC1B8ue170006EPPjm, symObjAddr: 0x2965C, symBinAddr: 0x10002D168, symSize: 0x3C }
  - { offsetInCU: 0x4827C, offset: 0x4827C, size: 0x8, addend: 0x0, symName: __ZNSt3__114__split_bufferIjRNS_9allocatorIjEEE21_ConstructTransactionD1B8ue170006Ev, symObjAddr: 0x29698, symBinAddr: 0x10002D1A4, symSize: 0x2C }
  - { offsetInCU: 0x482A6, offset: 0x482A6, size: 0x8, addend: 0x0, symName: __ZNSt3__114__split_bufferIjRNS_9allocatorIjEEE21_ConstructTransactionC2B8ue170006EPPjm, symObjAddr: 0x296C4, symBinAddr: 0x10002D1D0, symSize: 0x44 }
  - { offsetInCU: 0x482EC, offset: 0x482EC, size: 0x8, addend: 0x0, symName: __ZNSt3__114__split_bufferIjRNS_9allocatorIjEEE21_ConstructTransactionD2B8ue170006Ev, symObjAddr: 0x29708, symBinAddr: 0x10002D214, symSize: 0x20 }
  - { offsetInCU: 0x48316, offset: 0x48316, size: 0x8, addend: 0x0, symName: __ZNKSt3__16vectorIjNS_9allocatorIjEEE17__annotate_deleteB8ue170006Ev, symObjAddr: 0x29728, symBinAddr: 0x10002D234, symSize: 0xB8 }
  - { offsetInCU: 0x4833C, offset: 0x4833C, size: 0x8, addend: 0x0, symName: __ZNSt3__116reverse_iteratorIPjEC1B8ue170006ES1_, symObjAddr: 0x298C8, symBinAddr: 0x10002D3D4, symSize: 0x34 }
  - { offsetInCU: 0x48374, offset: 0x48374, size: 0x8, addend: 0x0, symName: __ZNKSt3__116reverse_iteratorIPjE4baseB8ue170006Ev, symObjAddr: 0x298FC, symBinAddr: 0x10002D408, symSize: 0x18 }
  - { offsetInCU: 0x4839A, offset: 0x4839A, size: 0x8, addend: 0x0, symName: __ZNKSt3__16vectorIjNS_9allocatorIjEEE14__annotate_newB8ue170006Em, symObjAddr: 0x29950, symBinAddr: 0x10002D45C, symSize: 0xAC }
  - { offsetInCU: 0x483CF, offset: 0x483CF, size: 0x8, addend: 0x0, symName: __ZNKSt3__16vectorIjNS_9allocatorIjEEE31__annotate_contiguous_containerB8ue170006EPKvS5_S5_S5_, symObjAddr: 0x299FC, symBinAddr: 0x10002D508, symSize: 0x20 }
  - { offsetInCU: 0x48421, offset: 0x48421, size: 0x8, addend: 0x0, symName: __ZNKSt3__16vectorIjNS_9allocatorIjEEE4dataB8ue170006Ev, symObjAddr: 0x29A1C, symBinAddr: 0x10002D528, symSize: 0x28 }
  - { offsetInCU: 0x48447, offset: 0x48447, size: 0x8, addend: 0x0, symName: __ZNKSt3__116reverse_iteratorIPjEdeB8ue170006Ev, symObjAddr: 0x29ADC, symBinAddr: 0x10002D5E8, symSize: 0x28 }
  - { offsetInCU: 0x4847B, offset: 0x4847B, size: 0x8, addend: 0x0, symName: __ZNSt3__116reverse_iteratorIPjEppB8ue170006Ev, symObjAddr: 0x29B04, symBinAddr: 0x10002D610, symSize: 0x20 }
  - { offsetInCU: 0x484A7, offset: 0x484A7, size: 0x8, addend: 0x0, symName: __ZNSt3__119__to_address_helperINS_16reverse_iteratorIPjEEvE6__callB8ue170006ERKS3_, symObjAddr: 0x29B9C, symBinAddr: 0x10002D6A8, symSize: 0x4C }
  - { offsetInCU: 0x484CA, offset: 0x484CA, size: 0x8, addend: 0x0, symName: __ZNKSt3__116reverse_iteratorIPjEptB8ue170006Ev, symObjAddr: 0x29BE8, symBinAddr: 0x10002D6F4, symSize: 0x24 }
  - { offsetInCU: 0x4850C, offset: 0x4850C, size: 0x8, addend: 0x0, symName: __ZNKSt3__111__move_loopINS_17_ClassicAlgPolicyEEclB8ue170006INS_16reverse_iteratorIPjEES6_S6_EENS_4pairIT_T1_EES8_T0_S9_, symObjAddr: 0x29E84, symBinAddr: 0x10002D990, symSize: 0xA0 }
  - { offsetInCU: 0x4857D, offset: 0x4857D, size: 0x8, addend: 0x0, symName: __ZNSt3__18_IterOpsINS_17_ClassicAlgPolicyEE11__iter_moveB8ue170006IRNS_16reverse_iteratorIPjEEEENS_9enable_ifIXsr12is_referenceIDTdeclsr3stdE7declvalIRT_EEEEE5valueEDTclsr3stdE4movedeclsr3stdE7declvalISA_EEEEE4typeEOS9_, symObjAddr: 0x2A084, symBinAddr: 0x10002DB90, symSize: 0x28 }
  - { offsetInCU: 0x485A9, offset: 0x485A9, size: 0x8, addend: 0x0, symName: __ZNSt3__18_IterOpsINS_17_ClassicAlgPolicyEE25__validate_iter_referenceB8ue170006IRNS_16reverse_iteratorIPjEEEEvv, symObjAddr: 0x2A0AC, symBinAddr: 0x10002DBB8, symSize: 0x4 }
  - { offsetInCU: 0x485C7, offset: 0x485C7, size: 0x8, addend: 0x0, symName: __ZNSt3__118__unwrap_iter_implINS_16reverse_iteratorIPjEELb0EE8__unwrapB8ue170006ES3_, symObjAddr: 0x2A0B0, symBinAddr: 0x10002DBBC, symSize: 0x24 }
  - { offsetInCU: 0x485EA, offset: 0x485EA, size: 0x8, addend: 0x0, symName: __ZNSt3__14pairINS_16reverse_iteratorIPjEES3_EC1B8ue170006ERKS3_S6_, symObjAddr: 0x2A0D4, symBinAddr: 0x10002DBE0, symSize: 0x3C }
  - { offsetInCU: 0x48630, offset: 0x48630, size: 0x8, addend: 0x0, symName: __ZNSt3__14pairINS_16reverse_iteratorIPjEES3_EC2B8ue170006ERKS3_S6_, symObjAddr: 0x2A110, symBinAddr: 0x10002DC1C, symSize: 0x34 }
  - { offsetInCU: 0x48676, offset: 0x48676, size: 0x8, addend: 0x0, symName: __ZNSt3__118__unwrap_iter_implINS_16reverse_iteratorIPjEELb0EE8__rewrapB8ue170006ES3_S3_, symObjAddr: 0x2A144, symBinAddr: 0x10002DC50, symSize: 0x2C }
  - { offsetInCU: 0x486A3, offset: 0x486A3, size: 0x8, addend: 0x0, symName: __ZNSt3__116reverse_iteratorIPjEC2B8ue170006ES1_, symObjAddr: 0x2A170, symBinAddr: 0x10002DC7C, symSize: 0x28 }
  - { offsetInCU: 0x486DB, offset: 0x486DB, size: 0x8, addend: 0x0, symName: __ZNSt3__114__split_bufferIjRNS_9allocatorIjEEED2Ev, symObjAddr: 0x2A198, symBinAddr: 0x10002DCA4, symSize: 0x80 }
  - { offsetInCU: 0x48707, offset: 0x48707, size: 0x8, addend: 0x0, symName: __ZNSt3__114__split_bufferIjRNS_9allocatorIjEEE5clearB8ue170006Ev, symObjAddr: 0x2A218, symBinAddr: 0x10002DD24, symSize: 0x28 }
  - { offsetInCU: 0x4872D, offset: 0x4872D, size: 0x8, addend: 0x0, symName: __ZNSt3__116allocator_traitsINS_9allocatorIjEEE10deallocateB8ue170006ERS2_Pjm, symObjAddr: 0x2A240, symBinAddr: 0x10002DD4C, symSize: 0x34 }
  - { offsetInCU: 0x4876F, offset: 0x4876F, size: 0x8, addend: 0x0, symName: __ZNKSt3__114__split_bufferIjRNS_9allocatorIjEEE8capacityB8ue170006Ev, symObjAddr: 0x2A274, symBinAddr: 0x10002DD80, symSize: 0x40 }
  - { offsetInCU: 0x48795, offset: 0x48795, size: 0x8, addend: 0x0, symName: __ZNSt3__114__split_bufferIjRNS_9allocatorIjEEE17__destruct_at_endB8ue170006EPj, symObjAddr: 0x2A2B4, symBinAddr: 0x10002DDC0, symSize: 0x2C }
  - { offsetInCU: 0x487C9, offset: 0x487C9, size: 0x8, addend: 0x0, symName: __ZNSt3__114__split_bufferIjRNS_9allocatorIjEEE17__destruct_at_endB8ue170006EPjNS_17integral_constantIbLb0EEE, symObjAddr: 0x2A2E0, symBinAddr: 0x10002DDEC, symSize: 0x94 }
  - { offsetInCU: 0x48809, offset: 0x48809, size: 0x8, addend: 0x0, symName: __ZNSt3__116allocator_traitsINS_9allocatorIjEEE7destroyB8ue170006IjvEEvRS2_PT_, symObjAddr: 0x2A374, symBinAddr: 0x10002DE80, symSize: 0x2C }
  - { offsetInCU: 0x48846, offset: 0x48846, size: 0x8, addend: 0x0, symName: __ZNSt3__19allocatorIjE7destroyB8ue170006EPj, symObjAddr: 0x2A3A0, symBinAddr: 0x10002DEAC, symSize: 0x14 }
  - { offsetInCU: 0x4887A, offset: 0x4887A, size: 0x8, addend: 0x0, symName: __ZNSt3__19allocatorIjE10deallocateB8ue170006EPjm, symObjAddr: 0x2A3B4, symBinAddr: 0x10002DEC0, symSize: 0x70 }
  - { offsetInCU: 0x488BC, offset: 0x488BC, size: 0x8, addend: 0x0, symName: __ZNKSt3__114__split_bufferIjRNS_9allocatorIjEEE9__end_capB8ue170006Ev, symObjAddr: 0x2A424, symBinAddr: 0x10002DF30, symSize: 0x28 }
  - { offsetInCU: 0x488E2, offset: 0x488E2, size: 0x8, addend: 0x0, symName: __ZNKSt3__117__compressed_pairIPjRNS_9allocatorIjEEE5firstB8ue170006Ev, symObjAddr: 0x2A44C, symBinAddr: 0x10002DF58, symSize: 0x24 }
  - { offsetInCU: 0x48908, offset: 0x48908, size: 0x8, addend: 0x0, symName: __ZNSt3__16vectorIjNS_9allocatorIjEEE22__base_destruct_at_endB8ue170006EPj, symObjAddr: 0x2A470, symBinAddr: 0x10002DF7C, symSize: 0xA0 }
  - { offsetInCU: 0x4894C, offset: 0x4894C, size: 0x8, addend: 0x0, symName: __ZNKSt3__16vectorIjNS_9allocatorIjEEE17__annotate_shrinkB8ue170006Em, symObjAddr: 0x2A510, symBinAddr: 0x10002E01C, symSize: 0xB4 }
  - { offsetInCU: 0x48981, offset: 0x48981, size: 0x8, addend: 0x0, symName: __ZNKSt3__111__wrap_iterIPjEdeB8ue170006Ev, symObjAddr: 0x2A5F8, symBinAddr: 0x10002E104, symSize: 0x18 }
  - { offsetInCU: 0x489A7, offset: 0x489A7, size: 0x8, addend: 0x0, symName: __ZNSt3__111__wrap_iterIPjEppB8ue170006Ev, symObjAddr: 0x2A610, symBinAddr: 0x10002E11C, symSize: 0x20 }
  - { offsetInCU: 0x489CD, offset: 0x489CD, size: 0x8, addend: 0x0, symName: __ZNKSt3__111__wrap_iterIPjE4baseB8ue170006Ev, symObjAddr: 0x2A678, symBinAddr: 0x10002E184, symSize: 0x18 }
  - { offsetInCU: 0x489F3, offset: 0x489F3, size: 0x8, addend: 0x0, symName: __ZNSt3__16vectorIjNS_9allocatorIjEEE11__make_iterB8ue170006EPj, symObjAddr: 0x2A690, symBinAddr: 0x10002E19C, symSize: 0x30 }
  - { offsetInCU: 0x48A28, offset: 0x48A28, size: 0x8, addend: 0x0, symName: __ZNSt3__111__wrap_iterIPjEC1B8ue170006ES1_, symObjAddr: 0x2A6C0, symBinAddr: 0x10002E1CC, symSize: 0x34 }
  - { offsetInCU: 0x48A60, offset: 0x48A60, size: 0x8, addend: 0x0, symName: __ZNSt3__111__wrap_iterIPjEC2B8ue170006ES1_, symObjAddr: 0x2A6F4, symBinAddr: 0x10002E200, symSize: 0x20 }
  - { offsetInCU: 0x48A98, offset: 0x48A98, size: 0x8, addend: 0x0, symName: __ZNSt3__16vectorIjNS_9allocatorIjEEE5clearB8ue170006Ev, symObjAddr: 0x2A714, symBinAddr: 0x10002E220, symSize: 0x44 }
  - { offsetInCU: 0x48ACD, offset: 0x48ACD, size: 0x8, addend: 0x0, symName: __ZNSt3__16vectorIjNS_9allocatorIjEEE6resizeEmRKj, symObjAddr: 0x2A758, symBinAddr: 0x10002E264, symSize: 0x9C }
  - { offsetInCU: 0x48B22, offset: 0x48B22, size: 0x8, addend: 0x0, symName: __ZNSt3__16vectorIjNS_9allocatorIjEEE7__clearB8ue170006Ev, symObjAddr: 0x2A7F4, symBinAddr: 0x10002E300, symSize: 0x28 }
  - { offsetInCU: 0x48B48, offset: 0x48B48, size: 0x8, addend: 0x0, symName: __ZNSt3__16vectorIjNS_9allocatorIjEEE8__appendEmRKj, symObjAddr: 0x2A81C, symBinAddr: 0x10002E328, symSize: 0x11C }
  - { offsetInCU: 0x48BB2, offset: 0x48BB2, size: 0x8, addend: 0x0, symName: __ZNSt3__16vectorIjNS_9allocatorIjEEE18__construct_at_endEmRKj, symObjAddr: 0x2A938, symBinAddr: 0x10002E444, symSize: 0xD8 }
  - { offsetInCU: 0x48C33, offset: 0x48C33, size: 0x8, addend: 0x0, symName: __ZNSt3__114__split_bufferIjRNS_9allocatorIjEEE18__construct_at_endEmRKj, symObjAddr: 0x2AA10, symBinAddr: 0x10002E51C, symSize: 0xC4 }
  - { offsetInCU: 0x48C86, offset: 0x48C86, size: 0x8, addend: 0x0, symName: __ZNSt3__116allocator_traitsINS_9allocatorIjEEE9constructB8ue170006IjJRKjEvEEvRS2_PT_DpOT0_, symObjAddr: 0x2AAD4, symBinAddr: 0x10002E5E0, symSize: 0x34 }
  - { offsetInCU: 0x48CDD, offset: 0x48CDD, size: 0x8, addend: 0x0, symName: __ZNSt3__19allocatorIjE9constructB8ue170006IjJRKjEEEvPT_DpOT0_, symObjAddr: 0x2AB08, symBinAddr: 0x10002E614, symSize: 0x28 }
  - { offsetInCU: 0x48D39, offset: 0x48D39, size: 0x8, addend: 0x0, symName: __ZN15MatrixPheromoneC1ERKS_, symObjAddr: 0x2ACD8, symBinAddr: 0x10002E7E4, symSize: 0x34 }
  - { offsetInCU: 0x48D6E, offset: 0x48D6E, size: 0x8, addend: 0x0, symName: __ZN15MatrixPheromoneC2ERKS_, symObjAddr: 0x2AD0C, symBinAddr: 0x10002E818, symSize: 0x5C }
  - { offsetInCU: 0x48DA3, offset: 0x48DA3, size: 0x8, addend: 0x0, symName: __ZNSt3__16vectorIdNS_9allocatorIdEEEC1ERKS3_, symObjAddr: 0x2AD68, symBinAddr: 0x10002E874, symSize: 0x34 }
  - { offsetInCU: 0x48DDE, offset: 0x48DDE, size: 0x8, addend: 0x0, symName: __ZNSt3__16vectorIdNS_9allocatorIdEEEC2ERKS3_, symObjAddr: 0x2AD9C, symBinAddr: 0x10002E8A8, symSize: 0x94 }
  - { offsetInCU: 0x48E19, offset: 0x48E19, size: 0x8, addend: 0x0, symName: __ZNSt3__116allocator_traitsINS_9allocatorIdEEE37select_on_container_copy_constructionB8ue170006IS2_vvEES2_RKS2_, symObjAddr: 0x2AE30, symBinAddr: 0x10002E93C, symSize: 0x10 }
  - { offsetInCU: 0x48E4E, offset: 0x48E4E, size: 0x8, addend: 0x0, symName: __ZNSt3__117__compressed_pairIPdNS_9allocatorIdEEEC1B8ue170006IDnS3_EEOT_OT0_, symObjAddr: 0x2AE40, symBinAddr: 0x10002E94C, symSize: 0x3C }
  - { offsetInCU: 0x48EA6, offset: 0x48EA6, size: 0x8, addend: 0x0, symName: __ZNSt3__16vectorIdNS_9allocatorIdEEE16__init_with_sizeB8ue170006IPdS5_EEvT_T0_m, symObjAddr: 0x2AE7C, symBinAddr: 0x10002E988, symSize: 0xC0 }
  - { offsetInCU: 0x48F1A, offset: 0x48F1A, size: 0x8, addend: 0x0, symName: __ZNSt3__117__compressed_pairIPdNS_9allocatorIdEEEC2B8ue170006IDnS3_EEOT_OT0_, symObjAddr: 0x2AF3C, symBinAddr: 0x10002EA48, symSize: 0x44 }
  - { offsetInCU: 0x48F72, offset: 0x48F72, size: 0x8, addend: 0x0, symName: __ZNSt3__122__compressed_pair_elemINS_9allocatorIdEELi1ELb1EEC2B8ue170006IS2_vEEOT_, symObjAddr: 0x2AF80, symBinAddr: 0x10002EA8C, symSize: 0x18 }
  - { offsetInCU: 0x48FB4, offset: 0x48FB4, size: 0x8, addend: 0x0, symName: __ZNSt3__16vectorIdNS_9allocatorIdEEE16__destroy_vectorC1B8ue170006ERS3_, symObjAddr: 0x2AFD8, symBinAddr: 0x10002EAE4, symSize: 0x34 }
  - { offsetInCU: 0x48FED, offset: 0x48FED, size: 0x8, addend: 0x0, symName: __ZNSt3__16vectorIdNS_9allocatorIdEEE11__vallocateB8ue170006Em, symObjAddr: 0x2B00C, symBinAddr: 0x10002EB18, symSize: 0xAC }
  - { offsetInCU: 0x49031, offset: 0x49031, size: 0x8, addend: 0x0, symName: __ZNSt3__16vectorIdNS_9allocatorIdEEE18__construct_at_endIPdS5_EEvT_T0_m, symObjAddr: 0x2B0B8, symBinAddr: 0x10002EBC4, symSize: 0x94 }
  - { offsetInCU: 0x490A7, offset: 0x490A7, size: 0x8, addend: 0x0, symName: __ZNSt3__128__exception_guard_exceptionsINS_6vectorIdNS_9allocatorIdEEE16__destroy_vectorEE10__completeB8ue170006Ev, symObjAddr: 0x2B14C, symBinAddr: 0x10002EC58, symSize: 0x1C }
  - { offsetInCU: 0x490CD, offset: 0x490CD, size: 0x8, addend: 0x0, symName: __ZNSt3__128__exception_guard_exceptionsINS_6vectorIdNS_9allocatorIdEEE16__destroy_vectorEED1B8ue170006Ev, symObjAddr: 0x2B168, symBinAddr: 0x10002EC74, symSize: 0x2C }
  - { offsetInCU: 0x490F7, offset: 0x490F7, size: 0x8, addend: 0x0, symName: __ZNSt3__128__exception_guard_exceptionsINS_6vectorIdNS_9allocatorIdEEE16__destroy_vectorEEC1B8ue170006ES5_, symObjAddr: 0x2B194, symBinAddr: 0x10002ECA0, symSize: 0x34 }
  - { offsetInCU: 0x4912F, offset: 0x4912F, size: 0x8, addend: 0x0, symName: __ZNSt3__128__exception_guard_exceptionsINS_6vectorIdNS_9allocatorIdEEE16__destroy_vectorEEC2B8ue170006ES5_, symObjAddr: 0x2B1C8, symBinAddr: 0x10002ECD4, symSize: 0x24 }
  - { offsetInCU: 0x49167, offset: 0x49167, size: 0x8, addend: 0x0, symName: __ZNSt3__16vectorIdNS_9allocatorIdEEE16__destroy_vectorC2B8ue170006ERS3_, symObjAddr: 0x2B1EC, symBinAddr: 0x10002ECF8, symSize: 0x20 }
  - { offsetInCU: 0x491BC, offset: 0x491BC, size: 0x8, addend: 0x0, symName: __ZNSt3__14pairIPdS1_EC1B8ue170006ERKS1_S4_, symObjAddr: 0x2B494, symBinAddr: 0x10002EFA0, symSize: 0x3C }
  - { offsetInCU: 0x49202, offset: 0x49202, size: 0x8, addend: 0x0, symName: __ZNSt3__14pairIPdS1_EC2B8ue170006ERKS1_S4_, symObjAddr: 0x2B4D0, symBinAddr: 0x10002EFDC, symSize: 0x34 }
  - { offsetInCU: 0x49248, offset: 0x49248, size: 0x8, addend: 0x0, symName: __ZNSt3__129_AllocatorDestroyRangeReverseINS_9allocatorIdEEPdEC1B8ue170006ERS2_RS3_S6_, symObjAddr: 0x2B550, symBinAddr: 0x10002F05C, symSize: 0x44 }
  - { offsetInCU: 0x4929F, offset: 0x4929F, size: 0x8, addend: 0x0, symName: __ZNSt3__116allocator_traitsINS_9allocatorIdEEE9constructB8ue170006IdJRdEvEEvRS2_PT_DpOT0_, symObjAddr: 0x2B594, symBinAddr: 0x10002F0A0, symSize: 0x34 }
  - { offsetInCU: 0x492F6, offset: 0x492F6, size: 0x8, addend: 0x0, symName: __ZNSt3__128__exception_guard_exceptionsINS_29_AllocatorDestroyRangeReverseINS_9allocatorIdEEPdEEE10__completeB8ue170006Ev, symObjAddr: 0x2B5C8, symBinAddr: 0x10002F0D4, symSize: 0x1C }
  - { offsetInCU: 0x4931C, offset: 0x4931C, size: 0x8, addend: 0x0, symName: __ZNSt3__128__exception_guard_exceptionsINS_29_AllocatorDestroyRangeReverseINS_9allocatorIdEEPdEEED1B8ue170006Ev, symObjAddr: 0x2B5E4, symBinAddr: 0x10002F0F0, symSize: 0x2C }
  - { offsetInCU: 0x49346, offset: 0x49346, size: 0x8, addend: 0x0, symName: __ZNSt3__128__exception_guard_exceptionsINS_29_AllocatorDestroyRangeReverseINS_9allocatorIdEEPdEEEC1B8ue170006ES5_, symObjAddr: 0x2B610, symBinAddr: 0x10002F11C, symSize: 0x34 }
  - { offsetInCU: 0x4937F, offset: 0x4937F, size: 0x8, addend: 0x0, symName: __ZNSt3__128__exception_guard_exceptionsINS_29_AllocatorDestroyRangeReverseINS_9allocatorIdEEPdEEEC2B8ue170006ES5_, symObjAddr: 0x2B644, symBinAddr: 0x10002F150, symSize: 0x30 }
  - { offsetInCU: 0x493B8, offset: 0x493B8, size: 0x8, addend: 0x0, symName: __ZNSt3__129_AllocatorDestroyRangeReverseINS_9allocatorIdEEPdEC2B8ue170006ERS2_RS3_S6_, symObjAddr: 0x2B674, symBinAddr: 0x10002F180, symSize: 0x38 }
  - { offsetInCU: 0x4940F, offset: 0x4940F, size: 0x8, addend: 0x0, symName: __ZNSt3__19allocatorIdE9constructB8ue170006IdJRdEEEvPT_DpOT0_, symObjAddr: 0x2B6AC, symBinAddr: 0x10002F1B8, symSize: 0x28 }
  - { offsetInCU: 0x49465, offset: 0x49465, size: 0x8, addend: 0x0, symName: __ZNSt3__128__exception_guard_exceptionsINS_29_AllocatorDestroyRangeReverseINS_9allocatorIdEEPdEEED2B8ue170006Ev, symObjAddr: 0x2B6D4, symBinAddr: 0x10002F1E0, symSize: 0x48 }
  - { offsetInCU: 0x4948F, offset: 0x4948F, size: 0x8, addend: 0x0, symName: __ZNKSt3__129_AllocatorDestroyRangeReverseINS_9allocatorIdEEPdEclB8ue170006Ev, symObjAddr: 0x2B71C, symBinAddr: 0x10002F228, symSize: 0x68 }
  - { offsetInCU: 0x494B5, offset: 0x494B5, size: 0x8, addend: 0x0, symName: __ZNSt3__118__unwrap_iter_implIPdLb1EE8__unwrapB8ue170006ES1_, symObjAddr: 0x2B7F4, symBinAddr: 0x10002F300, symSize: 0x24 }
  - { offsetInCU: 0x494D8, offset: 0x494D8, size: 0x8, addend: 0x0, symName: __ZNSt3__118__unwrap_iter_implIPdLb1EE8__rewrapB8ue170006ES1_S1_, symObjAddr: 0x2B818, symBinAddr: 0x10002F324, symSize: 0x50 }
  - { offsetInCU: 0x49509, offset: 0x49509, size: 0x8, addend: 0x0, symName: __ZNSt3__128__exception_guard_exceptionsINS_6vectorIdNS_9allocatorIdEEE16__destroy_vectorEED2B8ue170006Ev, symObjAddr: 0x2B868, symBinAddr: 0x10002F374, symSize: 0x48 }
  - { offsetInCU: 0x49533, offset: 0x49533, size: 0x8, addend: 0x0, symName: __ZNSt3__16vectorIdNS_9allocatorIdEEE16__destroy_vectorclB8ue170006Ev, symObjAddr: 0x2B8B0, symBinAddr: 0x10002F3BC, symSize: 0x90 }
  - { offsetInCU: 0x49559, offset: 0x49559, size: 0x8, addend: 0x0, symName: __ZNSt3__16vectorIdNS_9allocatorIdEEE7__clearB8ue170006Ev, symObjAddr: 0x2B940, symBinAddr: 0x10002F44C, symSize: 0x28 }
  - { offsetInCU: 0x4957F, offset: 0x4957F, size: 0x8, addend: 0x0, symName: __ZNSt3__16vectorIdNS_9allocatorIdEEE22__base_destruct_at_endB8ue170006EPd, symObjAddr: 0x2B968, symBinAddr: 0x10002F474, symSize: 0xA0 }
  - { offsetInCU: 0x495C3, offset: 0x495C3, size: 0x8, addend: 0x0, symName: __ZNSt3__16vectorIjNS_9allocatorIjEEEixB8ue170006Em, symObjAddr: 0x2BA08, symBinAddr: 0x10002F514, symSize: 0x24 }
  - { offsetInCU: 0x495FA, offset: 0x495FA, size: 0x8, addend: 0x0, symName: __ZNK3Ant10is_visitedEj, symObjAddr: 0x2BA2C, symBinAddr: 0x10002F538, symSize: 0x34 }
  - { offsetInCU: 0x4962E, offset: 0x4962E, size: 0x8, addend: 0x0, symName: __ZNK3Ant19get_unvisited_countEv, symObjAddr: 0x2BA60, symBinAddr: 0x10002F56C, symSize: 0x20 }
  - { offsetInCU: 0x49654, offset: 0x49654, size: 0x8, addend: 0x0, symName: __ZNK7Bitmask7get_bitEj, symObjAddr: 0x2BA80, symBinAddr: 0x10002F58C, symSize: 0xB0 }
  - { offsetInCU: 0x49688, offset: 0x49688, size: 0x8, addend: 0x0, symName: __ZN15MatrixPheromoneD2Ev, symObjAddr: 0x2BB30, symBinAddr: 0x10002F63C, symSize: 0x30 }
  - { offsetInCU: 0x496B4, offset: 0x496B4, size: 0x8, addend: 0x0, symName: __ZN7Bitmask7set_bitEj, symObjAddr: 0x2BB60, symBinAddr: 0x10002F66C, symSize: 0xAC }
  - { offsetInCU: 0x496E8, offset: 0x496E8, size: 0x8, addend: 0x0, symName: __ZN3AntD2Ev, symObjAddr: 0x2BC0C, symBinAddr: 0x10002F718, symSize: 0xCC }
  - { offsetInCU: 0x49714, offset: 0x49714, size: 0x8, addend: 0x0, symName: __ZN3AntC2ERKS_, symObjAddr: 0x2BCD8, symBinAddr: 0x10002F7E4, symSize: 0x114 }
  - { offsetInCU: 0x4974F, offset: 0x4974F, size: 0x8, addend: 0x0, symName: __ZN8SolutionC2ERKS_, symObjAddr: 0x2BDEC, symBinAddr: 0x10002F8F8, symSize: 0x78 }
  - { offsetInCU: 0x4978A, offset: 0x4978A, size: 0x8, addend: 0x0, symName: __ZN7BitmaskC1ERKS_, symObjAddr: 0x2BE64, symBinAddr: 0x10002F970, symSize: 0x34 }
  - { offsetInCU: 0x497BF, offset: 0x497BF, size: 0x8, addend: 0x0, symName: __ZN7BitmaskC2ERKS_, symObjAddr: 0x2BE98, symBinAddr: 0x10002F9A4, symSize: 0x48 }
  - { offsetInCU: 0x497F4, offset: 0x497F4, size: 0x8, addend: 0x0, symName: __ZNSt3__16vectorIiNS_9allocatorIiEEEaSB8ue170006ERKS3_, symObjAddr: 0x2BEE0, symBinAddr: 0x10002F9EC, symSize: 0x68 }
  - { offsetInCU: 0x4982B, offset: 0x4982B, size: 0x8, addend: 0x0, symName: __ZN3KNN12predictLabelERKNSt3__16vectorIiNS0_9allocatorIiEEEE, symObjAddr: 0x2BF48, symBinAddr: 0x10002FA54, symSize: 0x2BC }
  - { offsetInCU: 0x498FD, offset: 0x498FD, size: 0x8, addend: 0x0, symName: __ZNSt3__16vectorINS0_IiNS_9allocatorIiEEEENS1_IS3_EEEixB8ue170006Em, symObjAddr: 0x2C204, symBinAddr: 0x10002FD10, symSize: 0x2C }
  - { offsetInCU: 0x49934, offset: 0x49934, size: 0x8, addend: 0x0, symName: __ZNSt3__16vectorIiNS_9allocatorIiEEE19__copy_assign_allocB8ue170006ERKS3_, symObjAddr: 0x2C268, symBinAddr: 0x10002FD74, symSize: 0x2C }
  - { offsetInCU: 0x49969, offset: 0x49969, size: 0x8, addend: 0x0, symName: __ZNSt3__16vectorIiNS_9allocatorIiEEE6assignIPiLi0EEEvT_S6_, symObjAddr: 0x2C294, symBinAddr: 0x10002FDA0, symSize: 0x5C }
  - { offsetInCU: 0x499BE, offset: 0x499BE, size: 0x8, addend: 0x0, symName: __ZNSt3__16vectorIiNS_9allocatorIiEEE19__copy_assign_allocB8ue170006ERKS3_NS_17integral_constantIbLb0EEE, symObjAddr: 0x2C2F0, symBinAddr: 0x10002FDFC, symSize: 0x14 }
  - { offsetInCU: 0x499FA, offset: 0x499FA, size: 0x8, addend: 0x0, symName: __ZNSt3__16vectorIiNS_9allocatorIiEEE18__assign_with_sizeB8ue170006IPiS5_EEvT_T0_l, symObjAddr: 0x2C304, symBinAddr: 0x10002FE10, symSize: 0x164 }
  - { offsetInCU: 0x49AAA, offset: 0x49AAA, size: 0x8, addend: 0x0, symName: __ZNSt3__16vectorIiNS_9allocatorIiEEE18__construct_at_endIPiS5_EEvT_T0_m, symObjAddr: 0x2C508, symBinAddr: 0x100030014, symSize: 0x94 }
  - { offsetInCU: 0x49B20, offset: 0x49B20, size: 0x8, addend: 0x0, symName: __ZNSt3__16vectorIiNS_9allocatorIiEEE13__vdeallocateEv, symObjAddr: 0x2C5E0, symBinAddr: 0x1000300EC, symSize: 0x94 }
  - { offsetInCU: 0x49B48, offset: 0x49B48, size: 0x8, addend: 0x0, symName: __ZNSt3__16vectorIiNS_9allocatorIiEEE11__vallocateB8ue170006Em, symObjAddr: 0x2C674, symBinAddr: 0x100030180, symSize: 0xAC }
  - { offsetInCU: 0x49BA8, offset: 0x49BA8, size: 0x8, addend: 0x0, symName: __ZNSt3__14pairIPiS1_EC1B8ue170006ERKS1_S4_, symObjAddr: 0x2CA08, symBinAddr: 0x100030514, symSize: 0x3C }
  - { offsetInCU: 0x49BEE, offset: 0x49BEE, size: 0x8, addend: 0x0, symName: __ZNSt3__14pairIPiS1_EC2B8ue170006ERKS1_S4_, symObjAddr: 0x2CA44, symBinAddr: 0x100030550, symSize: 0x34 }
  - { offsetInCU: 0x49C34, offset: 0x49C34, size: 0x8, addend: 0x0, symName: __ZNSt3__129_AllocatorDestroyRangeReverseINS_9allocatorIiEEPiEC1B8ue170006ERS2_RS3_S6_, symObjAddr: 0x2CAC4, symBinAddr: 0x1000305D0, symSize: 0x44 }
  - { offsetInCU: 0x49C8B, offset: 0x49C8B, size: 0x8, addend: 0x0, symName: __ZNSt3__116allocator_traitsINS_9allocatorIiEEE9constructB8ue170006IiJRiEvEEvRS2_PT_DpOT0_, symObjAddr: 0x2CB08, symBinAddr: 0x100030614, symSize: 0x34 }
  - { offsetInCU: 0x49CE2, offset: 0x49CE2, size: 0x8, addend: 0x0, symName: __ZNSt3__128__exception_guard_exceptionsINS_29_AllocatorDestroyRangeReverseINS_9allocatorIiEEPiEEE10__completeB8ue170006Ev, symObjAddr: 0x2CB3C, symBinAddr: 0x100030648, symSize: 0x1C }
  - { offsetInCU: 0x49D08, offset: 0x49D08, size: 0x8, addend: 0x0, symName: __ZNSt3__128__exception_guard_exceptionsINS_29_AllocatorDestroyRangeReverseINS_9allocatorIiEEPiEEED1B8ue170006Ev, symObjAddr: 0x2CB58, symBinAddr: 0x100030664, symSize: 0x2C }
  - { offsetInCU: 0x49D32, offset: 0x49D32, size: 0x8, addend: 0x0, symName: __ZNSt3__128__exception_guard_exceptionsINS_29_AllocatorDestroyRangeReverseINS_9allocatorIiEEPiEEEC1B8ue170006ES5_, symObjAddr: 0x2CB84, symBinAddr: 0x100030690, symSize: 0x34 }
  - { offsetInCU: 0x49D6B, offset: 0x49D6B, size: 0x8, addend: 0x0, symName: __ZNSt3__128__exception_guard_exceptionsINS_29_AllocatorDestroyRangeReverseINS_9allocatorIiEEPiEEEC2B8ue170006ES5_, symObjAddr: 0x2CBB8, symBinAddr: 0x1000306C4, symSize: 0x30 }
  - { offsetInCU: 0x49DA4, offset: 0x49DA4, size: 0x8, addend: 0x0, symName: __ZNSt3__129_AllocatorDestroyRangeReverseINS_9allocatorIiEEPiEC2B8ue170006ERS2_RS3_S6_, symObjAddr: 0x2CBE8, symBinAddr: 0x1000306F4, symSize: 0x38 }
  - { offsetInCU: 0x49DFB, offset: 0x49DFB, size: 0x8, addend: 0x0, symName: __ZNSt3__19allocatorIiE9constructB8ue170006IiJRiEEEvPT_DpOT0_, symObjAddr: 0x2CC20, symBinAddr: 0x10003072C, symSize: 0x28 }
  - { offsetInCU: 0x49E51, offset: 0x49E51, size: 0x8, addend: 0x0, symName: __ZNSt3__128__exception_guard_exceptionsINS_29_AllocatorDestroyRangeReverseINS_9allocatorIiEEPiEEED2B8ue170006Ev, symObjAddr: 0x2CC48, symBinAddr: 0x100030754, symSize: 0x48 }
  - { offsetInCU: 0x49E7B, offset: 0x49E7B, size: 0x8, addend: 0x0, symName: __ZNKSt3__129_AllocatorDestroyRangeReverseINS_9allocatorIiEEPiEclB8ue170006Ev, symObjAddr: 0x2CC90, symBinAddr: 0x10003079C, symSize: 0x68 }
  - { offsetInCU: 0x49EA1, offset: 0x49EA1, size: 0x8, addend: 0x0, symName: __ZNSt3__118__unwrap_iter_implIPiLb1EE8__unwrapB8ue170006ES1_, symObjAddr: 0x2CD68, symBinAddr: 0x100030874, symSize: 0x24 }
  - { offsetInCU: 0x49EC4, offset: 0x49EC4, size: 0x8, addend: 0x0, symName: __ZNSt3__118__unwrap_iter_implIPiLb1EE8__rewrapB8ue170006ES1_S1_, symObjAddr: 0x2CD8C, symBinAddr: 0x100030898, symSize: 0x50 }
  - { offsetInCU: 0x49EF5, offset: 0x49EF5, size: 0x8, addend: 0x0, symName: __ZNKSt3__114__copy_trivialclB8ue170006IiiLi0EEENS_4pairIPT_PT0_EES4_S4_S6_, symObjAddr: 0x2CED4, symBinAddr: 0x1000309E0, symSize: 0x48 }
  - { offsetInCU: 0x49F5D, offset: 0x49F5D, size: 0x8, addend: 0x0, symName: __ZNSt3__16vectorIiNS_9allocatorIiEEE5clearB8ue170006Ev, symObjAddr: 0x2D0A0, symBinAddr: 0x100030BAC, symSize: 0x44 }
  - { offsetInCU: 0x49F92, offset: 0x49F92, size: 0x8, addend: 0x0, symName: __ZNSt3__16vectorIiNS_9allocatorIiEEE7__clearB8ue170006Ev, symObjAddr: 0x2D0E4, symBinAddr: 0x100030BF0, symSize: 0x28 }
  - { offsetInCU: 0x49FB8, offset: 0x49FB8, size: 0x8, addend: 0x0, symName: __ZN3KNN17euclideanDistanceERKNSt3__16vectorIiNS0_9allocatorIiEEEES6_S4_, symObjAddr: 0x2D134, symBinAddr: 0x100030C40, symSize: 0xD4 }
  - { offsetInCU: 0x4A068, offset: 0x4A068, size: 0x8, addend: 0x0, symName: __ZNSt3__16vectorIiNS_9allocatorIiEEEC1EmRKi, symObjAddr: 0x2D240, symBinAddr: 0x100030D4C, symSize: 0x3C }
  - { offsetInCU: 0x4A0B2, offset: 0x4A0B2, size: 0x8, addend: 0x0, symName: __ZNSt3__14pairIdiEC1B8ue170006ERKdRKi, symObjAddr: 0x2D2C0, symBinAddr: 0x100030DCC, symSize: 0x3C }
  - { offsetInCU: 0x4A0F8, offset: 0x4A0F8, size: 0x8, addend: 0x0, symName: __ZNSt3__14pairIdiEC2B8ue170006ERKdRKi, symObjAddr: 0x2D2FC, symBinAddr: 0x100030E08, symSize: 0x34 }
  - { offsetInCU: 0x4A13E, offset: 0x4A13E, size: 0x8, addend: 0x0, symName: __ZNSt3__16vectorIiNS_9allocatorIiEEEC2EmRKi, symObjAddr: 0x2D330, symBinAddr: 0x100030E3C, symSize: 0xE4 }
  - { offsetInCU: 0x4A19D, offset: 0x4A19D, size: 0x8, addend: 0x0, symName: __ZNSt3__117__compressed_pairIPiNS_9allocatorIiEEEC1B8ue170006IDnNS_18__default_init_tagEEEOT_OT0_, symObjAddr: 0x2D414, symBinAddr: 0x100030F20, symSize: 0x3C }
  - { offsetInCU: 0x4A1F5, offset: 0x4A1F5, size: 0x8, addend: 0x0, symName: __ZNSt3__16vectorIiNS_9allocatorIiEEE16__destroy_vectorC1B8ue170006ERS3_, symObjAddr: 0x2D490, symBinAddr: 0x100030F9C, symSize: 0x34 }
  - { offsetInCU: 0x4A22E, offset: 0x4A22E, size: 0x8, addend: 0x0, symName: __ZNSt3__16vectorIiNS_9allocatorIiEEE18__construct_at_endEmRKi, symObjAddr: 0x2D4C4, symBinAddr: 0x100030FD0, symSize: 0xD8 }
  - { offsetInCU: 0x4A2AF, offset: 0x4A2AF, size: 0x8, addend: 0x0, symName: __ZNSt3__128__exception_guard_exceptionsINS_6vectorIiNS_9allocatorIiEEE16__destroy_vectorEE10__completeB8ue170006Ev, symObjAddr: 0x2D59C, symBinAddr: 0x1000310A8, symSize: 0x1C }
  - { offsetInCU: 0x4A2D5, offset: 0x4A2D5, size: 0x8, addend: 0x0, symName: __ZNSt3__128__exception_guard_exceptionsINS_6vectorIiNS_9allocatorIiEEE16__destroy_vectorEED1B8ue170006Ev, symObjAddr: 0x2D5B8, symBinAddr: 0x1000310C4, symSize: 0x2C }
  - { offsetInCU: 0x4A2FF, offset: 0x4A2FF, size: 0x8, addend: 0x0, symName: __ZNSt3__117__compressed_pairIPiNS_9allocatorIiEEEC2B8ue170006IDnNS_18__default_init_tagEEEOT_OT0_, symObjAddr: 0x2D5E4, symBinAddr: 0x1000310F0, symSize: 0x40 }
  - { offsetInCU: 0x4A357, offset: 0x4A357, size: 0x8, addend: 0x0, symName: __ZNSt3__122__compressed_pair_elemINS_9allocatorIiEELi1ELb1EEC2B8ue170006ENS_18__default_init_tagE, symObjAddr: 0x2D624, symBinAddr: 0x100031130, symSize: 0x2C }
  - { offsetInCU: 0x4A38B, offset: 0x4A38B, size: 0x8, addend: 0x0, symName: __ZNSt3__19allocatorIiEC2B8ue170006Ev, symObjAddr: 0x2D650, symBinAddr: 0x10003115C, symSize: 0x2C }
  - { offsetInCU: 0x4A3B5, offset: 0x4A3B5, size: 0x8, addend: 0x0, symName: __ZNSt3__116__non_trivial_ifILb1ENS_9allocatorIiEEEC2B8ue170006Ev, symObjAddr: 0x2D67C, symBinAddr: 0x100031188, symSize: 0x14 }
  - { offsetInCU: 0x4A3DF, offset: 0x4A3DF, size: 0x8, addend: 0x0, symName: __ZNSt3__128__exception_guard_exceptionsINS_6vectorIiNS_9allocatorIiEEE16__destroy_vectorEEC1B8ue170006ES5_, symObjAddr: 0x2D690, symBinAddr: 0x10003119C, symSize: 0x34 }
  - { offsetInCU: 0x4A417, offset: 0x4A417, size: 0x8, addend: 0x0, symName: __ZNSt3__128__exception_guard_exceptionsINS_6vectorIiNS_9allocatorIiEEE16__destroy_vectorEEC2B8ue170006ES5_, symObjAddr: 0x2D6C4, symBinAddr: 0x1000311D0, symSize: 0x24 }
  - { offsetInCU: 0x4A44F, offset: 0x4A44F, size: 0x8, addend: 0x0, symName: __ZNSt3__16vectorIiNS_9allocatorIiEEE16__destroy_vectorC2B8ue170006ERS3_, symObjAddr: 0x2D6E8, symBinAddr: 0x1000311F4, symSize: 0x20 }
  - { offsetInCU: 0x4A488, offset: 0x4A488, size: 0x8, addend: 0x0, symName: __ZNSt3__128__exception_guard_exceptionsINS_6vectorIiNS_9allocatorIiEEE16__destroy_vectorEED2B8ue170006Ev, symObjAddr: 0x2D708, symBinAddr: 0x100031214, symSize: 0x48 }
  - { offsetInCU: 0x4A4B2, offset: 0x4A4B2, size: 0x8, addend: 0x0, symName: __ZNSt3__16vectorIiNS_9allocatorIiEEE16__destroy_vectorclB8ue170006Ev, symObjAddr: 0x2D750, symBinAddr: 0x10003125C, symSize: 0x90 }
  - { offsetInCU: 0x4A4D8, offset: 0x4A4D8, size: 0x8, addend: 0x0, symName: __ZNSt3__14pairIddEC1B8ue170006ERKdS3_, symObjAddr: 0x2D7E0, symBinAddr: 0x1000312EC, symSize: 0x3C }
  - { offsetInCU: 0x4A51E, offset: 0x4A51E, size: 0x8, addend: 0x0, symName: __ZNSt3__14pairIddEC2B8ue170006ERKdS3_, symObjAddr: 0x2D81C, symBinAddr: 0x100031328, symSize: 0x34 }
  - { offsetInCU: 0x4A56A, offset: 0x4A56A, size: 0x8, addend: 0x0, symName: __ZN8SolutionaSERKS_, symObjAddr: 0x2D850, symBinAddr: 0x10003135C, symSize: 0x48 }
  - { offsetInCU: 0x4A59B, offset: 0x4A59B, size: 0x8, addend: 0x0, symName: __ZNSt3__16vectorIjNS_9allocatorIjEEEaSB8ue170006ERKS3_, symObjAddr: 0x2D898, symBinAddr: 0x1000313A4, symSize: 0x68 }
  - { offsetInCU: 0x4A5D8, offset: 0x4A5D8, size: 0x8, addend: 0x0, symName: __ZN7BitmaskaSERKS_, symObjAddr: 0x2D900, symBinAddr: 0x10003140C, symSize: 0x48 }
  - { offsetInCU: 0x4A609, offset: 0x4A609, size: 0x8, addend: 0x0, symName: __ZNSt3__16vectorIjNS_9allocatorIjEEE19__copy_assign_allocB8ue170006ERKS3_, symObjAddr: 0x2D948, symBinAddr: 0x100031454, symSize: 0x2C }
  - { offsetInCU: 0x4A63E, offset: 0x4A63E, size: 0x8, addend: 0x0, symName: __ZNSt3__16vectorIjNS_9allocatorIjEEE6assignIPjLi0EEEvT_S6_, symObjAddr: 0x2D974, symBinAddr: 0x100031480, symSize: 0x5C }
  - { offsetInCU: 0x4A693, offset: 0x4A693, size: 0x8, addend: 0x0, symName: __ZNSt3__16vectorIjNS_9allocatorIjEEE19__copy_assign_allocB8ue170006ERKS3_NS_17integral_constantIbLb0EEE, symObjAddr: 0x2D9D0, symBinAddr: 0x1000314DC, symSize: 0x14 }
  - { offsetInCU: 0x4A6CF, offset: 0x4A6CF, size: 0x8, addend: 0x0, symName: __ZNSt3__16vectorIjNS_9allocatorIjEEE18__assign_with_sizeB8ue170006IPjS5_EEvT_T0_l, symObjAddr: 0x2D9E4, symBinAddr: 0x1000314F0, symSize: 0x164 }
  - { offsetInCU: 0x4A77F, offset: 0x4A77F, size: 0x8, addend: 0x0, symName: __ZNSt3__16vectorIjNS_9allocatorIjEEE18__construct_at_endIPjS5_EEvT_T0_m, symObjAddr: 0x2DBE8, symBinAddr: 0x1000316F4, symSize: 0x94 }
  - { offsetInCU: 0x4A7F5, offset: 0x4A7F5, size: 0x8, addend: 0x0, symName: __ZNSt3__16vectorIjNS_9allocatorIjEEE13__vdeallocateEv, symObjAddr: 0x2DCC0, symBinAddr: 0x1000317CC, symSize: 0x94 }
  - { offsetInCU: 0x4A81D, offset: 0x4A81D, size: 0x8, addend: 0x0, symName: __ZNSt3__16vectorIjNS_9allocatorIjEEE11__vallocateB8ue170006Em, symObjAddr: 0x2DD54, symBinAddr: 0x100031860, symSize: 0xAC }
  - { offsetInCU: 0x4A87D, offset: 0x4A87D, size: 0x8, addend: 0x0, symName: __ZNSt3__14pairIPjS1_EC1B8ue170006ERKS1_S4_, symObjAddr: 0x2E0E8, symBinAddr: 0x100031BF4, symSize: 0x3C }
  - { offsetInCU: 0x4A8C3, offset: 0x4A8C3, size: 0x8, addend: 0x0, symName: __ZNSt3__14pairIPjS1_EC2B8ue170006ERKS1_S4_, symObjAddr: 0x2E124, symBinAddr: 0x100031C30, symSize: 0x34 }
  - { offsetInCU: 0x4A909, offset: 0x4A909, size: 0x8, addend: 0x0, symName: __ZNSt3__129_AllocatorDestroyRangeReverseINS_9allocatorIjEEPjEC1B8ue170006ERS2_RS3_S6_, symObjAddr: 0x2E1A4, symBinAddr: 0x100031CB0, symSize: 0x44 }
  - { offsetInCU: 0x4A960, offset: 0x4A960, size: 0x8, addend: 0x0, symName: __ZNSt3__116allocator_traitsINS_9allocatorIjEEE9constructB8ue170006IjJRjEvEEvRS2_PT_DpOT0_, symObjAddr: 0x2E1E8, symBinAddr: 0x100031CF4, symSize: 0x34 }
  - { offsetInCU: 0x4A9B7, offset: 0x4A9B7, size: 0x8, addend: 0x0, symName: __ZNSt3__128__exception_guard_exceptionsINS_29_AllocatorDestroyRangeReverseINS_9allocatorIjEEPjEEE10__completeB8ue170006Ev, symObjAddr: 0x2E21C, symBinAddr: 0x100031D28, symSize: 0x1C }
  - { offsetInCU: 0x4A9DD, offset: 0x4A9DD, size: 0x8, addend: 0x0, symName: __ZNSt3__128__exception_guard_exceptionsINS_29_AllocatorDestroyRangeReverseINS_9allocatorIjEEPjEEED1B8ue170006Ev, symObjAddr: 0x2E238, symBinAddr: 0x100031D44, symSize: 0x2C }
  - { offsetInCU: 0x4AA07, offset: 0x4AA07, size: 0x8, addend: 0x0, symName: __ZNSt3__128__exception_guard_exceptionsINS_29_AllocatorDestroyRangeReverseINS_9allocatorIjEEPjEEEC1B8ue170006ES5_, symObjAddr: 0x2E264, symBinAddr: 0x100031D70, symSize: 0x34 }
  - { offsetInCU: 0x4AA40, offset: 0x4AA40, size: 0x8, addend: 0x0, symName: __ZNSt3__128__exception_guard_exceptionsINS_29_AllocatorDestroyRangeReverseINS_9allocatorIjEEPjEEEC2B8ue170006ES5_, symObjAddr: 0x2E298, symBinAddr: 0x100031DA4, symSize: 0x30 }
  - { offsetInCU: 0x4AA79, offset: 0x4AA79, size: 0x8, addend: 0x0, symName: __ZNSt3__129_AllocatorDestroyRangeReverseINS_9allocatorIjEEPjEC2B8ue170006ERS2_RS3_S6_, symObjAddr: 0x2E2C8, symBinAddr: 0x100031DD4, symSize: 0x38 }
  - { offsetInCU: 0x4AAD0, offset: 0x4AAD0, size: 0x8, addend: 0x0, symName: __ZNSt3__19allocatorIjE9constructB8ue170006IjJRjEEEvPT_DpOT0_, symObjAddr: 0x2E300, symBinAddr: 0x100031E0C, symSize: 0x28 }
  - { offsetInCU: 0x4AB26, offset: 0x4AB26, size: 0x8, addend: 0x0, symName: __ZNSt3__128__exception_guard_exceptionsINS_29_AllocatorDestroyRangeReverseINS_9allocatorIjEEPjEEED2B8ue170006Ev, symObjAddr: 0x2E328, symBinAddr: 0x100031E34, symSize: 0x48 }
  - { offsetInCU: 0x4AB50, offset: 0x4AB50, size: 0x8, addend: 0x0, symName: __ZNKSt3__129_AllocatorDestroyRangeReverseINS_9allocatorIjEEPjEclB8ue170006Ev, symObjAddr: 0x2E370, symBinAddr: 0x100031E7C, symSize: 0x68 }
  - { offsetInCU: 0x4AB76, offset: 0x4AB76, size: 0x8, addend: 0x0, symName: __ZNSt3__118__unwrap_iter_implIPjLb1EE8__unwrapB8ue170006ES1_, symObjAddr: 0x2E448, symBinAddr: 0x100031F54, symSize: 0x24 }
  - { offsetInCU: 0x4AB99, offset: 0x4AB99, size: 0x8, addend: 0x0, symName: __ZNSt3__118__unwrap_iter_implIPjLb1EE8__rewrapB8ue170006ES1_S1_, symObjAddr: 0x2E46C, symBinAddr: 0x100031F78, symSize: 0x50 }
  - { offsetInCU: 0x4ABCA, offset: 0x4ABCA, size: 0x8, addend: 0x0, symName: __ZNKSt3__114__copy_trivialclB8ue170006IjjLi0EEENS_4pairIPT_PT0_EES4_S4_S6_, symObjAddr: 0x2E5B4, symBinAddr: 0x1000320C0, symSize: 0x48 }
  - { offsetInCU: 0x4AC32, offset: 0x4AC32, size: 0x8, addend: 0x0, symName: __ZN15MatrixPheromone16evaporate_smoothEi, symObjAddr: 0x2E7A8, symBinAddr: 0x1000322B4, symSize: 0xB0 }
  - { offsetInCU: 0x4AC66, offset: 0x4AC66, size: 0x8, addend: 0x0, symName: __ZN15MatrixPheromone15increase_smoothEj, symObjAddr: 0x2E858, symBinAddr: 0x100032364, symSize: 0xB8 }
  - { offsetInCU: 0x4AC9A, offset: 0x4AC9A, size: 0x8, addend: 0x0, symName: __ZN14MinMaxACOModelD2Ev, symObjAddr: 0x2E910, symBinAddr: 0x10003241C, symSize: 0x30 }
  - { offsetInCU: 0x4ACC6, offset: 0x4ACC6, size: 0x8, addend: 0x0, symName: __ZN3KNND2Ev, symObjAddr: 0x2E940, symBinAddr: 0x10003244C, symSize: 0x100 }
  - { offsetInCU: 0x4ACF2, offset: 0x4ACF2, size: 0x8, addend: 0x0, symName: __ZN13HeuristicDataC2EPKc, symObjAddr: 0x2EA40, symBinAddr: 0x10003254C, symSize: 0x1C4 }
  - { offsetInCU: 0x4AD3E, offset: 0x4AD3E, size: 0x8, addend: 0x0, symName: __ZNSt3__16vectorINS0_IdNS_9allocatorIdEEEENS1_IS3_EEEC1B8ue170006Ev, symObjAddr: 0x2EC04, symBinAddr: 0x100032710, symSize: 0x2C }
  - { offsetInCU: 0x4AD68, offset: 0x4AD68, size: 0x8, addend: 0x0, symName: __ZN13HeuristicData16readDataFromFileEPKc, symObjAddr: 0x2EC30, symBinAddr: 0x10003273C, symSize: 0x340 }
  - { offsetInCU: 0x4ADE3, offset: 0x4ADE3, size: 0x8, addend: 0x0, symName: __ZN13HeuristicData4initEv, symObjAddr: 0x2EF70, symBinAddr: 0x100032A7C, symSize: 0x1C8 }
  - { offsetInCU: 0x4AE78, offset: 0x4AE78, size: 0x8, addend: 0x0, symName: __ZNSt3__16vectorINS0_IdNS_9allocatorIdEEEENS1_IS3_EEED1B8ue170006Ev, symObjAddr: 0x2F138, symBinAddr: 0x100032C44, symSize: 0x2C }
  - { offsetInCU: 0x4AEA2, offset: 0x4AEA2, size: 0x8, addend: 0x0, symName: __ZNSt3__16vectorINS0_IdNS_9allocatorIdEEEENS1_IS3_EEEC2B8ue170006Ev, symObjAddr: 0x2F164, symBinAddr: 0x100032C70, symSize: 0x44 }
  - { offsetInCU: 0x4AECC, offset: 0x4AECC, size: 0x8, addend: 0x0, symName: __ZNSt3__117__compressed_pairIPNS_6vectorIdNS_9allocatorIdEEEENS2_IS4_EEEC1B8ue170006IDnNS_18__default_init_tagEEEOT_OT0_, symObjAddr: 0x2F1A8, symBinAddr: 0x100032CB4, symSize: 0x3C }
  - { offsetInCU: 0x4AF24, offset: 0x4AF24, size: 0x8, addend: 0x0, symName: __ZNSt3__117__compressed_pairIPNS_6vectorIdNS_9allocatorIdEEEENS2_IS4_EEEC2B8ue170006IDnNS_18__default_init_tagEEEOT_OT0_, symObjAddr: 0x2F1E4, symBinAddr: 0x100032CF0, symSize: 0x40 }
  - { offsetInCU: 0x4AF7C, offset: 0x4AF7C, size: 0x8, addend: 0x0, symName: __ZNSt3__122__compressed_pair_elemIPNS_6vectorIdNS_9allocatorIdEEEELi0ELb0EEC2B8ue170006IDnvEEOT_, symObjAddr: 0x2F224, symBinAddr: 0x100032D30, symSize: 0x1C }
  - { offsetInCU: 0x4AFBE, offset: 0x4AFBE, size: 0x8, addend: 0x0, symName: __ZNSt3__122__compressed_pair_elemINS_9allocatorINS_6vectorIdNS1_IdEEEEEELi1ELb1EEC2B8ue170006ENS_18__default_init_tagE, symObjAddr: 0x2F240, symBinAddr: 0x100032D4C, symSize: 0x2C }
  - { offsetInCU: 0x4AFF2, offset: 0x4AFF2, size: 0x8, addend: 0x0, symName: __ZNSt3__19allocatorINS_6vectorIdNS0_IdEEEEEC2B8ue170006Ev, symObjAddr: 0x2F26C, symBinAddr: 0x100032D78, symSize: 0x2C }
  - { offsetInCU: 0x4B01C, offset: 0x4B01C, size: 0x8, addend: 0x0, symName: __ZNSt3__116__non_trivial_ifILb1ENS_9allocatorINS_6vectorIdNS1_IdEEEEEEEC2B8ue170006Ev, symObjAddr: 0x2F298, symBinAddr: 0x100032DA4, symSize: 0x14 }
  - { offsetInCU: 0x4B046, offset: 0x4B046, size: 0x8, addend: 0x0, symName: __ZN13HeuristicData5splitENSt3__112basic_stringIcNS0_11char_traitsIcEENS0_9allocatorIcEEEEc, symObjAddr: 0x2F308, symBinAddr: 0x100032E14, symSize: 0x17C }
  - { offsetInCU: 0x4B0A4, offset: 0x4B0A4, size: 0x8, addend: 0x0, symName: __ZN13HeuristicData14addDataFromRowENSt3__16vectorINS0_12basic_stringIcNS0_11char_traitsIcEENS0_9allocatorIcEEEENS5_IS7_EEEE, symObjAddr: 0x2F484, symBinAddr: 0x100032F90, symSize: 0x2D0 }
  - { offsetInCU: 0x4B168, offset: 0x4B168, size: 0x8, addend: 0x0, symName: __ZNSt3__16vectorINS_12basic_stringIcNS_11char_traitsIcEENS_9allocatorIcEEEENS4_IS6_EEEC1ERKS8_, symObjAddr: 0x2F754, symBinAddr: 0x100033260, symSize: 0x34 }
  - { offsetInCU: 0x4B1A3, offset: 0x4B1A3, size: 0x8, addend: 0x0, symName: __ZNKSt3__19basic_iosIcNS_11char_traitsIcEEEcvPvB8ue170006Ev, symObjAddr: 0x2F788, symBinAddr: 0x100033294, symSize: 0x4C }
  - { offsetInCU: 0x4B1C9, offset: 0x4B1C9, size: 0x8, addend: 0x0, symName: __ZNSt3__16vectorINS_12basic_stringIcNS_11char_traitsIcEENS_9allocatorIcEEEENS4_IS6_EEEaSB8ue170006EOS8_, symObjAddr: 0x2F7D4, symBinAddr: 0x1000332E0, symSize: 0x34 }
  - { offsetInCU: 0x4B200, offset: 0x4B200, size: 0x8, addend: 0x0, symName: __ZNKSt3__19basic_iosIcNS_11char_traitsIcEEE5widenB8ue170006Ec, symObjAddr: 0x2FA40, symBinAddr: 0x10003354C, symSize: 0x8C }
  - { offsetInCU: 0x4B258, offset: 0x4B258, size: 0x8, addend: 0x0, symName: __ZNKSt3__113basic_istreamIcNS_11char_traitsIcEEE6sentrycvbB8ue170006Ev, symObjAddr: 0x2FACC, symBinAddr: 0x1000335D8, symSize: 0x1C }
  - { offsetInCU: 0x4B27E, offset: 0x4B27E, size: 0x8, addend: 0x0, symName: __ZNKSt3__19basic_iosIcNS_11char_traitsIcEEE5rdbufB8ue170006Ev, symObjAddr: 0x2FAE8, symBinAddr: 0x1000335F4, symSize: 0x24 }
  - { offsetInCU: 0x4B2A6, offset: 0x4B2A6, size: 0x8, addend: 0x0, symName: __ZNSt3__115basic_streambufIcNS_11char_traitsIcEEE6sbumpcB8ue170006Ev, symObjAddr: 0x2FB0C, symBinAddr: 0x100033618, symSize: 0x78 }
  - { offsetInCU: 0x4B2CC, offset: 0x4B2CC, size: 0x8, addend: 0x0, symName: __ZNSt3__111char_traitsIcE11eq_int_typeB8ue170006Eii, symObjAddr: 0x2FB84, symBinAddr: 0x100033690, symSize: 0x28 }
  - { offsetInCU: 0x4B2FF, offset: 0x4B2FF, size: 0x8, addend: 0x0, symName: __ZNSt3__111char_traitsIcE3eofB8ue170006Ev, symObjAddr: 0x2FBAC, symBinAddr: 0x1000336B8, symSize: 0x8 }
  - { offsetInCU: 0x4B313, offset: 0x4B313, size: 0x8, addend: 0x0, symName: __ZNSt3__111char_traitsIcE12to_char_typeB8ue170006Ei, symObjAddr: 0x2FBB4, symBinAddr: 0x1000336C0, symSize: 0x18 }
  - { offsetInCU: 0x4B336, offset: 0x4B336, size: 0x8, addend: 0x0, symName: __ZNSt3__111char_traitsIcE2eqEcc, symObjAddr: 0x2FBCC, symBinAddr: 0x1000336D8, symSize: 0x28 }
  - { offsetInCU: 0x4B367, offset: 0x4B367, size: 0x8, addend: 0x0, symName: __ZNSt3__18ios_base18__setstate_nothrowB8ue170006Ej, symObjAddr: 0x2FBF4, symBinAddr: 0x100033700, symSize: 0x64 }
  - { offsetInCU: 0x4B39C, offset: 0x4B39C, size: 0x8, addend: 0x0, symName: __ZNKSt3__19basic_iosIcNS_11char_traitsIcEEE10exceptionsB8ue170006Ev, symObjAddr: 0x2FC58, symBinAddr: 0x100033764, symSize: 0x24 }
  - { offsetInCU: 0x4B3C2, offset: 0x4B3C2, size: 0x8, addend: 0x0, symName: __ZNSt3__19basic_iosIcNS_11char_traitsIcEEE8setstateB8ue170006Ej, symObjAddr: 0x2FC7C, symBinAddr: 0x100033788, symSize: 0x2C }
  - { offsetInCU: 0x4B3F7, offset: 0x4B3F7, size: 0x8, addend: 0x0, symName: __ZNKSt3__18ios_base5rdbufB8ue170006Ev, symObjAddr: 0x2FCA8, symBinAddr: 0x1000337B4, symSize: 0x18 }
  - { offsetInCU: 0x4B41D, offset: 0x4B41D, size: 0x8, addend: 0x0, symName: __ZNSt3__111char_traitsIcE11to_int_typeB8ue170006Ec, symObjAddr: 0x2FCC0, symBinAddr: 0x1000337CC, symSize: 0x14 }
  - { offsetInCU: 0x4B441, offset: 0x4B441, size: 0x8, addend: 0x0, symName: __ZNKSt3__18ios_base10exceptionsB8ue170006Ev, symObjAddr: 0x2FCD4, symBinAddr: 0x1000337E0, symSize: 0x18 }
  - { offsetInCU: 0x4B469, offset: 0x4B469, size: 0x8, addend: 0x0, symName: __ZNSt3__18ios_base8setstateB8ue170006Ej, symObjAddr: 0x2FCEC, symBinAddr: 0x1000337F8, symSize: 0x34 }
  - { offsetInCU: 0x4B4C8, offset: 0x4B4C8, size: 0x8, addend: 0x0, symName: __ZNKSt3__15ctypeIcE5widenB8ue170006Ec, symObjAddr: 0x2FD4C, symBinAddr: 0x100033858, symSize: 0x38 }
  - { offsetInCU: 0x4B523, offset: 0x4B523, size: 0x8, addend: 0x0, symName: __ZNSt3__119basic_istringstreamIcNS_11char_traitsIcEENS_9allocatorIcEEEC1B8ue170006ERKNS_12basic_stringIcS2_S4_EEj, symObjAddr: 0x2FD84, symBinAddr: 0x100033890, symSize: 0x108 }
  - { offsetInCU: 0x4B570, offset: 0x4B570, size: 0x8, addend: 0x0, symName: __ZNSt3__119basic_istringstreamIcNS_11char_traitsIcEENS_9allocatorIcEEED1Ev, symObjAddr: 0x2FE8C, symBinAddr: 0x100033998, symSize: 0x70 }
  - { offsetInCU: 0x4B59D, offset: 0x4B59D, size: 0x8, addend: 0x0, symName: __ZNSt3__19basic_iosIcNS_11char_traitsIcEEEC2B8ue170006Ev, symObjAddr: 0x2FEFC, symBinAddr: 0x100033A08, symSize: 0x44 }
  - { offsetInCU: 0x4B5C7, offset: 0x4B5C7, size: 0x8, addend: 0x0, symName: __ZNSt3__113basic_istreamIcNS_11char_traitsIcEEEC2B8ue170006EPNS_15basic_streambufIcS2_EE, symObjAddr: 0x2FF40, symBinAddr: 0x100033A4C, symSize: 0x64 }
  - { offsetInCU: 0x4B60C, offset: 0x4B60C, size: 0x8, addend: 0x0, symName: __ZNSt3__115basic_stringbufIcNS_11char_traitsIcEENS_9allocatorIcEEEC1B8ue170006ERKNS_12basic_stringIcS2_S4_EEj, symObjAddr: 0x2FFA4, symBinAddr: 0x100033AB0, symSize: 0x3C }
  - { offsetInCU: 0x4B654, offset: 0x4B654, size: 0x8, addend: 0x0, symName: __ZNSt3__18ios_baseC2B8ue170006Ev, symObjAddr: 0x2FFE0, symBinAddr: 0x100033AEC, symSize: 0x24 }
  - { offsetInCU: 0x4B67E, offset: 0x4B67E, size: 0x8, addend: 0x0, symName: __ZNSt3__19basic_iosIcNS_11char_traitsIcEEE4initB8ue170006EPNS_15basic_streambufIcS2_EE, symObjAddr: 0x30004, symBinAddr: 0x100033B10, symSize: 0x44 }
  - { offsetInCU: 0x4B6B5, offset: 0x4B6B5, size: 0x8, addend: 0x0, symName: __ZNSt3__115basic_stringbufIcNS_11char_traitsIcEENS_9allocatorIcEEEC2B8ue170006ERKNS_12basic_stringIcS2_S4_EEj, symObjAddr: 0x30048, symBinAddr: 0x100033B54, symSize: 0xD8 }
  - { offsetInCU: 0x4B6FD, offset: 0x4B6FD, size: 0x8, addend: 0x0, symName: __ZNSt3__112basic_stringIcNS_11char_traitsIcEENS_9allocatorIcEEEC1B8ue170006ERKS4_, symObjAddr: 0x30120, symBinAddr: 0x100033C2C, symSize: 0x34 }
  - { offsetInCU: 0x4B736, offset: 0x4B736, size: 0x8, addend: 0x0, symName: __ZNSt3__112basic_stringIcNS_11char_traitsIcEENS_9allocatorIcEEEC2B8ue170006ERKS4_, symObjAddr: 0x30154, symBinAddr: 0x100033C60, symSize: 0x40 }
  - { offsetInCU: 0x4B76F, offset: 0x4B76F, size: 0x8, addend: 0x0, symName: __ZNSt3__112basic_stringIcNS_11char_traitsIcEENS_9allocatorIcEEE14__default_initB8ue170006Ev, symObjAddr: 0x30194, symBinAddr: 0x100033CA0, symSize: 0xB0 }
  - { offsetInCU: 0x4B7C1, offset: 0x4B7C1, size: 0x8, addend: 0x0, symName: __ZNSt3__119basic_istringstreamIcNS_11char_traitsIcEENS_9allocatorIcEEED2Ev, symObjAddr: 0x30244, symBinAddr: 0x100033D50, symSize: 0x9C }
  - { offsetInCU: 0x4B7FB, offset: 0x4B7FB, size: 0x8, addend: 0x0, symName: __ZTv0_n24_NSt3__119basic_istringstreamIcNS_11char_traitsIcEENS_9allocatorIcEEED1Ev, symObjAddr: 0x302E0, symBinAddr: 0x100033DEC, symSize: 0x28 }
  - { offsetInCU: 0x4B817, offset: 0x4B817, size: 0x8, addend: 0x0, symName: __ZNSt3__115basic_stringbufIcNS_11char_traitsIcEENS_9allocatorIcEEED1Ev, symObjAddr: 0x30308, symBinAddr: 0x100033E14, symSize: 0x2C }
  - { offsetInCU: 0x4B844, offset: 0x4B844, size: 0x8, addend: 0x0, symName: __ZNSt3__115basic_stringbufIcNS_11char_traitsIcEENS_9allocatorIcEEED2Ev, symObjAddr: 0x30334, symBinAddr: 0x100033E40, symSize: 0x78 }
  - { offsetInCU: 0x4B871, offset: 0x4B871, size: 0x8, addend: 0x0, symName: __ZNSt3__16vectorINS_12basic_stringIcNS_11char_traitsIcEENS_9allocatorIcEEEENS4_IS6_EEE5beginB8ue170006Ev, symObjAddr: 0x303AC, symBinAddr: 0x100033EB8, symSize: 0x30 }
  - { offsetInCU: 0x4B899, offset: 0x4B899, size: 0x8, addend: 0x0, symName: __ZNSt3__16vectorINS_12basic_stringIcNS_11char_traitsIcEENS_9allocatorIcEEEENS4_IS6_EEE3endB8ue170006Ev, symObjAddr: 0x303DC, symBinAddr: 0x100033EE8, symSize: 0x30 }
  - { offsetInCU: 0x4B8C1, offset: 0x4B8C1, size: 0x8, addend: 0x0, symName: __ZNKSt3__111__wrap_iterIPNS_12basic_stringIcNS_11char_traitsIcEENS_9allocatorIcEEEEEdeB8ue170006Ev, symObjAddr: 0x30440, symBinAddr: 0x100033F4C, symSize: 0x18 }
  - { offsetInCU: 0x4B8E7, offset: 0x4B8E7, size: 0x8, addend: 0x0, symName: __ZNSt3__111__wrap_iterIPNS_12basic_stringIcNS_11char_traitsIcEENS_9allocatorIcEEEEEppB8ue170006Ev, symObjAddr: 0x30458, symBinAddr: 0x100033F64, symSize: 0x20 }
  - { offsetInCU: 0x4B90D, offset: 0x4B90D, size: 0x8, addend: 0x0, symName: __ZNSt3__16vectorINS_12basic_stringIcNS_11char_traitsIcEENS_9allocatorIcEEEENS4_IS6_EEE11__make_iterB8ue170006EPS6_, symObjAddr: 0x30478, symBinAddr: 0x100033F84, symSize: 0x30 }
  - { offsetInCU: 0x4B942, offset: 0x4B942, size: 0x8, addend: 0x0, symName: __ZNSt3__111__wrap_iterIPNS_12basic_stringIcNS_11char_traitsIcEENS_9allocatorIcEEEEEC1B8ue170006ES7_, symObjAddr: 0x304A8, symBinAddr: 0x100033FB4, symSize: 0x34 }
  - { offsetInCU: 0x4B97A, offset: 0x4B97A, size: 0x8, addend: 0x0, symName: __ZNSt3__111__wrap_iterIPNS_12basic_stringIcNS_11char_traitsIcEENS_9allocatorIcEEEEEC2B8ue170006ES7_, symObjAddr: 0x304DC, symBinAddr: 0x100033FE8, symSize: 0x20 }
  - { offsetInCU: 0x4B9B2, offset: 0x4B9B2, size: 0x8, addend: 0x0, symName: __ZNKSt3__111__wrap_iterIPNS_12basic_stringIcNS_11char_traitsIcEENS_9allocatorIcEEEEE4baseB8ue170006Ev, symObjAddr: 0x30544, symBinAddr: 0x100034050, symSize: 0x18 }
  - { offsetInCU: 0x4B9D8, offset: 0x4B9D8, size: 0x8, addend: 0x0, symName: __ZNSt3__16vectorINS_12basic_stringIcNS_11char_traitsIcEENS_9allocatorIcEEEENS4_IS6_EEEC2ERKS8_, symObjAddr: 0x3055C, symBinAddr: 0x100034068, symSize: 0x94 }
  - { offsetInCU: 0x4BA1E, offset: 0x4BA1E, size: 0x8, addend: 0x0, symName: __ZNSt3__116allocator_traitsINS_9allocatorINS_12basic_stringIcNS_11char_traitsIcEENS1_IcEEEEEEE37select_on_container_copy_constructionB8ue170006IS7_vvEES7_RKS7_, symObjAddr: 0x305F0, symBinAddr: 0x1000340FC, symSize: 0x10 }
  - { offsetInCU: 0x4BA4D, offset: 0x4BA4D, size: 0x8, addend: 0x0, symName: __ZNKSt3__16vectorINS_12basic_stringIcNS_11char_traitsIcEENS_9allocatorIcEEEENS4_IS6_EEE7__allocB8ue170006Ev, symObjAddr: 0x30600, symBinAddr: 0x10003410C, symSize: 0x28 }
  - { offsetInCU: 0x4BA79, offset: 0x4BA79, size: 0x8, addend: 0x0, symName: __ZNSt3__117__compressed_pairIPNS_12basic_stringIcNS_11char_traitsIcEENS_9allocatorIcEEEENS4_IS6_EEEC1B8ue170006IDnS8_EEOT_OT0_, symObjAddr: 0x30628, symBinAddr: 0x100034134, symSize: 0x3C }
  - { offsetInCU: 0x4BAD1, offset: 0x4BAD1, size: 0x8, addend: 0x0, symName: __ZNSt3__16vectorINS_12basic_stringIcNS_11char_traitsIcEENS_9allocatorIcEEEENS4_IS6_EEE16__init_with_sizeB8ue170006IPS6_SA_EEvT_T0_m, symObjAddr: 0x30664, symBinAddr: 0x100034170, symSize: 0xC0 }
  - { offsetInCU: 0x4BB45, offset: 0x4BB45, size: 0x8, addend: 0x0, symName: __ZNKSt3__117__compressed_pairIPNS_12basic_stringIcNS_11char_traitsIcEENS_9allocatorIcEEEENS4_IS6_EEE6secondB8ue170006Ev, symObjAddr: 0x30724, symBinAddr: 0x100034230, symSize: 0x24 }
  - { offsetInCU: 0x4BB6B, offset: 0x4BB6B, size: 0x8, addend: 0x0, symName: __ZNKSt3__122__compressed_pair_elemINS_9allocatorINS_12basic_stringIcNS_11char_traitsIcEENS1_IcEEEEEELi1ELb1EE5__getB8ue170006Ev, symObjAddr: 0x30748, symBinAddr: 0x100034254, symSize: 0x14 }
  - { offsetInCU: 0x4BB91, offset: 0x4BB91, size: 0x8, addend: 0x0, symName: __ZNSt3__117__compressed_pairIPNS_12basic_stringIcNS_11char_traitsIcEENS_9allocatorIcEEEENS4_IS6_EEEC2B8ue170006IDnS8_EEOT_OT0_, symObjAddr: 0x3075C, symBinAddr: 0x100034268, symSize: 0x44 }
  - { offsetInCU: 0x4BBE9, offset: 0x4BBE9, size: 0x8, addend: 0x0, symName: __ZNSt3__122__compressed_pair_elemIPNS_12basic_stringIcNS_11char_traitsIcEENS_9allocatorIcEEEELi0ELb0EEC2B8ue170006IDnvEEOT_, symObjAddr: 0x307A0, symBinAddr: 0x1000342AC, symSize: 0x1C }
  - { offsetInCU: 0x4BC2B, offset: 0x4BC2B, size: 0x8, addend: 0x0, symName: __ZNSt3__122__compressed_pair_elemINS_9allocatorINS_12basic_stringIcNS_11char_traitsIcEENS1_IcEEEEEELi1ELb1EEC2B8ue170006IS7_vEEOT_, symObjAddr: 0x307BC, symBinAddr: 0x1000342C8, symSize: 0x18 }
  - { offsetInCU: 0x4BC6D, offset: 0x4BC6D, size: 0x8, addend: 0x0, symName: __ZNSt3__16vectorINS_12basic_stringIcNS_11char_traitsIcEENS_9allocatorIcEEEENS4_IS6_EEE16__destroy_vectorC1B8ue170006ERS8_, symObjAddr: 0x30814, symBinAddr: 0x100034320, symSize: 0x34 }
  - { offsetInCU: 0x4BCA6, offset: 0x4BCA6, size: 0x8, addend: 0x0, symName: __ZNSt3__16vectorINS_12basic_stringIcNS_11char_traitsIcEENS_9allocatorIcEEEENS4_IS6_EEE11__vallocateB8ue170006Em, symObjAddr: 0x30848, symBinAddr: 0x100034354, symSize: 0xB4 }
  - { offsetInCU: 0x4BCEA, offset: 0x4BCEA, size: 0x8, addend: 0x0, symName: __ZNSt3__16vectorINS_12basic_stringIcNS_11char_traitsIcEENS_9allocatorIcEEEENS4_IS6_EEE18__construct_at_endIPS6_SA_EEvT_T0_m, symObjAddr: 0x308FC, symBinAddr: 0x100034408, symSize: 0x94 }
  - { offsetInCU: 0x4BD60, offset: 0x4BD60, size: 0x8, addend: 0x0, symName: __ZNSt3__128__exception_guard_exceptionsINS_6vectorINS_12basic_stringIcNS_11char_traitsIcEENS_9allocatorIcEEEENS5_IS7_EEE16__destroy_vectorEE10__completeB8ue170006Ev, symObjAddr: 0x30990, symBinAddr: 0x10003449C, symSize: 0x1C }
  - { offsetInCU: 0x4BD86, offset: 0x4BD86, size: 0x8, addend: 0x0, symName: __ZNSt3__128__exception_guard_exceptionsINS_6vectorINS_12basic_stringIcNS_11char_traitsIcEENS_9allocatorIcEEEENS5_IS7_EEE16__destroy_vectorEED1B8ue170006Ev, symObjAddr: 0x309AC, symBinAddr: 0x1000344B8, symSize: 0x2C }
  - { offsetInCU: 0x4BDB0, offset: 0x4BDB0, size: 0x8, addend: 0x0, symName: __ZNSt3__128__exception_guard_exceptionsINS_6vectorINS_12basic_stringIcNS_11char_traitsIcEENS_9allocatorIcEEEENS5_IS7_EEE16__destroy_vectorEEC1B8ue170006ESA_, symObjAddr: 0x309D8, symBinAddr: 0x1000344E4, symSize: 0x34 }
  - { offsetInCU: 0x4BDE8, offset: 0x4BDE8, size: 0x8, addend: 0x0, symName: __ZNSt3__128__exception_guard_exceptionsINS_6vectorINS_12basic_stringIcNS_11char_traitsIcEENS_9allocatorIcEEEENS5_IS7_EEE16__destroy_vectorEEC2B8ue170006ESA_, symObjAddr: 0x30A0C, symBinAddr: 0x100034518, symSize: 0x24 }
  - { offsetInCU: 0x4BE20, offset: 0x4BE20, size: 0x8, addend: 0x0, symName: __ZNSt3__16vectorINS_12basic_stringIcNS_11char_traitsIcEENS_9allocatorIcEEEENS4_IS6_EEE16__destroy_vectorC2B8ue170006ERS8_, symObjAddr: 0x30A30, symBinAddr: 0x10003453C, symSize: 0x20 }
  - { offsetInCU: 0x4BE59, offset: 0x4BE59, size: 0x8, addend: 0x0, symName: __ZNKSt3__16vectorINS_12basic_stringIcNS_11char_traitsIcEENS_9allocatorIcEEEENS4_IS6_EEE8max_sizeEv, symObjAddr: 0x30A50, symBinAddr: 0x10003455C, symSize: 0x74 }
  - { offsetInCU: 0x4BE81, offset: 0x4BE81, size: 0x8, addend: 0x0, symName: __ZNKSt3__16vectorINS_12basic_stringIcNS_11char_traitsIcEENS_9allocatorIcEEEENS4_IS6_EEE20__throw_length_errorB8ue170006Ev, symObjAddr: 0x30AC4, symBinAddr: 0x1000345D0, symSize: 0x1C }
  - { offsetInCU: 0x4BEA7, offset: 0x4BEA7, size: 0x8, addend: 0x0, symName: __ZNSt3__16vectorINS_12basic_stringIcNS_11char_traitsIcEENS_9allocatorIcEEEENS4_IS6_EEE7__allocB8ue170006Ev, symObjAddr: 0x30B20, symBinAddr: 0x10003462C, symSize: 0x28 }
  - { offsetInCU: 0x4BECD, offset: 0x4BECD, size: 0x8, addend: 0x0, symName: __ZNSt3__16vectorINS_12basic_stringIcNS_11char_traitsIcEENS_9allocatorIcEEEENS4_IS6_EEE9__end_capB8ue170006Ev, symObjAddr: 0x30B48, symBinAddr: 0x100034654, symSize: 0x28 }
  - { offsetInCU: 0x4BEF3, offset: 0x4BEF3, size: 0x8, addend: 0x0, symName: __ZNKSt3__16vectorINS_12basic_stringIcNS_11char_traitsIcEENS_9allocatorIcEEEENS4_IS6_EEE14__annotate_newB8ue170006Em, symObjAddr: 0x30B70, symBinAddr: 0x10003467C, symSize: 0xC8 }
  - { offsetInCU: 0x4BF28, offset: 0x4BF28, size: 0x8, addend: 0x0, symName: __ZNSt3__116allocator_traitsINS_9allocatorINS_12basic_stringIcNS_11char_traitsIcEENS1_IcEEEEEEE8max_sizeB8ue170006IS7_vEEmRKS7_, symObjAddr: 0x30C38, symBinAddr: 0x100034744, symSize: 0x24 }
  - { offsetInCU: 0x4BF56, offset: 0x4BF56, size: 0x8, addend: 0x0, symName: __ZNKSt3__19allocatorINS_12basic_stringIcNS_11char_traitsIcEENS0_IcEEEEE8max_sizeB8ue170006Ev, symObjAddr: 0x30C5C, symBinAddr: 0x100034768, symSize: 0x18 }
  - { offsetInCU: 0x4BF7C, offset: 0x4BF7C, size: 0x8, addend: 0x0, symName: __ZNSt3__19allocatorINS_12basic_stringIcNS_11char_traitsIcEENS0_IcEEEEE8allocateB8ue170006Em, symObjAddr: 0x30C74, symBinAddr: 0x100034780, symSize: 0x8C }
  - { offsetInCU: 0x4BFB0, offset: 0x4BFB0, size: 0x8, addend: 0x0, symName: __ZNSt3__117__compressed_pairIPNS_12basic_stringIcNS_11char_traitsIcEENS_9allocatorIcEEEENS4_IS6_EEE6secondB8ue170006Ev, symObjAddr: 0x30D00, symBinAddr: 0x10003480C, symSize: 0x24 }
  - { offsetInCU: 0x4BFD6, offset: 0x4BFD6, size: 0x8, addend: 0x0, symName: __ZNSt3__122__compressed_pair_elemINS_9allocatorINS_12basic_stringIcNS_11char_traitsIcEENS1_IcEEEEEELi1ELb1EE5__getB8ue170006Ev, symObjAddr: 0x30D24, symBinAddr: 0x100034830, symSize: 0x14 }
  - { offsetInCU: 0x4BFFC, offset: 0x4BFFC, size: 0x8, addend: 0x0, symName: __ZNSt3__117__compressed_pairIPNS_12basic_stringIcNS_11char_traitsIcEENS_9allocatorIcEEEENS4_IS6_EEE5firstB8ue170006Ev, symObjAddr: 0x30D38, symBinAddr: 0x100034844, symSize: 0x24 }
  - { offsetInCU: 0x4C022, offset: 0x4C022, size: 0x8, addend: 0x0, symName: __ZNSt3__122__compressed_pair_elemIPNS_12basic_stringIcNS_11char_traitsIcEENS_9allocatorIcEEEELi0ELb0EE5__getB8ue170006Ev, symObjAddr: 0x30D5C, symBinAddr: 0x100034868, symSize: 0x14 }
  - { offsetInCU: 0x4C048, offset: 0x4C048, size: 0x8, addend: 0x0, symName: __ZNKSt3__16vectorINS_12basic_stringIcNS_11char_traitsIcEENS_9allocatorIcEEEENS4_IS6_EEE31__annotate_contiguous_containerB8ue170006EPKvSA_SA_SA_, symObjAddr: 0x30D70, symBinAddr: 0x10003487C, symSize: 0x20 }
  - { offsetInCU: 0x4C09A, offset: 0x4C09A, size: 0x8, addend: 0x0, symName: __ZNKSt3__16vectorINS_12basic_stringIcNS_11char_traitsIcEENS_9allocatorIcEEEENS4_IS6_EEE4dataB8ue170006Ev, symObjAddr: 0x30D90, symBinAddr: 0x10003489C, symSize: 0x28 }
  - { offsetInCU: 0x4C0C0, offset: 0x4C0C0, size: 0x8, addend: 0x0, symName: __ZNKSt3__16vectorINS_12basic_stringIcNS_11char_traitsIcEENS_9allocatorIcEEEENS4_IS6_EEE8capacityB8ue170006Ev, symObjAddr: 0x30DB8, symBinAddr: 0x1000348C4, symSize: 0x40 }
  - { offsetInCU: 0x4C0E6, offset: 0x4C0E6, size: 0x8, addend: 0x0, symName: __ZNKSt3__16vectorINS_12basic_stringIcNS_11char_traitsIcEENS_9allocatorIcEEEENS4_IS6_EEE9__end_capB8ue170006Ev, symObjAddr: 0x30E0C, symBinAddr: 0x100034918, symSize: 0x28 }
  - { offsetInCU: 0x4C10C, offset: 0x4C10C, size: 0x8, addend: 0x0, symName: __ZNKSt3__117__compressed_pairIPNS_12basic_stringIcNS_11char_traitsIcEENS_9allocatorIcEEEENS4_IS6_EEE5firstB8ue170006Ev, symObjAddr: 0x30E34, symBinAddr: 0x100034940, symSize: 0x24 }
  - { offsetInCU: 0x4C132, offset: 0x4C132, size: 0x8, addend: 0x0, symName: __ZNKSt3__122__compressed_pair_elemIPNS_12basic_stringIcNS_11char_traitsIcEENS_9allocatorIcEEEELi0ELb0EE5__getB8ue170006Ev, symObjAddr: 0x30E58, symBinAddr: 0x100034964, symSize: 0x14 }
  - { offsetInCU: 0x4C173, offset: 0x4C173, size: 0x8, addend: 0x0, symName: __ZNSt3__16vectorINS_12basic_stringIcNS_11char_traitsIcEENS_9allocatorIcEEEENS4_IS6_EEE21_ConstructTransactionC1B8ue170006ERS8_m, symObjAddr: 0x30E6C, symBinAddr: 0x100034978, symSize: 0x3C }
  - { offsetInCU: 0x4C1BB, offset: 0x4C1BB, size: 0x8, addend: 0x0, symName: __ZNSt3__16vectorINS_12basic_stringIcNS_11char_traitsIcEENS_9allocatorIcEEEENS4_IS6_EEE21_ConstructTransactionD1B8ue170006Ev, symObjAddr: 0x30F28, symBinAddr: 0x100034A34, symSize: 0x2C }
  - { offsetInCU: 0x4C1E5, offset: 0x4C1E5, size: 0x8, addend: 0x0, symName: __ZNSt3__16vectorINS_12basic_stringIcNS_11char_traitsIcEENS_9allocatorIcEEEENS4_IS6_EEE21_ConstructTransactionC2B8ue170006ERS8_m, symObjAddr: 0x30F54, symBinAddr: 0x100034A60, symSize: 0x4C }
  - { offsetInCU: 0x4C249, offset: 0x4C249, size: 0x8, addend: 0x0, symName: __ZNSt3__14pairIPNS_12basic_stringIcNS_11char_traitsIcEENS_9allocatorIcEEEES7_EC1B8ue170006ERKS7_SA_, symObjAddr: 0x311A8, symBinAddr: 0x100034CB4, symSize: 0x3C }
  - { offsetInCU: 0x4C28F, offset: 0x4C28F, size: 0x8, addend: 0x0, symName: __ZNSt3__14pairIPNS_12basic_stringIcNS_11char_traitsIcEENS_9allocatorIcEEEES7_EC2B8ue170006ERKS7_SA_, symObjAddr: 0x311E4, symBinAddr: 0x100034CF0, symSize: 0x34 }
  - { offsetInCU: 0x4C2D5, offset: 0x4C2D5, size: 0x8, addend: 0x0, symName: __ZNSt3__129_AllocatorDestroyRangeReverseINS_9allocatorINS_12basic_stringIcNS_11char_traitsIcEENS1_IcEEEEEEPS6_EC1B8ue170006ERS7_RS8_SB_, symObjAddr: 0x31264, symBinAddr: 0x100034D70, symSize: 0x44 }
  - { offsetInCU: 0x4C32C, offset: 0x4C32C, size: 0x8, addend: 0x0, symName: __ZNSt3__116allocator_traitsINS_9allocatorINS_12basic_stringIcNS_11char_traitsIcEENS1_IcEEEEEEE9constructB8ue170006IS6_JRS6_EvEEvRS7_PT_DpOT0_, symObjAddr: 0x312A8, symBinAddr: 0x100034DB4, symSize: 0x34 }
  - { offsetInCU: 0x4C383, offset: 0x4C383, size: 0x8, addend: 0x0, symName: __ZNSt3__128__exception_guard_exceptionsINS_29_AllocatorDestroyRangeReverseINS_9allocatorINS_12basic_stringIcNS_11char_traitsIcEENS2_IcEEEEEEPS7_EEE10__completeB8ue170006Ev, symObjAddr: 0x312DC, symBinAddr: 0x100034DE8, symSize: 0x1C }
  - { offsetInCU: 0x4C3A9, offset: 0x4C3A9, size: 0x8, addend: 0x0, symName: __ZNSt3__128__exception_guard_exceptionsINS_29_AllocatorDestroyRangeReverseINS_9allocatorINS_12basic_stringIcNS_11char_traitsIcEENS2_IcEEEEEEPS7_EEED1B8ue170006Ev, symObjAddr: 0x312F8, symBinAddr: 0x100034E04, symSize: 0x2C }
  - { offsetInCU: 0x4C3D3, offset: 0x4C3D3, size: 0x8, addend: 0x0, symName: __ZNSt3__128__exception_guard_exceptionsINS_29_AllocatorDestroyRangeReverseINS_9allocatorINS_12basic_stringIcNS_11char_traitsIcEENS2_IcEEEEEEPS7_EEEC1B8ue170006ESA_, symObjAddr: 0x31324, symBinAddr: 0x100034E30, symSize: 0x34 }
  - { offsetInCU: 0x4C40C, offset: 0x4C40C, size: 0x8, addend: 0x0, symName: __ZNSt3__128__exception_guard_exceptionsINS_29_AllocatorDestroyRangeReverseINS_9allocatorINS_12basic_stringIcNS_11char_traitsIcEENS2_IcEEEEEEPS7_EEEC2B8ue170006ESA_, symObjAddr: 0x31358, symBinAddr: 0x100034E64, symSize: 0x30 }
  - { offsetInCU: 0x4C445, offset: 0x4C445, size: 0x8, addend: 0x0, symName: __ZNSt3__129_AllocatorDestroyRangeReverseINS_9allocatorINS_12basic_stringIcNS_11char_traitsIcEENS1_IcEEEEEEPS6_EC2B8ue170006ERS7_RS8_SB_, symObjAddr: 0x31388, symBinAddr: 0x100034E94, symSize: 0x38 }
  - { offsetInCU: 0x4C49C, offset: 0x4C49C, size: 0x8, addend: 0x0, symName: __ZNSt3__19allocatorINS_12basic_stringIcNS_11char_traitsIcEENS0_IcEEEEE9constructB8ue170006IS5_JRS5_EEEvPT_DpOT0_, symObjAddr: 0x313C0, symBinAddr: 0x100034ECC, symSize: 0x30 }
  - { offsetInCU: 0x4C4F2, offset: 0x4C4F2, size: 0x8, addend: 0x0, symName: __ZNSt3__128__exception_guard_exceptionsINS_29_AllocatorDestroyRangeReverseINS_9allocatorINS_12basic_stringIcNS_11char_traitsIcEENS2_IcEEEEEEPS7_EEED2B8ue170006Ev, symObjAddr: 0x313F0, symBinAddr: 0x100034EFC, symSize: 0x48 }
  - { offsetInCU: 0x4C51C, offset: 0x4C51C, size: 0x8, addend: 0x0, symName: __ZNKSt3__129_AllocatorDestroyRangeReverseINS_9allocatorINS_12basic_stringIcNS_11char_traitsIcEENS1_IcEEEEEEPS6_EclB8ue170006Ev, symObjAddr: 0x31438, symBinAddr: 0x100034F44, symSize: 0x68 }
  - { offsetInCU: 0x4C542, offset: 0x4C542, size: 0x8, addend: 0x0, symName: __ZNSt3__116reverse_iteratorIPNS_12basic_stringIcNS_11char_traitsIcEENS_9allocatorIcEEEEEC1B8ue170006ES7_, symObjAddr: 0x31510, symBinAddr: 0x10003501C, symSize: 0x34 }
  - { offsetInCU: 0x4C57A, offset: 0x4C57A, size: 0x8, addend: 0x0, symName: __ZNSt3__116allocator_traitsINS_9allocatorINS_12basic_stringIcNS_11char_traitsIcEENS1_IcEEEEEEE7destroyB8ue170006IS6_vEEvRS7_PT_, symObjAddr: 0x3158C, symBinAddr: 0x100035098, symSize: 0x2C }
  - { offsetInCU: 0x4C5B7, offset: 0x4C5B7, size: 0x8, addend: 0x0, symName: __ZNSt3__116reverse_iteratorIPNS_12basic_stringIcNS_11char_traitsIcEENS_9allocatorIcEEEEEppB8ue170006Ev, symObjAddr: 0x315DC, symBinAddr: 0x1000350E8, symSize: 0x20 }
  - { offsetInCU: 0x4C5DD, offset: 0x4C5DD, size: 0x8, addend: 0x0, symName: __ZNKSt3__116reverse_iteratorIPNS_12basic_stringIcNS_11char_traitsIcEENS_9allocatorIcEEEEE4baseB8ue170006Ev, symObjAddr: 0x315FC, symBinAddr: 0x100035108, symSize: 0x18 }
  - { offsetInCU: 0x4C603, offset: 0x4C603, size: 0x8, addend: 0x0, symName: __ZNSt3__19allocatorINS_12basic_stringIcNS_11char_traitsIcEENS0_IcEEEEE7destroyB8ue170006EPS5_, symObjAddr: 0x31614, symBinAddr: 0x100035120, symSize: 0x28 }
  - { offsetInCU: 0x4C63D, offset: 0x4C63D, size: 0x8, addend: 0x0, symName: __ZNSt3__119__to_address_helperINS_16reverse_iteratorIPNS_12basic_stringIcNS_11char_traitsIcEENS_9allocatorIcEEEEEEvE6__callB8ue170006ERKS9_, symObjAddr: 0x3163C, symBinAddr: 0x100035148, symSize: 0x4C }
  - { offsetInCU: 0x4C660, offset: 0x4C660, size: 0x8, addend: 0x0, symName: __ZNKSt3__116reverse_iteratorIPNS_12basic_stringIcNS_11char_traitsIcEENS_9allocatorIcEEEEEptB8ue170006Ev, symObjAddr: 0x31688, symBinAddr: 0x100035194, symSize: 0x24 }
  - { offsetInCU: 0x4C686, offset: 0x4C686, size: 0x8, addend: 0x0, symName: __ZNKSt3__116reverse_iteratorIPNS_12basic_stringIcNS_11char_traitsIcEENS_9allocatorIcEEEEEdeB8ue170006Ev, symObjAddr: 0x316AC, symBinAddr: 0x1000351B8, symSize: 0x28 }
  - { offsetInCU: 0x4C6BA, offset: 0x4C6BA, size: 0x8, addend: 0x0, symName: __ZNSt3__116reverse_iteratorIPNS_12basic_stringIcNS_11char_traitsIcEENS_9allocatorIcEEEEEC2B8ue170006ES7_, symObjAddr: 0x316D4, symBinAddr: 0x1000351E0, symSize: 0x28 }
  - { offsetInCU: 0x4C6F2, offset: 0x4C6F2, size: 0x8, addend: 0x0, symName: __ZNSt3__118__unwrap_iter_implIPNS_12basic_stringIcNS_11char_traitsIcEENS_9allocatorIcEEEELb1EE8__unwrapB8ue170006ES7_, symObjAddr: 0x316FC, symBinAddr: 0x100035208, symSize: 0x24 }
  - { offsetInCU: 0x4C715, offset: 0x4C715, size: 0x8, addend: 0x0, symName: __ZNSt3__118__unwrap_iter_implIPNS_12basic_stringIcNS_11char_traitsIcEENS_9allocatorIcEEEELb1EE8__rewrapB8ue170006ES7_S7_, symObjAddr: 0x31720, symBinAddr: 0x10003522C, symSize: 0x58 }
  - { offsetInCU: 0x4C746, offset: 0x4C746, size: 0x8, addend: 0x0, symName: __ZNSt3__16vectorINS_12basic_stringIcNS_11char_traitsIcEENS_9allocatorIcEEEENS4_IS6_EEE21_ConstructTransactionD2B8ue170006Ev, symObjAddr: 0x31778, symBinAddr: 0x100035284, symSize: 0x20 }
  - { offsetInCU: 0x4C770, offset: 0x4C770, size: 0x8, addend: 0x0, symName: __ZNSt3__128__exception_guard_exceptionsINS_6vectorINS_12basic_stringIcNS_11char_traitsIcEENS_9allocatorIcEEEENS5_IS7_EEE16__destroy_vectorEED2B8ue170006Ev, symObjAddr: 0x31798, symBinAddr: 0x1000352A4, symSize: 0x48 }
  - { offsetInCU: 0x4C79A, offset: 0x4C79A, size: 0x8, addend: 0x0, symName: __ZNSt3__16vectorINS_12basic_stringIcNS_11char_traitsIcEENS_9allocatorIcEEEENS4_IS6_EEE16__destroy_vectorclB8ue170006Ev, symObjAddr: 0x317E0, symBinAddr: 0x1000352EC, symSize: 0x90 }
  - { offsetInCU: 0x4C7C0, offset: 0x4C7C0, size: 0x8, addend: 0x0, symName: __ZNSt3__16vectorINS_12basic_stringIcNS_11char_traitsIcEENS_9allocatorIcEEEENS4_IS6_EEE7__clearB8ue170006Ev, symObjAddr: 0x31870, symBinAddr: 0x10003537C, symSize: 0x28 }
  - { offsetInCU: 0x4C7E6, offset: 0x4C7E6, size: 0x8, addend: 0x0, symName: __ZNKSt3__16vectorINS_12basic_stringIcNS_11char_traitsIcEENS_9allocatorIcEEEENS4_IS6_EEE17__annotate_deleteB8ue170006Ev, symObjAddr: 0x31898, symBinAddr: 0x1000353A4, symSize: 0xD4 }
  - { offsetInCU: 0x4C80C, offset: 0x4C80C, size: 0x8, addend: 0x0, symName: __ZNSt3__116allocator_traitsINS_9allocatorINS_12basic_stringIcNS_11char_traitsIcEENS1_IcEEEEEEE10deallocateB8ue170006ERS7_PS6_m, symObjAddr: 0x3196C, symBinAddr: 0x100035478, symSize: 0x34 }
  - { offsetInCU: 0x4C84E, offset: 0x4C84E, size: 0x8, addend: 0x0, symName: __ZNSt3__16vectorINS_12basic_stringIcNS_11char_traitsIcEENS_9allocatorIcEEEENS4_IS6_EEE22__base_destruct_at_endB8ue170006EPS6_, symObjAddr: 0x319A0, symBinAddr: 0x1000354AC, symSize: 0xA0 }
  - { offsetInCU: 0x4C892, offset: 0x4C892, size: 0x8, addend: 0x0, symName: __ZNSt3__19allocatorINS_12basic_stringIcNS_11char_traitsIcEENS0_IcEEEEE10deallocateB8ue170006EPS5_m, symObjAddr: 0x31A40, symBinAddr: 0x10003554C, symSize: 0x74 }
  - { offsetInCU: 0x4C8D4, offset: 0x4C8D4, size: 0x8, addend: 0x0, symName: __ZNSt3__16vectorINS_12basic_stringIcNS_11char_traitsIcEENS_9allocatorIcEEEENS4_IS6_EEE13__move_assignERS8_NS_17integral_constantIbLb1EEE, symObjAddr: 0x31AB4, symBinAddr: 0x1000355C0, symSize: 0x94 }
  - { offsetInCU: 0x4C916, offset: 0x4C916, size: 0x8, addend: 0x0, symName: __ZNSt3__16vectorINS_12basic_stringIcNS_11char_traitsIcEENS_9allocatorIcEEEENS4_IS6_EEE13__vdeallocateEv, symObjAddr: 0x31B48, symBinAddr: 0x100035654, symSize: 0x94 }
  - { offsetInCU: 0x4C93E, offset: 0x4C93E, size: 0x8, addend: 0x0, symName: __ZNSt3__16vectorINS_12basic_stringIcNS_11char_traitsIcEENS_9allocatorIcEEEENS4_IS6_EEE19__move_assign_allocB8ue170006ERS8_, symObjAddr: 0x31BDC, symBinAddr: 0x1000356E8, symSize: 0x2C }
  - { offsetInCU: 0x4C973, offset: 0x4C973, size: 0x8, addend: 0x0, symName: __ZNSt3__16vectorINS_12basic_stringIcNS_11char_traitsIcEENS_9allocatorIcEEEENS4_IS6_EEE5clearB8ue170006Ev, symObjAddr: 0x31C08, symBinAddr: 0x100035714, symSize: 0x44 }
  - { offsetInCU: 0x4C9A8, offset: 0x4C9A8, size: 0x8, addend: 0x0, symName: __ZNKSt3__16vectorINS_12basic_stringIcNS_11char_traitsIcEENS_9allocatorIcEEEENS4_IS6_EEE17__annotate_shrinkB8ue170006Em, symObjAddr: 0x31C4C, symBinAddr: 0x100035758, symSize: 0xD0 }
  - { offsetInCU: 0x4C9DD, offset: 0x4C9DD, size: 0x8, addend: 0x0, symName: __ZNSt3__16vectorINS_12basic_stringIcNS_11char_traitsIcEENS_9allocatorIcEEEENS4_IS6_EEE19__move_assign_allocB8ue170006ERS8_NS_17integral_constantIbLb1EEE, symObjAddr: 0x31D1C, symBinAddr: 0x100035828, symSize: 0x38 }
  - { offsetInCU: 0x4CA1D, offset: 0x4CA1D, size: 0x8, addend: 0x0, symName: __ZNSt3__16vectorIdNS_9allocatorIdEEE9push_backB8ue170006EOd, symObjAddr: 0x31D54, symBinAddr: 0x100035860, symSize: 0x6C }
  - { offsetInCU: 0x4CA54, offset: 0x4CA54, size: 0x8, addend: 0x0, symName: __ZN13HeuristicData26calculateMutualInformationERKNSt3__16vectorIiNS0_9allocatorIiEEEES6_, symObjAddr: 0x31DC0, symBinAddr: 0x1000358CC, symSize: 0x498 }
  - { offsetInCU: 0x4CC84, offset: 0x4CC84, size: 0x8, addend: 0x0, symName: __ZN13HeuristicData16cosineSimilarityERKNSt3__16vectorIiNS0_9allocatorIiEEEES6_, symObjAddr: 0x32258, symBinAddr: 0x100035D64, symSize: 0xA0 }
  - { offsetInCU: 0x4CCDF, offset: 0x4CCDF, size: 0x8, addend: 0x0, symName: __ZNSt3__16vectorINS0_IdNS_9allocatorIdEEEENS1_IS3_EEE9push_backB8ue170006ERKS3_, symObjAddr: 0x322F8, symBinAddr: 0x100035E04, symSize: 0x6C }
  - { offsetInCU: 0x4CD16, offset: 0x4CD16, size: 0x8, addend: 0x0, symName: __ZNSt3__16vectorIdNS_9allocatorIdEEE22__construct_one_at_endB8ue170006IJdEEEvDpOT_, symObjAddr: 0x32364, symBinAddr: 0x100035E70, symSize: 0x98 }
  - { offsetInCU: 0x4CD65, offset: 0x4CD65, size: 0x8, addend: 0x0, symName: __ZNSt3__16vectorIdNS_9allocatorIdEEE21__push_back_slow_pathIdEEvOT_, symObjAddr: 0x323FC, symBinAddr: 0x100035F08, symSize: 0xE0 }
  - { offsetInCU: 0x4CDC3, offset: 0x4CDC3, size: 0x8, addend: 0x0, symName: __ZNSt3__116allocator_traitsINS_9allocatorIdEEE9constructB8ue170006IdJdEvEEvRS2_PT_DpOT0_, symObjAddr: 0x324DC, symBinAddr: 0x100035FE8, symSize: 0x34 }
  - { offsetInCU: 0x4CE1A, offset: 0x4CE1A, size: 0x8, addend: 0x0, symName: __ZNSt3__19allocatorIdE9constructB8ue170006IdJdEEEvPT_DpOT0_, symObjAddr: 0x32510, symBinAddr: 0x10003601C, symSize: 0x28 }
  - { offsetInCU: 0x4CE70, offset: 0x4CE70, size: 0x8, addend: 0x0, symName: __ZNSt3__13mapINS_4pairIiiEEdNS_4lessIS2_EENS_9allocatorINS1_IKS2_dEEEEEC1B8ue170006Ev, symObjAddr: 0x32538, symBinAddr: 0x100036044, symSize: 0x2C }
  - { offsetInCU: 0x4CE9A, offset: 0x4CE9A, size: 0x8, addend: 0x0, symName: __ZNSt3__13mapIidNS_4lessIiEENS_9allocatorINS_4pairIKidEEEEEC1B8ue170006Ev, symObjAddr: 0x32564, symBinAddr: 0x100036070, symSize: 0x2C }
  - { offsetInCU: 0x4CEC4, offset: 0x4CEC4, size: 0x8, addend: 0x0, symName: __ZNSt3__13mapINS_4pairIiiEEdNS_4lessIS2_EENS_9allocatorINS1_IKS2_dEEEEEixERS6_, symObjAddr: 0x32590, symBinAddr: 0x10003609C, symSize: 0xC8 }
  - { offsetInCU: 0x4CF3D, offset: 0x4CF3D, size: 0x8, addend: 0x0, symName: __ZNSt3__13mapIidNS_4lessIiEENS_9allocatorINS_4pairIKidEEEEEixERS5_, symObjAddr: 0x3268C, symBinAddr: 0x100036198, symSize: 0xC8 }
  - { offsetInCU: 0x4CFB6, offset: 0x4CFB6, size: 0x8, addend: 0x0, symName: __ZNSt3__13mapINS_4pairIiiEEdNS_4lessIS2_EENS_9allocatorINS1_IKS2_dEEEEE5beginB8ue170006Ev, symObjAddr: 0x32754, symBinAddr: 0x100036260, symSize: 0x38 }
  - { offsetInCU: 0x4CFDC, offset: 0x4CFDC, size: 0x8, addend: 0x0, symName: __ZNSt3__13mapINS_4pairIiiEEdNS_4lessIS2_EENS_9allocatorINS1_IKS2_dEEEEE3endB8ue170006Ev, symObjAddr: 0x3278C, symBinAddr: 0x100036298, symSize: 0x38 }
  - { offsetInCU: 0x4D002, offset: 0x4D002, size: 0x8, addend: 0x0, symName: __ZNKSt3__114__map_iteratorINS_15__tree_iteratorINS_12__value_typeINS_4pairIiiEEdEEPNS_11__tree_nodeIS5_PvEElEEEdeB8ue170006Ev, symObjAddr: 0x327F4, symBinAddr: 0x100036300, symSize: 0x28 }
  - { offsetInCU: 0x4D028, offset: 0x4D028, size: 0x8, addend: 0x0, symName: __ZNSt3__114__map_iteratorINS_15__tree_iteratorINS_12__value_typeINS_4pairIiiEEdEEPNS_11__tree_nodeIS5_PvEElEEEppB8ue170006Ev, symObjAddr: 0x3281C, symBinAddr: 0x100036328, symSize: 0x2C }
  - { offsetInCU: 0x4D04E, offset: 0x4D04E, size: 0x8, addend: 0x0, symName: __ZNSt3__13mapIidNS_4lessIiEENS_9allocatorINS_4pairIKidEEEEE5beginB8ue170006Ev, symObjAddr: 0x32848, symBinAddr: 0x100036354, symSize: 0x38 }
  - { offsetInCU: 0x4D074, offset: 0x4D074, size: 0x8, addend: 0x0, symName: __ZNSt3__13mapIidNS_4lessIiEENS_9allocatorINS_4pairIKidEEEEE3endB8ue170006Ev, symObjAddr: 0x32880, symBinAddr: 0x10003638C, symSize: 0x38 }
  - { offsetInCU: 0x4D09A, offset: 0x4D09A, size: 0x8, addend: 0x0, symName: __ZNKSt3__114__map_iteratorINS_15__tree_iteratorINS_12__value_typeIidEEPNS_11__tree_nodeIS3_PvEElEEEdeB8ue170006Ev, symObjAddr: 0x328E8, symBinAddr: 0x1000363F4, symSize: 0x28 }
  - { offsetInCU: 0x4D0C0, offset: 0x4D0C0, size: 0x8, addend: 0x0, symName: __ZNSt3__114__map_iteratorINS_15__tree_iteratorINS_12__value_typeIidEEPNS_11__tree_nodeIS3_PvEElEEEppB8ue170006Ev, symObjAddr: 0x32910, symBinAddr: 0x10003641C, symSize: 0x2C }
  - { offsetInCU: 0x4D0E6, offset: 0x4D0E6, size: 0x8, addend: 0x0, symName: __ZNSt3__13mapIidNS_4lessIiEENS_9allocatorINS_4pairIKidEEEEED1B8ue170006Ev, symObjAddr: 0x3293C, symBinAddr: 0x100036448, symSize: 0x2C }
  - { offsetInCU: 0x4D110, offset: 0x4D110, size: 0x8, addend: 0x0, symName: __ZNSt3__13mapINS_4pairIiiEEdNS_4lessIS2_EENS_9allocatorINS1_IKS2_dEEEEED1B8ue170006Ev, symObjAddr: 0x32968, symBinAddr: 0x100036474, symSize: 0x2C }
  - { offsetInCU: 0x4D13A, offset: 0x4D13A, size: 0x8, addend: 0x0, symName: __ZNSt3__13mapINS_4pairIiiEEdNS_4lessIS2_EENS_9allocatorINS1_IKS2_dEEEEEC2B8ue170006Ev, symObjAddr: 0x32994, symBinAddr: 0x1000364A0, symSize: 0x40 }
  - { offsetInCU: 0x4D164, offset: 0x4D164, size: 0x8, addend: 0x0, symName: __ZNSt3__119__map_value_compareINS_4pairIiiEENS_12__value_typeIS2_dEENS_4lessIS2_EELb1EEC1B8ue170006ES6_, symObjAddr: 0x329D4, symBinAddr: 0x1000364E0, symSize: 0x2C }
  - { offsetInCU: 0x4D19D, offset: 0x4D19D, size: 0x8, addend: 0x0, symName: __ZNSt3__16__treeINS_12__value_typeINS_4pairIiiEEdEENS_19__map_value_compareIS3_S4_NS_4lessIS3_EELb1EEENS_9allocatorIS4_EEEC1ERKS8_, symObjAddr: 0x32A00, symBinAddr: 0x10003650C, symSize: 0x34 }
  - { offsetInCU: 0x4D1D8, offset: 0x4D1D8, size: 0x8, addend: 0x0, symName: __ZNSt3__119__map_value_compareINS_4pairIiiEENS_12__value_typeIS2_dEENS_4lessIS2_EELb1EEC2B8ue170006ES6_, symObjAddr: 0x32A34, symBinAddr: 0x100036540, symSize: 0x14 }
  - { offsetInCU: 0x4D211, offset: 0x4D211, size: 0x8, addend: 0x0, symName: __ZNSt3__16__treeINS_12__value_typeINS_4pairIiiEEdEENS_19__map_value_compareIS3_S4_NS_4lessIS3_EELb1EEENS_9allocatorIS4_EEEC2ERKS8_, symObjAddr: 0x32A48, symBinAddr: 0x100036554, symSize: 0x70 }
  - { offsetInCU: 0x4D24C, offset: 0x4D24C, size: 0x8, addend: 0x0, symName: __ZNSt3__117__compressed_pairINS_15__tree_end_nodeIPNS_16__tree_node_baseIPvEEEENS_9allocatorINS_11__tree_nodeINS_12__value_typeINS_4pairIiiEEdEES3_EEEEEC1B8ue170006ILb1EvEEv, symObjAddr: 0x32AB8, symBinAddr: 0x1000365C4, symSize: 0x2C }
  - { offsetInCU: 0x4D281, offset: 0x4D281, size: 0x8, addend: 0x0, symName: __ZNSt3__117__compressed_pairImNS_19__map_value_compareINS_4pairIiiEENS_12__value_typeIS3_dEENS_4lessIS3_EELb1EEEEC1B8ue170006IiRKS8_EEOT_OT0_, symObjAddr: 0x32AE4, symBinAddr: 0x1000365F0, symSize: 0x3C }
  - { offsetInCU: 0x4D2D9, offset: 0x4D2D9, size: 0x8, addend: 0x0, symName: __ZNSt3__16__treeINS_12__value_typeINS_4pairIiiEEdEENS_19__map_value_compareIS3_S4_NS_4lessIS3_EELb1EEENS_9allocatorIS4_EEE10__end_nodeB8ue170006Ev, symObjAddr: 0x32B20, symBinAddr: 0x10003662C, symSize: 0x2C }
  - { offsetInCU: 0x4D2FF, offset: 0x4D2FF, size: 0x8, addend: 0x0, symName: __ZNSt3__16__treeINS_12__value_typeINS_4pairIiiEEdEENS_19__map_value_compareIS3_S4_NS_4lessIS3_EELb1EEENS_9allocatorIS4_EEE12__begin_nodeB8ue170006Ev, symObjAddr: 0x32B4C, symBinAddr: 0x100036658, symSize: 0x14 }
  - { offsetInCU: 0x4D325, offset: 0x4D325, size: 0x8, addend: 0x0, symName: __ZNSt3__117__compressed_pairINS_15__tree_end_nodeIPNS_16__tree_node_baseIPvEEEENS_9allocatorINS_11__tree_nodeINS_12__value_typeINS_4pairIiiEEdEES3_EEEEEC2B8ue170006ILb1EvEEv, symObjAddr: 0x32B60, symBinAddr: 0x10003666C, symSize: 0x34 }
  - { offsetInCU: 0x4D35A, offset: 0x4D35A, size: 0x8, addend: 0x0, symName: __ZNSt3__122__compressed_pair_elemINS_9allocatorINS_11__tree_nodeINS_12__value_typeINS_4pairIiiEEdEEPvEEEELi1ELb1EEC2B8ue170006ENS_16__value_init_tagE, symObjAddr: 0x32B94, symBinAddr: 0x1000366A0, symSize: 0x2C }
  - { offsetInCU: 0x4D38E, offset: 0x4D38E, size: 0x8, addend: 0x0, symName: __ZNSt3__19allocatorINS_11__tree_nodeINS_12__value_typeINS_4pairIiiEEdEEPvEEEC2B8ue170006Ev, symObjAddr: 0x32BC0, symBinAddr: 0x1000366CC, symSize: 0x2C }
  - { offsetInCU: 0x4D3B8, offset: 0x4D3B8, size: 0x8, addend: 0x0, symName: __ZNSt3__116__non_trivial_ifILb1ENS_9allocatorINS_11__tree_nodeINS_12__value_typeINS_4pairIiiEEdEEPvEEEEEC2B8ue170006Ev, symObjAddr: 0x32BEC, symBinAddr: 0x1000366F8, symSize: 0x14 }
  - { offsetInCU: 0x4D3E2, offset: 0x4D3E2, size: 0x8, addend: 0x0, symName: __ZNSt3__117__compressed_pairImNS_19__map_value_compareINS_4pairIiiEENS_12__value_typeIS3_dEENS_4lessIS3_EELb1EEEEC2B8ue170006IiRKS8_EEOT_OT0_, symObjAddr: 0x32C00, symBinAddr: 0x10003670C, symSize: 0x44 }
  - { offsetInCU: 0x4D43A, offset: 0x4D43A, size: 0x8, addend: 0x0, symName: __ZNSt3__122__compressed_pair_elemINS_19__map_value_compareINS_4pairIiiEENS_12__value_typeIS3_dEENS_4lessIS3_EELb1EEELi1ELb1EEC2B8ue170006IRKS8_vEEOT_, symObjAddr: 0x32C44, symBinAddr: 0x100036750, symSize: 0x18 }
  - { offsetInCU: 0x4D47C, offset: 0x4D47C, size: 0x8, addend: 0x0, symName: __ZNSt3__117__compressed_pairINS_15__tree_end_nodeIPNS_16__tree_node_baseIPvEEEENS_9allocatorINS_11__tree_nodeINS_12__value_typeINS_4pairIiiEEdEES3_EEEEE5firstB8ue170006Ev, symObjAddr: 0x32C5C, symBinAddr: 0x100036768, symSize: 0x24 }
  - { offsetInCU: 0x4D4A2, offset: 0x4D4A2, size: 0x8, addend: 0x0, symName: __ZNSt3__13mapIidNS_4lessIiEENS_9allocatorINS_4pairIKidEEEEEC2B8ue170006Ev, symObjAddr: 0x32C80, symBinAddr: 0x10003678C, symSize: 0x40 }
  - { offsetInCU: 0x4D4CC, offset: 0x4D4CC, size: 0x8, addend: 0x0, symName: __ZNSt3__119__map_value_compareIiNS_12__value_typeIidEENS_4lessIiEELb1EEC1B8ue170006ES4_, symObjAddr: 0x32CC0, symBinAddr: 0x1000367CC, symSize: 0x2C }
  - { offsetInCU: 0x4D505, offset: 0x4D505, size: 0x8, addend: 0x0, symName: __ZNSt3__16__treeINS_12__value_typeIidEENS_19__map_value_compareIiS2_NS_4lessIiEELb1EEENS_9allocatorIS2_EEEC1ERKS6_, symObjAddr: 0x32CEC, symBinAddr: 0x1000367F8, symSize: 0x34 }
  - { offsetInCU: 0x4D540, offset: 0x4D540, size: 0x8, addend: 0x0, symName: __ZNSt3__119__map_value_compareIiNS_12__value_typeIidEENS_4lessIiEELb1EEC2B8ue170006ES4_, symObjAddr: 0x32D20, symBinAddr: 0x10003682C, symSize: 0x14 }
  - { offsetInCU: 0x4D579, offset: 0x4D579, size: 0x8, addend: 0x0, symName: __ZNSt3__16__treeINS_12__value_typeIidEENS_19__map_value_compareIiS2_NS_4lessIiEELb1EEENS_9allocatorIS2_EEEC2ERKS6_, symObjAddr: 0x32D34, symBinAddr: 0x100036840, symSize: 0x70 }
  - { offsetInCU: 0x4D5B4, offset: 0x4D5B4, size: 0x8, addend: 0x0, symName: __ZNSt3__117__compressed_pairINS_15__tree_end_nodeIPNS_16__tree_node_baseIPvEEEENS_9allocatorINS_11__tree_nodeINS_12__value_typeIidEES3_EEEEEC1B8ue170006ILb1EvEEv, symObjAddr: 0x32DA4, symBinAddr: 0x1000368B0, symSize: 0x2C }
  - { offsetInCU: 0x4D5E9, offset: 0x4D5E9, size: 0x8, addend: 0x0, symName: __ZNSt3__117__compressed_pairImNS_19__map_value_compareIiNS_12__value_typeIidEENS_4lessIiEELb1EEEEC1B8ue170006IiRKS6_EEOT_OT0_, symObjAddr: 0x32DD0, symBinAddr: 0x1000368DC, symSize: 0x3C }
  - { offsetInCU: 0x4D641, offset: 0x4D641, size: 0x8, addend: 0x0, symName: __ZNSt3__16__treeINS_12__value_typeIidEENS_19__map_value_compareIiS2_NS_4lessIiEELb1EEENS_9allocatorIS2_EEE10__end_nodeB8ue170006Ev, symObjAddr: 0x32E0C, symBinAddr: 0x100036918, symSize: 0x2C }
  - { offsetInCU: 0x4D667, offset: 0x4D667, size: 0x8, addend: 0x0, symName: __ZNSt3__16__treeINS_12__value_typeIidEENS_19__map_value_compareIiS2_NS_4lessIiEELb1EEENS_9allocatorIS2_EEE12__begin_nodeB8ue170006Ev, symObjAddr: 0x32E38, symBinAddr: 0x100036944, symSize: 0x14 }
  - { offsetInCU: 0x4D68D, offset: 0x4D68D, size: 0x8, addend: 0x0, symName: __ZNSt3__117__compressed_pairINS_15__tree_end_nodeIPNS_16__tree_node_baseIPvEEEENS_9allocatorINS_11__tree_nodeINS_12__value_typeIidEES3_EEEEEC2B8ue170006ILb1EvEEv, symObjAddr: 0x32E4C, symBinAddr: 0x100036958, symSize: 0x34 }
  - { offsetInCU: 0x4D6C2, offset: 0x4D6C2, size: 0x8, addend: 0x0, symName: __ZNSt3__122__compressed_pair_elemINS_9allocatorINS_11__tree_nodeINS_12__value_typeIidEEPvEEEELi1ELb1EEC2B8ue170006ENS_16__value_init_tagE, symObjAddr: 0x32E80, symBinAddr: 0x10003698C, symSize: 0x2C }
  - { offsetInCU: 0x4D6F6, offset: 0x4D6F6, size: 0x8, addend: 0x0, symName: __ZNSt3__19allocatorINS_11__tree_nodeINS_12__value_typeIidEEPvEEEC2B8ue170006Ev, symObjAddr: 0x32EAC, symBinAddr: 0x1000369B8, symSize: 0x2C }
  - { offsetInCU: 0x4D720, offset: 0x4D720, size: 0x8, addend: 0x0, symName: __ZNSt3__116__non_trivial_ifILb1ENS_9allocatorINS_11__tree_nodeINS_12__value_typeIidEEPvEEEEEC2B8ue170006Ev, symObjAddr: 0x32ED8, symBinAddr: 0x1000369E4, symSize: 0x14 }
  - { offsetInCU: 0x4D74A, offset: 0x4D74A, size: 0x8, addend: 0x0, symName: __ZNSt3__117__compressed_pairImNS_19__map_value_compareIiNS_12__value_typeIidEENS_4lessIiEELb1EEEEC2B8ue170006IiRKS6_EEOT_OT0_, symObjAddr: 0x32EEC, symBinAddr: 0x1000369F8, symSize: 0x44 }
  - { offsetInCU: 0x4D7A2, offset: 0x4D7A2, size: 0x8, addend: 0x0, symName: __ZNSt3__122__compressed_pair_elemINS_19__map_value_compareIiNS_12__value_typeIidEENS_4lessIiEELb1EEELi1ELb1EEC2B8ue170006IRKS6_vEEOT_, symObjAddr: 0x32F30, symBinAddr: 0x100036A3C, symSize: 0x18 }
  - { offsetInCU: 0x4D7E4, offset: 0x4D7E4, size: 0x8, addend: 0x0, symName: __ZNSt3__117__compressed_pairINS_15__tree_end_nodeIPNS_16__tree_node_baseIPvEEEENS_9allocatorINS_11__tree_nodeINS_12__value_typeIidEES3_EEEEE5firstB8ue170006Ev, symObjAddr: 0x32F48, symBinAddr: 0x100036A54, symSize: 0x24 }
  - { offsetInCU: 0x4D80A, offset: 0x4D80A, size: 0x8, addend: 0x0, symName: __ZNSt3__16__treeINS_12__value_typeINS_4pairIiiEEdEENS_19__map_value_compareIS3_S4_NS_4lessIS3_EELb1EEENS_9allocatorIS4_EEE12__find_equalIS3_EERPNS_16__tree_node_baseIPvEERPNS_15__tree_end_nodeISG_EERKT_, symObjAddr: 0x32F6C, symBinAddr: 0x100036A78, symSize: 0x184 }
  - { offsetInCU: 0x4D877, offset: 0x4D877, size: 0x8, addend: 0x0, symName: __ZNSt3__13mapINS_4pairIiiEEdNS_4lessIS2_EENS_9allocatorINS1_IKS2_dEEEEE25__construct_node_with_keyERS6_, symObjAddr: 0x330F0, symBinAddr: 0x100036BFC, symSize: 0x154 }
  - { offsetInCU: 0x4D8CD, offset: 0x4D8CD, size: 0x8, addend: 0x0, symName: __ZNSt3__16__treeINS_12__value_typeINS_4pairIiiEEdEENS_19__map_value_compareIS3_S4_NS_4lessIS3_EELb1EEENS_9allocatorIS4_EEE16__insert_node_atEPNS_15__tree_end_nodeIPNS_16__tree_node_baseIPvEEEERSG_SG_, symObjAddr: 0x33244, symBinAddr: 0x100036D50, symSize: 0xCC }
  - { offsetInCU: 0x4D922, offset: 0x4D922, size: 0x8, addend: 0x0, symName: __ZNKSt3__110unique_ptrINS_11__tree_nodeINS_12__value_typeINS_4pairIiiEEdEEPvEENS_21__map_node_destructorINS_9allocatorIS7_EEEEE3getB8ue170006Ev, symObjAddr: 0x33310, symBinAddr: 0x100036E1C, symSize: 0x28 }
  - { offsetInCU: 0x4D948, offset: 0x4D948, size: 0x8, addend: 0x0, symName: __ZNSt3__110unique_ptrINS_11__tree_nodeINS_12__value_typeINS_4pairIiiEEdEEPvEENS_21__map_node_destructorINS_9allocatorIS7_EEEEE7releaseB8ue170006Ev, symObjAddr: 0x33338, symBinAddr: 0x100036E44, symSize: 0x44 }
  - { offsetInCU: 0x4D97D, offset: 0x4D97D, size: 0x8, addend: 0x0, symName: __ZNSt3__110unique_ptrINS_11__tree_nodeINS_12__value_typeINS_4pairIiiEEdEEPvEENS_21__map_node_destructorINS_9allocatorIS7_EEEEED1B8ue170006Ev, symObjAddr: 0x3337C, symBinAddr: 0x100036E88, symSize: 0x2C }
  - { offsetInCU: 0x4D9A7, offset: 0x4D9A7, size: 0x8, addend: 0x0, symName: __ZNSt3__112__value_typeINS_4pairIiiEEdE11__get_valueB8ue170006Ev, symObjAddr: 0x333A8, symBinAddr: 0x100036EB4, symSize: 0x14 }
  - { offsetInCU: 0x4D9CD, offset: 0x4D9CD, size: 0x8, addend: 0x0, symName: __ZNKSt3__16__treeINS_12__value_typeINS_4pairIiiEEdEENS_19__map_value_compareIS3_S4_NS_4lessIS3_EELb1EEENS_9allocatorIS4_EEE6__rootB8ue170006Ev, symObjAddr: 0x333BC, symBinAddr: 0x100036EC8, symSize: 0x28 }
  - { offsetInCU: 0x4D9F3, offset: 0x4D9F3, size: 0x8, addend: 0x0, symName: __ZNKSt3__16__treeINS_12__value_typeINS_4pairIiiEEdEENS_19__map_value_compareIS3_S4_NS_4lessIS3_EELb1EEENS_9allocatorIS4_EEE10__root_ptrB8ue170006Ev, symObjAddr: 0x333E4, symBinAddr: 0x100036EF0, symSize: 0x24 }
  - { offsetInCU: 0x4DA19, offset: 0x4DA19, size: 0x8, addend: 0x0, symName: __ZNSt3__16__treeINS_12__value_typeINS_4pairIiiEEdEENS_19__map_value_compareIS3_S4_NS_4lessIS3_EELb1EEENS_9allocatorIS4_EEE10value_compB8ue170006Ev, symObjAddr: 0x33408, symBinAddr: 0x100036F14, symSize: 0x28 }
  - { offsetInCU: 0x4DA3F, offset: 0x4DA3F, size: 0x8, addend: 0x0, symName: __ZNKSt3__119__map_value_compareINS_4pairIiiEENS_12__value_typeIS2_dEENS_4lessIS2_EELb1EEclB8ue170006ERKS2_RKS4_, symObjAddr: 0x33430, symBinAddr: 0x100036F3C, symSize: 0x50 }
  - { offsetInCU: 0x4DA83, offset: 0x4DA83, size: 0x8, addend: 0x0, symName: __ZNKSt3__119__map_value_compareINS_4pairIiiEENS_12__value_typeIS2_dEENS_4lessIS2_EELb1EEclB8ue170006ERKS4_RKS2_, symObjAddr: 0x33480, symBinAddr: 0x100036F8C, symSize: 0x48 }
  - { offsetInCU: 0x4DAC7, offset: 0x4DAC7, size: 0x8, addend: 0x0, symName: __ZNKSt3__16__treeINS_12__value_typeINS_4pairIiiEEdEENS_19__map_value_compareIS3_S4_NS_4lessIS3_EELb1EEENS_9allocatorIS4_EEE10__end_nodeB8ue170006Ev, symObjAddr: 0x334C8, symBinAddr: 0x100036FD4, symSize: 0x2C }
  - { offsetInCU: 0x4DAED, offset: 0x4DAED, size: 0x8, addend: 0x0, symName: __ZNKSt3__117__compressed_pairINS_15__tree_end_nodeIPNS_16__tree_node_baseIPvEEEENS_9allocatorINS_11__tree_nodeINS_12__value_typeINS_4pairIiiEEdEES3_EEEEE5firstB8ue170006Ev, symObjAddr: 0x334F4, symBinAddr: 0x100037000, symSize: 0x24 }
  - { offsetInCU: 0x4DB13, offset: 0x4DB13, size: 0x8, addend: 0x0, symName: __ZNSt3__117__compressed_pairImNS_19__map_value_compareINS_4pairIiiEENS_12__value_typeIS3_dEENS_4lessIS3_EELb1EEEE6secondB8ue170006Ev, symObjAddr: 0x33518, symBinAddr: 0x100037024, symSize: 0x24 }
  - { offsetInCU: 0x4DB39, offset: 0x4DB39, size: 0x8, addend: 0x0, symName: __ZNSt3__122__compressed_pair_elemINS_19__map_value_compareINS_4pairIiiEENS_12__value_typeIS3_dEENS_4lessIS3_EELb1EEELi1ELb1EE5__getB8ue170006Ev, symObjAddr: 0x3353C, symBinAddr: 0x100037048, symSize: 0x14 }
  - { offsetInCU: 0x4DB5F, offset: 0x4DB5F, size: 0x8, addend: 0x0, symName: __ZNKSt3__14lessINS_4pairIiiEEEclB8ue170006ERKS2_S5_, symObjAddr: 0x33550, symBinAddr: 0x10003705C, symSize: 0x34 }
  - { offsetInCU: 0x4DBA3, offset: 0x4DBA3, size: 0x8, addend: 0x0, symName: __ZNKSt3__112__value_typeINS_4pairIiiEEdE11__get_valueB8ue170006Ev, symObjAddr: 0x33584, symBinAddr: 0x100037090, symSize: 0x14 }
  - { offsetInCU: 0x4DBC9, offset: 0x4DBC9, size: 0x8, addend: 0x0, symName: __ZNSt3__16__treeINS_12__value_typeINS_4pairIiiEEdEENS_19__map_value_compareIS3_S4_NS_4lessIS3_EELb1EEENS_9allocatorIS4_EEE12__node_allocB8ue170006Ev, symObjAddr: 0x33630, symBinAddr: 0x10003713C, symSize: 0x28 }
  - { offsetInCU: 0x4DBEF, offset: 0x4DBEF, size: 0x8, addend: 0x0, symName: __ZNSt3__116allocator_traitsINS_9allocatorINS_11__tree_nodeINS_12__value_typeINS_4pairIiiEEdEEPvEEEEE8allocateB8ue170006ERS9_m, symObjAddr: 0x33658, symBinAddr: 0x100037164, symSize: 0x2C }
  - { offsetInCU: 0x4DC22, offset: 0x4DC22, size: 0x8, addend: 0x0, symName: __ZNSt3__121__map_node_destructorINS_9allocatorINS_11__tree_nodeINS_12__value_typeINS_4pairIiiEEdEEPvEEEEEC1B8ue170006ERS9_, symObjAddr: 0x33684, symBinAddr: 0x100037190, symSize: 0x34 }
  - { offsetInCU: 0x4DC61, offset: 0x4DC61, size: 0x8, addend: 0x0, symName: __ZNSt3__110unique_ptrINS_11__tree_nodeINS_12__value_typeINS_4pairIiiEEdEEPvEENS_21__map_node_destructorINS_9allocatorIS7_EEEEEC1B8ue170006ILb1EvEEPS7_NS_16__dependent_typeINS_27__unique_ptr_deleter_sfinaeISB_EEXT_EE20__good_rval_ref_typeE, symObjAddr: 0x336B8, symBinAddr: 0x1000371C4, symSize: 0x3C }
  - { offsetInCU: 0x4DCB7, offset: 0x4DCB7, size: 0x8, addend: 0x0, symName: __ZNSt3__116allocator_traitsINS_9allocatorINS_11__tree_nodeINS_12__value_typeINS_4pairIiiEEdEEPvEEEEE9constructB8ue170006IKS5_JRSC_EvEEvRS9_PT_DpOT0_, symObjAddr: 0x336F4, symBinAddr: 0x100037200, symSize: 0x34 }
  - { offsetInCU: 0x4DD0E, offset: 0x4DD0E, size: 0x8, addend: 0x0, symName: __ZNKSt3__110unique_ptrINS_11__tree_nodeINS_12__value_typeINS_4pairIiiEEdEEPvEENS_21__map_node_destructorINS_9allocatorIS7_EEEEEptB8ue170006Ev, symObjAddr: 0x33728, symBinAddr: 0x100037234, symSize: 0x28 }
  - { offsetInCU: 0x4DD34, offset: 0x4DD34, size: 0x8, addend: 0x0, symName: __ZNSt3__110unique_ptrINS_11__tree_nodeINS_12__value_typeINS_4pairIiiEEdEEPvEENS_21__map_node_destructorINS_9allocatorIS7_EEEEE11get_deleterB8ue170006Ev, symObjAddr: 0x33750, symBinAddr: 0x10003725C, symSize: 0x24 }
  - { offsetInCU: 0x4DD5A, offset: 0x4DD5A, size: 0x8, addend: 0x0, symName: __ZNSt3__116allocator_traitsINS_9allocatorINS_11__tree_nodeINS_12__value_typeINS_4pairIiiEEdEEPvEEEEE9constructB8ue170006IdJEvEEvRS9_PT_DpOT0_, symObjAddr: 0x33774, symBinAddr: 0x100037280, symSize: 0x2C }
  - { offsetInCU: 0x4DD9C, offset: 0x4DD9C, size: 0x8, addend: 0x0, symName: __ZNSt3__117__compressed_pairINS_15__tree_end_nodeIPNS_16__tree_node_baseIPvEEEENS_9allocatorINS_11__tree_nodeINS_12__value_typeINS_4pairIiiEEdEES3_EEEEE6secondB8ue170006Ev, symObjAddr: 0x337A0, symBinAddr: 0x1000372AC, symSize: 0x24 }
  - { offsetInCU: 0x4DDC2, offset: 0x4DDC2, size: 0x8, addend: 0x0, symName: __ZNSt3__122__compressed_pair_elemINS_9allocatorINS_11__tree_nodeINS_12__value_typeINS_4pairIiiEEdEEPvEEEELi1ELb1EE5__getB8ue170006Ev, symObjAddr: 0x337C4, symBinAddr: 0x1000372D0, symSize: 0x14 }
  - { offsetInCU: 0x4DDE8, offset: 0x4DDE8, size: 0x8, addend: 0x0, symName: __ZNSt3__19allocatorINS_11__tree_nodeINS_12__value_typeINS_4pairIiiEEdEEPvEEE8allocateB8ue170006Em, symObjAddr: 0x337D8, symBinAddr: 0x1000372E4, symSize: 0x8C }
  - { offsetInCU: 0x4DE27, offset: 0x4DE27, size: 0x8, addend: 0x0, symName: __ZNSt3__116allocator_traitsINS_9allocatorINS_11__tree_nodeINS_12__value_typeINS_4pairIiiEEdEEPvEEEEE8max_sizeB8ue170006IS9_vEEmRKS9_, symObjAddr: 0x33864, symBinAddr: 0x100037370, symSize: 0x24 }
  - { offsetInCU: 0x4DE55, offset: 0x4DE55, size: 0x8, addend: 0x0, symName: __ZNKSt3__19allocatorINS_11__tree_nodeINS_12__value_typeINS_4pairIiiEEdEEPvEEE8max_sizeB8ue170006Ev, symObjAddr: 0x33888, symBinAddr: 0x100037394, symSize: 0x18 }
  - { offsetInCU: 0x4DE7B, offset: 0x4DE7B, size: 0x8, addend: 0x0, symName: __ZNSt3__121__map_node_destructorINS_9allocatorINS_11__tree_nodeINS_12__value_typeINS_4pairIiiEEdEEPvEEEEEC2B8ue170006ERS9_, symObjAddr: 0x338A0, symBinAddr: 0x1000373AC, symSize: 0x28 }
  - { offsetInCU: 0x4DEB4, offset: 0x4DEB4, size: 0x8, addend: 0x0, symName: __ZNSt3__110unique_ptrINS_11__tree_nodeINS_12__value_typeINS_4pairIiiEEdEEPvEENS_21__map_node_destructorINS_9allocatorIS7_EEEEEC2B8ue170006ILb1EvEEPS7_NS_16__dependent_typeINS_27__unique_ptr_deleter_sfinaeISB_EEXT_EE20__good_rval_ref_typeE, symObjAddr: 0x338C8, symBinAddr: 0x1000373D4, symSize: 0x5C }
  - { offsetInCU: 0x4DF05, offset: 0x4DF05, size: 0x8, addend: 0x0, symName: __ZNSt3__117__compressed_pairIPNS_11__tree_nodeINS_12__value_typeINS_4pairIiiEEdEEPvEENS_21__map_node_destructorINS_9allocatorIS7_EEEEEC1B8ue170006IRS8_SC_EEOT_OT0_, symObjAddr: 0x33924, symBinAddr: 0x100037430, symSize: 0x3C }
  - { offsetInCU: 0x4DF5D, offset: 0x4DF5D, size: 0x8, addend: 0x0, symName: __ZNSt3__117__compressed_pairIPNS_11__tree_nodeINS_12__value_typeINS_4pairIiiEEdEEPvEENS_21__map_node_destructorINS_9allocatorIS7_EEEEEC2B8ue170006IRS8_SC_EEOT_OT0_, symObjAddr: 0x33960, symBinAddr: 0x10003746C, symSize: 0x48 }
  - { offsetInCU: 0x4DFB5, offset: 0x4DFB5, size: 0x8, addend: 0x0, symName: __ZNSt3__122__compressed_pair_elemIPNS_11__tree_nodeINS_12__value_typeINS_4pairIiiEEdEEPvEELi0ELb0EEC2B8ue170006IRS8_vEEOT_, symObjAddr: 0x339A8, symBinAddr: 0x1000374B4, symSize: 0x24 }
  - { offsetInCU: 0x4DFF7, offset: 0x4DFF7, size: 0x8, addend: 0x0, symName: __ZNSt3__122__compressed_pair_elemINS_21__map_node_destructorINS_9allocatorINS_11__tree_nodeINS_12__value_typeINS_4pairIiiEEdEEPvEEEEEELi1ELb0EEC2B8ue170006ISB_vEEOT_, symObjAddr: 0x339CC, symBinAddr: 0x1000374D8, symSize: 0x24 }
  - { offsetInCU: 0x4E039, offset: 0x4E039, size: 0x8, addend: 0x0, symName: __ZNSt3__19allocatorINS_11__tree_nodeINS_12__value_typeINS_4pairIiiEEdEEPvEEE9constructB8ue170006IKS4_JRSA_EEEvPT_DpOT0_, symObjAddr: 0x339F0, symBinAddr: 0x1000374FC, symSize: 0x28 }
  - { offsetInCU: 0x4E08F, offset: 0x4E08F, size: 0x8, addend: 0x0, symName: __ZNKSt3__117__compressed_pairIPNS_11__tree_nodeINS_12__value_typeINS_4pairIiiEEdEEPvEENS_21__map_node_destructorINS_9allocatorIS7_EEEEE5firstB8ue170006Ev, symObjAddr: 0x33A18, symBinAddr: 0x100037524, symSize: 0x24 }
  - { offsetInCU: 0x4E0B5, offset: 0x4E0B5, size: 0x8, addend: 0x0, symName: __ZNKSt3__122__compressed_pair_elemIPNS_11__tree_nodeINS_12__value_typeINS_4pairIiiEEdEEPvEELi0ELb0EE5__getB8ue170006Ev, symObjAddr: 0x33A3C, symBinAddr: 0x100037548, symSize: 0x14 }
  - { offsetInCU: 0x4E0DB, offset: 0x4E0DB, size: 0x8, addend: 0x0, symName: __ZNSt3__117__compressed_pairIPNS_11__tree_nodeINS_12__value_typeINS_4pairIiiEEdEEPvEENS_21__map_node_destructorINS_9allocatorIS7_EEEEE6secondB8ue170006Ev, symObjAddr: 0x33A50, symBinAddr: 0x10003755C, symSize: 0x28 }
  - { offsetInCU: 0x4E101, offset: 0x4E101, size: 0x8, addend: 0x0, symName: __ZNSt3__122__compressed_pair_elemINS_21__map_node_destructorINS_9allocatorINS_11__tree_nodeINS_12__value_typeINS_4pairIiiEEdEEPvEEEEEELi1ELb0EE5__getB8ue170006Ev, symObjAddr: 0x33A78, symBinAddr: 0x100037584, symSize: 0x14 }
  - { offsetInCU: 0x4E127, offset: 0x4E127, size: 0x8, addend: 0x0, symName: __ZNSt3__19allocatorINS_11__tree_nodeINS_12__value_typeINS_4pairIiiEEdEEPvEEE9constructB8ue170006IdJEEEvPT_DpOT0_, symObjAddr: 0x33A8C, symBinAddr: 0x100037598, symSize: 0x20 }
  - { offsetInCU: 0x4E169, offset: 0x4E169, size: 0x8, addend: 0x0, symName: __ZNSt3__16__treeINS_12__value_typeINS_4pairIiiEEdEENS_19__map_value_compareIS3_S4_NS_4lessIS3_EELb1EEENS_9allocatorIS4_EEE4sizeB8ue170006Ev, symObjAddr: 0x33AAC, symBinAddr: 0x1000375B8, symSize: 0x28 }
  - { offsetInCU: 0x4E18F, offset: 0x4E18F, size: 0x8, addend: 0x0, symName: __ZNSt3__117__compressed_pairImNS_19__map_value_compareINS_4pairIiiEENS_12__value_typeIS3_dEENS_4lessIS3_EELb1EEEE5firstB8ue170006Ev, symObjAddr: 0x33AD4, symBinAddr: 0x1000375E0, symSize: 0x24 }
  - { offsetInCU: 0x4E1B5, offset: 0x4E1B5, size: 0x8, addend: 0x0, symName: __ZNSt3__117__compressed_pairIPNS_11__tree_nodeINS_12__value_typeINS_4pairIiiEEdEEPvEENS_21__map_node_destructorINS_9allocatorIS7_EEEEE5firstB8ue170006Ev, symObjAddr: 0x33AF8, symBinAddr: 0x100037604, symSize: 0x24 }
  - { offsetInCU: 0x4E1DB, offset: 0x4E1DB, size: 0x8, addend: 0x0, symName: __ZNSt3__122__compressed_pair_elemIPNS_11__tree_nodeINS_12__value_typeINS_4pairIiiEEdEEPvEELi0ELb0EE5__getB8ue170006Ev, symObjAddr: 0x33B1C, symBinAddr: 0x100037628, symSize: 0x14 }
  - { offsetInCU: 0x4E201, offset: 0x4E201, size: 0x8, addend: 0x0, symName: __ZNSt3__110unique_ptrINS_11__tree_nodeINS_12__value_typeINS_4pairIiiEEdEEPvEENS_21__map_node_destructorINS_9allocatorIS7_EEEEED2B8ue170006Ev, symObjAddr: 0x33B30, symBinAddr: 0x10003763C, symSize: 0x30 }
  - { offsetInCU: 0x4E22B, offset: 0x4E22B, size: 0x8, addend: 0x0, symName: __ZNSt3__110unique_ptrINS_11__tree_nodeINS_12__value_typeINS_4pairIiiEEdEEPvEENS_21__map_node_destructorINS_9allocatorIS7_EEEEE5resetB8ue170006EPS7_, symObjAddr: 0x33B60, symBinAddr: 0x10003766C, symSize: 0x78 }
  - { offsetInCU: 0x4E26F, offset: 0x4E26F, size: 0x8, addend: 0x0, symName: __ZNSt3__121__map_node_destructorINS_9allocatorINS_11__tree_nodeINS_12__value_typeINS_4pairIiiEEdEEPvEEEEEclB8ue170006EPS8_, symObjAddr: 0x33BD8, symBinAddr: 0x1000376E4, symSize: 0xF4 }
  - { offsetInCU: 0x4E2A4, offset: 0x4E2A4, size: 0x8, addend: 0x0, symName: __ZNSt3__116allocator_traitsINS_9allocatorINS_11__tree_nodeINS_12__value_typeINS_4pairIiiEEdEEPvEEEEE7destroyB8ue170006IdvvEEvRS9_PT_, symObjAddr: 0x33CCC, symBinAddr: 0x1000377D8, symSize: 0x14 }
  - { offsetInCU: 0x4E2DE, offset: 0x4E2DE, size: 0x8, addend: 0x0, symName: __ZNSt3__116allocator_traitsINS_9allocatorINS_11__tree_nodeINS_12__value_typeINS_4pairIiiEEdEEPvEEEEE7destroyB8ue170006IKS5_vvEEvRS9_PT_, symObjAddr: 0x33CE0, symBinAddr: 0x1000377EC, symSize: 0x14 }
  - { offsetInCU: 0x4E318, offset: 0x4E318, size: 0x8, addend: 0x0, symName: __ZNSt3__116allocator_traitsINS_9allocatorINS_11__tree_nodeINS_12__value_typeINS_4pairIiiEEdEEPvEEEEE10deallocateB8ue170006ERS9_PS8_m, symObjAddr: 0x33CF4, symBinAddr: 0x100037800, symSize: 0x34 }
  - { offsetInCU: 0x4E35A, offset: 0x4E35A, size: 0x8, addend: 0x0, symName: __ZNSt3__19allocatorINS_11__tree_nodeINS_12__value_typeINS_4pairIiiEEdEEPvEEE10deallocateB8ue170006EPS7_m, symObjAddr: 0x33D28, symBinAddr: 0x100037834, symSize: 0x74 }
  - { offsetInCU: 0x4E39C, offset: 0x4E39C, size: 0x8, addend: 0x0, symName: __ZNSt3__14pairIiiEC1B8ue170006ERKiS3_, symObjAddr: 0x33D9C, symBinAddr: 0x1000378A8, symSize: 0x3C }
  - { offsetInCU: 0x4E3E2, offset: 0x4E3E2, size: 0x8, addend: 0x0, symName: __ZNSt3__14pairIiiEC2B8ue170006ERKiS3_, symObjAddr: 0x33DD8, symBinAddr: 0x1000378E4, symSize: 0x34 }
  - { offsetInCU: 0x4E428, offset: 0x4E428, size: 0x8, addend: 0x0, symName: __ZNSt3__16__treeINS_12__value_typeIidEENS_19__map_value_compareIiS2_NS_4lessIiEELb1EEENS_9allocatorIS2_EEE12__find_equalIiEERPNS_16__tree_node_baseIPvEERPNS_15__tree_end_nodeISE_EERKT_, symObjAddr: 0x33E0C, symBinAddr: 0x100037918, symSize: 0x184 }
  - { offsetInCU: 0x4E495, offset: 0x4E495, size: 0x8, addend: 0x0, symName: __ZNSt3__13mapIidNS_4lessIiEENS_9allocatorINS_4pairIKidEEEEE25__construct_node_with_keyERS5_, symObjAddr: 0x33F90, symBinAddr: 0x100037A9C, symSize: 0x154 }
  - { offsetInCU: 0x4E4EB, offset: 0x4E4EB, size: 0x8, addend: 0x0, symName: __ZNSt3__16__treeINS_12__value_typeIidEENS_19__map_value_compareIiS2_NS_4lessIiEELb1EEENS_9allocatorIS2_EEE16__insert_node_atEPNS_15__tree_end_nodeIPNS_16__tree_node_baseIPvEEEERSE_SE_, symObjAddr: 0x340E4, symBinAddr: 0x100037BF0, symSize: 0xCC }
  - { offsetInCU: 0x4E540, offset: 0x4E540, size: 0x8, addend: 0x0, symName: __ZNKSt3__110unique_ptrINS_11__tree_nodeINS_12__value_typeIidEEPvEENS_21__map_node_destructorINS_9allocatorIS5_EEEEE3getB8ue170006Ev, symObjAddr: 0x341B0, symBinAddr: 0x100037CBC, symSize: 0x28 }
  - { offsetInCU: 0x4E566, offset: 0x4E566, size: 0x8, addend: 0x0, symName: __ZNSt3__110unique_ptrINS_11__tree_nodeINS_12__value_typeIidEEPvEENS_21__map_node_destructorINS_9allocatorIS5_EEEEE7releaseB8ue170006Ev, symObjAddr: 0x341D8, symBinAddr: 0x100037CE4, symSize: 0x44 }
  - { offsetInCU: 0x4E59B, offset: 0x4E59B, size: 0x8, addend: 0x0, symName: __ZNSt3__110unique_ptrINS_11__tree_nodeINS_12__value_typeIidEEPvEENS_21__map_node_destructorINS_9allocatorIS5_EEEEED1B8ue170006Ev, symObjAddr: 0x3421C, symBinAddr: 0x100037D28, symSize: 0x2C }
  - { offsetInCU: 0x4E5C5, offset: 0x4E5C5, size: 0x8, addend: 0x0, symName: __ZNSt3__112__value_typeIidE11__get_valueB8ue170006Ev, symObjAddr: 0x34248, symBinAddr: 0x100037D54, symSize: 0x14 }
  - { offsetInCU: 0x4E5EB, offset: 0x4E5EB, size: 0x8, addend: 0x0, symName: __ZNKSt3__16__treeINS_12__value_typeIidEENS_19__map_value_compareIiS2_NS_4lessIiEELb1EEENS_9allocatorIS2_EEE6__rootB8ue170006Ev, symObjAddr: 0x3425C, symBinAddr: 0x100037D68, symSize: 0x28 }
  - { offsetInCU: 0x4E611, offset: 0x4E611, size: 0x8, addend: 0x0, symName: __ZNKSt3__16__treeINS_12__value_typeIidEENS_19__map_value_compareIiS2_NS_4lessIiEELb1EEENS_9allocatorIS2_EEE10__root_ptrB8ue170006Ev, symObjAddr: 0x34284, symBinAddr: 0x100037D90, symSize: 0x24 }
  - { offsetInCU: 0x4E637, offset: 0x4E637, size: 0x8, addend: 0x0, symName: __ZNSt3__16__treeINS_12__value_typeIidEENS_19__map_value_compareIiS2_NS_4lessIiEELb1EEENS_9allocatorIS2_EEE10value_compB8ue170006Ev, symObjAddr: 0x342A8, symBinAddr: 0x100037DB4, symSize: 0x28 }
  - { offsetInCU: 0x4E65D, offset: 0x4E65D, size: 0x8, addend: 0x0, symName: __ZNKSt3__119__map_value_compareIiNS_12__value_typeIidEENS_4lessIiEELb1EEclB8ue170006ERKiRKS2_, symObjAddr: 0x342D0, symBinAddr: 0x100037DDC, symSize: 0x50 }
  - { offsetInCU: 0x4E6A1, offset: 0x4E6A1, size: 0x8, addend: 0x0, symName: __ZNKSt3__119__map_value_compareIiNS_12__value_typeIidEENS_4lessIiEELb1EEclB8ue170006ERKS2_RKi, symObjAddr: 0x34320, symBinAddr: 0x100037E2C, symSize: 0x48 }
  - { offsetInCU: 0x4E6E5, offset: 0x4E6E5, size: 0x8, addend: 0x0, symName: __ZNKSt3__16__treeINS_12__value_typeIidEENS_19__map_value_compareIiS2_NS_4lessIiEELb1EEENS_9allocatorIS2_EEE10__end_nodeB8ue170006Ev, symObjAddr: 0x34368, symBinAddr: 0x100037E74, symSize: 0x2C }
  - { offsetInCU: 0x4E70B, offset: 0x4E70B, size: 0x8, addend: 0x0, symName: __ZNKSt3__117__compressed_pairINS_15__tree_end_nodeIPNS_16__tree_node_baseIPvEEEENS_9allocatorINS_11__tree_nodeINS_12__value_typeIidEES3_EEEEE5firstB8ue170006Ev, symObjAddr: 0x34394, symBinAddr: 0x100037EA0, symSize: 0x24 }
  - { offsetInCU: 0x4E731, offset: 0x4E731, size: 0x8, addend: 0x0, symName: __ZNSt3__117__compressed_pairImNS_19__map_value_compareIiNS_12__value_typeIidEENS_4lessIiEELb1EEEE6secondB8ue170006Ev, symObjAddr: 0x343B8, symBinAddr: 0x100037EC4, symSize: 0x24 }
  - { offsetInCU: 0x4E757, offset: 0x4E757, size: 0x8, addend: 0x0, symName: __ZNSt3__122__compressed_pair_elemINS_19__map_value_compareIiNS_12__value_typeIidEENS_4lessIiEELb1EEELi1ELb1EE5__getB8ue170006Ev, symObjAddr: 0x343DC, symBinAddr: 0x100037EE8, symSize: 0x14 }
  - { offsetInCU: 0x4E77D, offset: 0x4E77D, size: 0x8, addend: 0x0, symName: __ZNKSt3__14lessIiEclB8ue170006ERKiS3_, symObjAddr: 0x343F0, symBinAddr: 0x100037EFC, symSize: 0x34 }
  - { offsetInCU: 0x4E7C1, offset: 0x4E7C1, size: 0x8, addend: 0x0, symName: __ZNKSt3__112__value_typeIidE11__get_valueB8ue170006Ev, symObjAddr: 0x34424, symBinAddr: 0x100037F30, symSize: 0x14 }
  - { offsetInCU: 0x4E7E7, offset: 0x4E7E7, size: 0x8, addend: 0x0, symName: __ZNSt3__16__treeINS_12__value_typeIidEENS_19__map_value_compareIiS2_NS_4lessIiEELb1EEENS_9allocatorIS2_EEE12__node_allocB8ue170006Ev, symObjAddr: 0x34438, symBinAddr: 0x100037F44, symSize: 0x28 }
  - { offsetInCU: 0x4E80D, offset: 0x4E80D, size: 0x8, addend: 0x0, symName: __ZNSt3__116allocator_traitsINS_9allocatorINS_11__tree_nodeINS_12__value_typeIidEEPvEEEEE8allocateB8ue170006ERS7_m, symObjAddr: 0x34460, symBinAddr: 0x100037F6C, symSize: 0x2C }
  - { offsetInCU: 0x4E840, offset: 0x4E840, size: 0x8, addend: 0x0, symName: __ZNSt3__121__map_node_destructorINS_9allocatorINS_11__tree_nodeINS_12__value_typeIidEEPvEEEEEC1B8ue170006ERS7_, symObjAddr: 0x3448C, symBinAddr: 0x100037F98, symSize: 0x34 }
  - { offsetInCU: 0x4E87F, offset: 0x4E87F, size: 0x8, addend: 0x0, symName: __ZNSt3__110unique_ptrINS_11__tree_nodeINS_12__value_typeIidEEPvEENS_21__map_node_destructorINS_9allocatorIS5_EEEEEC1B8ue170006ILb1EvEEPS5_NS_16__dependent_typeINS_27__unique_ptr_deleter_sfinaeIS9_EEXT_EE20__good_rval_ref_typeE, symObjAddr: 0x344C0, symBinAddr: 0x100037FCC, symSize: 0x3C }
  - { offsetInCU: 0x4E8D0, offset: 0x4E8D0, size: 0x8, addend: 0x0, symName: __ZNSt3__116allocator_traitsINS_9allocatorINS_11__tree_nodeINS_12__value_typeIidEEPvEEEEE9constructB8ue170006IKiJRSA_EvEEvRS7_PT_DpOT0_, symObjAddr: 0x344FC, symBinAddr: 0x100038008, symSize: 0x34 }
  - { offsetInCU: 0x4E927, offset: 0x4E927, size: 0x8, addend: 0x0, symName: __ZNKSt3__110unique_ptrINS_11__tree_nodeINS_12__value_typeIidEEPvEENS_21__map_node_destructorINS_9allocatorIS5_EEEEEptB8ue170006Ev, symObjAddr: 0x34530, symBinAddr: 0x10003803C, symSize: 0x28 }
  - { offsetInCU: 0x4E94D, offset: 0x4E94D, size: 0x8, addend: 0x0, symName: __ZNSt3__110unique_ptrINS_11__tree_nodeINS_12__value_typeIidEEPvEENS_21__map_node_destructorINS_9allocatorIS5_EEEEE11get_deleterB8ue170006Ev, symObjAddr: 0x34558, symBinAddr: 0x100038064, symSize: 0x24 }
  - { offsetInCU: 0x4E973, offset: 0x4E973, size: 0x8, addend: 0x0, symName: __ZNSt3__116allocator_traitsINS_9allocatorINS_11__tree_nodeINS_12__value_typeIidEEPvEEEEE9constructB8ue170006IdJEvEEvRS7_PT_DpOT0_, symObjAddr: 0x3457C, symBinAddr: 0x100038088, symSize: 0x2C }
  - { offsetInCU: 0x4E9B5, offset: 0x4E9B5, size: 0x8, addend: 0x0, symName: __ZNSt3__117__compressed_pairINS_15__tree_end_nodeIPNS_16__tree_node_baseIPvEEEENS_9allocatorINS_11__tree_nodeINS_12__value_typeIidEES3_EEEEE6secondB8ue170006Ev, symObjAddr: 0x345A8, symBinAddr: 0x1000380B4, symSize: 0x24 }
  - { offsetInCU: 0x4E9DB, offset: 0x4E9DB, size: 0x8, addend: 0x0, symName: __ZNSt3__122__compressed_pair_elemINS_9allocatorINS_11__tree_nodeINS_12__value_typeIidEEPvEEEELi1ELb1EE5__getB8ue170006Ev, symObjAddr: 0x345CC, symBinAddr: 0x1000380D8, symSize: 0x14 }
  - { offsetInCU: 0x4EA01, offset: 0x4EA01, size: 0x8, addend: 0x0, symName: __ZNSt3__19allocatorINS_11__tree_nodeINS_12__value_typeIidEEPvEEE8allocateB8ue170006Em, symObjAddr: 0x345E0, symBinAddr: 0x1000380EC, symSize: 0x8C }
  - { offsetInCU: 0x4EA40, offset: 0x4EA40, size: 0x8, addend: 0x0, symName: __ZNSt3__116allocator_traitsINS_9allocatorINS_11__tree_nodeINS_12__value_typeIidEEPvEEEEE8max_sizeB8ue170006IS7_vEEmRKS7_, symObjAddr: 0x3466C, symBinAddr: 0x100038178, symSize: 0x24 }
  - { offsetInCU: 0x4EA6E, offset: 0x4EA6E, size: 0x8, addend: 0x0, symName: __ZNKSt3__19allocatorINS_11__tree_nodeINS_12__value_typeIidEEPvEEE8max_sizeB8ue170006Ev, symObjAddr: 0x34690, symBinAddr: 0x10003819C, symSize: 0x18 }
  - { offsetInCU: 0x4EA94, offset: 0x4EA94, size: 0x8, addend: 0x0, symName: __ZNSt3__121__map_node_destructorINS_9allocatorINS_11__tree_nodeINS_12__value_typeIidEEPvEEEEEC2B8ue170006ERS7_, symObjAddr: 0x346A8, symBinAddr: 0x1000381B4, symSize: 0x28 }
  - { offsetInCU: 0x4EACD, offset: 0x4EACD, size: 0x8, addend: 0x0, symName: __ZNSt3__110unique_ptrINS_11__tree_nodeINS_12__value_typeIidEEPvEENS_21__map_node_destructorINS_9allocatorIS5_EEEEEC2B8ue170006ILb1EvEEPS5_NS_16__dependent_typeINS_27__unique_ptr_deleter_sfinaeIS9_EEXT_EE20__good_rval_ref_typeE, symObjAddr: 0x346D0, symBinAddr: 0x1000381DC, symSize: 0x5C }
  - { offsetInCU: 0x4EB1E, offset: 0x4EB1E, size: 0x8, addend: 0x0, symName: __ZNSt3__117__compressed_pairIPNS_11__tree_nodeINS_12__value_typeIidEEPvEENS_21__map_node_destructorINS_9allocatorIS5_EEEEEC1B8ue170006IRS6_SA_EEOT_OT0_, symObjAddr: 0x3472C, symBinAddr: 0x100038238, symSize: 0x3C }
  - { offsetInCU: 0x4EB76, offset: 0x4EB76, size: 0x8, addend: 0x0, symName: __ZNSt3__117__compressed_pairIPNS_11__tree_nodeINS_12__value_typeIidEEPvEENS_21__map_node_destructorINS_9allocatorIS5_EEEEEC2B8ue170006IRS6_SA_EEOT_OT0_, symObjAddr: 0x34768, symBinAddr: 0x100038274, symSize: 0x48 }
  - { offsetInCU: 0x4EBCE, offset: 0x4EBCE, size: 0x8, addend: 0x0, symName: __ZNSt3__122__compressed_pair_elemIPNS_11__tree_nodeINS_12__value_typeIidEEPvEELi0ELb0EEC2B8ue170006IRS6_vEEOT_, symObjAddr: 0x347B0, symBinAddr: 0x1000382BC, symSize: 0x24 }
  - { offsetInCU: 0x4EC10, offset: 0x4EC10, size: 0x8, addend: 0x0, symName: __ZNSt3__122__compressed_pair_elemINS_21__map_node_destructorINS_9allocatorINS_11__tree_nodeINS_12__value_typeIidEEPvEEEEEELi1ELb0EEC2B8ue170006IS9_vEEOT_, symObjAddr: 0x347D4, symBinAddr: 0x1000382E0, symSize: 0x24 }
  - { offsetInCU: 0x4EC52, offset: 0x4EC52, size: 0x8, addend: 0x0, symName: __ZNSt3__19allocatorINS_11__tree_nodeINS_12__value_typeIidEEPvEEE9constructB8ue170006IKiJRS8_EEEvPT_DpOT0_, symObjAddr: 0x347F8, symBinAddr: 0x100038304, symSize: 0x28 }
  - { offsetInCU: 0x4ECA8, offset: 0x4ECA8, size: 0x8, addend: 0x0, symName: __ZNKSt3__117__compressed_pairIPNS_11__tree_nodeINS_12__value_typeIidEEPvEENS_21__map_node_destructorINS_9allocatorIS5_EEEEE5firstB8ue170006Ev, symObjAddr: 0x34820, symBinAddr: 0x10003832C, symSize: 0x24 }
  - { offsetInCU: 0x4ECCE, offset: 0x4ECCE, size: 0x8, addend: 0x0, symName: __ZNKSt3__122__compressed_pair_elemIPNS_11__tree_nodeINS_12__value_typeIidEEPvEELi0ELb0EE5__getB8ue170006Ev, symObjAddr: 0x34844, symBinAddr: 0x100038350, symSize: 0x14 }
  - { offsetInCU: 0x4ECF4, offset: 0x4ECF4, size: 0x8, addend: 0x0, symName: __ZNSt3__117__compressed_pairIPNS_11__tree_nodeINS_12__value_typeIidEEPvEENS_21__map_node_destructorINS_9allocatorIS5_EEEEE6secondB8ue170006Ev, symObjAddr: 0x34858, symBinAddr: 0x100038364, symSize: 0x28 }
  - { offsetInCU: 0x4ED1A, offset: 0x4ED1A, size: 0x8, addend: 0x0, symName: __ZNSt3__122__compressed_pair_elemINS_21__map_node_destructorINS_9allocatorINS_11__tree_nodeINS_12__value_typeIidEEPvEEEEEELi1ELb0EE5__getB8ue170006Ev, symObjAddr: 0x34880, symBinAddr: 0x10003838C, symSize: 0x14 }
  - { offsetInCU: 0x4ED40, offset: 0x4ED40, size: 0x8, addend: 0x0, symName: __ZNSt3__19allocatorINS_11__tree_nodeINS_12__value_typeIidEEPvEEE9constructB8ue170006IdJEEEvPT_DpOT0_, symObjAddr: 0x34894, symBinAddr: 0x1000383A0, symSize: 0x20 }
  - { offsetInCU: 0x4ED82, offset: 0x4ED82, size: 0x8, addend: 0x0, symName: __ZNSt3__16__treeINS_12__value_typeIidEENS_19__map_value_compareIiS2_NS_4lessIiEELb1EEENS_9allocatorIS2_EEE4sizeB8ue170006Ev, symObjAddr: 0x348B4, symBinAddr: 0x1000383C0, symSize: 0x28 }
  - { offsetInCU: 0x4EDA8, offset: 0x4EDA8, size: 0x8, addend: 0x0, symName: __ZNSt3__117__compressed_pairImNS_19__map_value_compareIiNS_12__value_typeIidEENS_4lessIiEELb1EEEE5firstB8ue170006Ev, symObjAddr: 0x348DC, symBinAddr: 0x1000383E8, symSize: 0x24 }
  - { offsetInCU: 0x4EDCE, offset: 0x4EDCE, size: 0x8, addend: 0x0, symName: __ZNSt3__117__compressed_pairIPNS_11__tree_nodeINS_12__value_typeIidEEPvEENS_21__map_node_destructorINS_9allocatorIS5_EEEEE5firstB8ue170006Ev, symObjAddr: 0x34900, symBinAddr: 0x10003840C, symSize: 0x24 }
  - { offsetInCU: 0x4EDF4, offset: 0x4EDF4, size: 0x8, addend: 0x0, symName: __ZNSt3__122__compressed_pair_elemIPNS_11__tree_nodeINS_12__value_typeIidEEPvEELi0ELb0EE5__getB8ue170006Ev, symObjAddr: 0x34924, symBinAddr: 0x100038430, symSize: 0x14 }
  - { offsetInCU: 0x4EE1A, offset: 0x4EE1A, size: 0x8, addend: 0x0, symName: __ZNSt3__110unique_ptrINS_11__tree_nodeINS_12__value_typeIidEEPvEENS_21__map_node_destructorINS_9allocatorIS5_EEEEED2B8ue170006Ev, symObjAddr: 0x34938, symBinAddr: 0x100038444, symSize: 0x30 }
  - { offsetInCU: 0x4EE44, offset: 0x4EE44, size: 0x8, addend: 0x0, symName: __ZNSt3__110unique_ptrINS_11__tree_nodeINS_12__value_typeIidEEPvEENS_21__map_node_destructorINS_9allocatorIS5_EEEEE5resetB8ue170006EPS5_, symObjAddr: 0x34968, symBinAddr: 0x100038474, symSize: 0x78 }
  - { offsetInCU: 0x4EE88, offset: 0x4EE88, size: 0x8, addend: 0x0, symName: __ZNSt3__121__map_node_destructorINS_9allocatorINS_11__tree_nodeINS_12__value_typeIidEEPvEEEEEclB8ue170006EPS6_, symObjAddr: 0x349E0, symBinAddr: 0x1000384EC, symSize: 0xF4 }
  - { offsetInCU: 0x4EEBD, offset: 0x4EEBD, size: 0x8, addend: 0x0, symName: __ZNSt3__116allocator_traitsINS_9allocatorINS_11__tree_nodeINS_12__value_typeIidEEPvEEEEE7destroyB8ue170006IdvvEEvRS7_PT_, symObjAddr: 0x34AD4, symBinAddr: 0x1000385E0, symSize: 0x14 }
  - { offsetInCU: 0x4EEF7, offset: 0x4EEF7, size: 0x8, addend: 0x0, symName: __ZNSt3__116allocator_traitsINS_9allocatorINS_11__tree_nodeINS_12__value_typeIidEEPvEEEEE7destroyB8ue170006IKivvEEvRS7_PT_, symObjAddr: 0x34AE8, symBinAddr: 0x1000385F4, symSize: 0x14 }
  - { offsetInCU: 0x4EF31, offset: 0x4EF31, size: 0x8, addend: 0x0, symName: __ZNSt3__116allocator_traitsINS_9allocatorINS_11__tree_nodeINS_12__value_typeIidEEPvEEEEE10deallocateB8ue170006ERS7_PS6_m, symObjAddr: 0x34AFC, symBinAddr: 0x100038608, symSize: 0x34 }
  - { offsetInCU: 0x4EF73, offset: 0x4EF73, size: 0x8, addend: 0x0, symName: __ZNSt3__19allocatorINS_11__tree_nodeINS_12__value_typeIidEEPvEEE10deallocateB8ue170006EPS5_m, symObjAddr: 0x34B30, symBinAddr: 0x10003863C, symSize: 0x74 }
  - { offsetInCU: 0x4EFB5, offset: 0x4EFB5, size: 0x8, addend: 0x0, symName: __ZNSt3__16__treeINS_12__value_typeINS_4pairIiiEEdEENS_19__map_value_compareIS3_S4_NS_4lessIS3_EELb1EEENS_9allocatorIS4_EEE5beginB8ue170006Ev, symObjAddr: 0x34BA4, symBinAddr: 0x1000386B0, symSize: 0x34 }
  - { offsetInCU: 0x4EFDB, offset: 0x4EFDB, size: 0x8, addend: 0x0, symName: __ZNSt3__114__map_iteratorINS_15__tree_iteratorINS_12__value_typeINS_4pairIiiEEdEEPNS_11__tree_nodeIS5_PvEElEEEC1B8ue170006ESA_, symObjAddr: 0x34BD8, symBinAddr: 0x1000386E4, symSize: 0x34 }
  - { offsetInCU: 0x4F014, offset: 0x4F014, size: 0x8, addend: 0x0, symName: __ZNSt3__115__tree_iteratorINS_12__value_typeINS_4pairIiiEEdEEPNS_11__tree_nodeIS4_PvEElEC1B8ue170006EPNS_15__tree_end_nodeIPNS_16__tree_node_baseIS6_EEEE, symObjAddr: 0x34C0C, symBinAddr: 0x100038718, symSize: 0x34 }
  - { offsetInCU: 0x4F04D, offset: 0x4F04D, size: 0x8, addend: 0x0, symName: __ZNSt3__115__tree_iteratorINS_12__value_typeINS_4pairIiiEEdEEPNS_11__tree_nodeIS4_PvEElEC2B8ue170006EPNS_15__tree_end_nodeIPNS_16__tree_node_baseIS6_EEEE, symObjAddr: 0x34C40, symBinAddr: 0x10003874C, symSize: 0x20 }
  - { offsetInCU: 0x4F086, offset: 0x4F086, size: 0x8, addend: 0x0, symName: __ZNSt3__114__map_iteratorINS_15__tree_iteratorINS_12__value_typeINS_4pairIiiEEdEEPNS_11__tree_nodeIS5_PvEElEEEC2B8ue170006ESA_, symObjAddr: 0x34C60, symBinAddr: 0x10003876C, symSize: 0x20 }
  - { offsetInCU: 0x4F0BF, offset: 0x4F0BF, size: 0x8, addend: 0x0, symName: __ZNSt3__16__treeINS_12__value_typeINS_4pairIiiEEdEENS_19__map_value_compareIS3_S4_NS_4lessIS3_EELb1EEENS_9allocatorIS4_EEE3endB8ue170006Ev, symObjAddr: 0x34C80, symBinAddr: 0x10003878C, symSize: 0x34 }
  - { offsetInCU: 0x4F0E5, offset: 0x4F0E5, size: 0x8, addend: 0x0, symName: __ZNKSt3__115__tree_iteratorINS_12__value_typeINS_4pairIiiEEdEEPNS_11__tree_nodeIS4_PvEElEptB8ue170006Ev, symObjAddr: 0x34D18, symBinAddr: 0x100038824, symSize: 0x2C }
  - { offsetInCU: 0x4F10B, offset: 0x4F10B, size: 0x8, addend: 0x0, symName: __ZNSt3__114pointer_traitsIPNS_12__value_typeINS_4pairIiiEEdEEE10pointer_toB8ue170006ERS4_, symObjAddr: 0x34D44, symBinAddr: 0x100038850, symSize: 0x14 }
  - { offsetInCU: 0x4F12E, offset: 0x4F12E, size: 0x8, addend: 0x0, symName: __ZNKSt3__115__tree_iteratorINS_12__value_typeINS_4pairIiiEEdEEPNS_11__tree_nodeIS4_PvEElE8__get_npB8ue170006Ev, symObjAddr: 0x34D58, symBinAddr: 0x100038864, symSize: 0x18 }
  - { offsetInCU: 0x4F154, offset: 0x4F154, size: 0x8, addend: 0x0, symName: __ZNSt3__115__tree_iteratorINS_12__value_typeINS_4pairIiiEEdEEPNS_11__tree_nodeIS4_PvEElEppB8ue170006Ev, symObjAddr: 0x34D70, symBinAddr: 0x10003887C, symSize: 0x38 }
  - { offsetInCU: 0x4F17A, offset: 0x4F17A, size: 0x8, addend: 0x0, symName: __ZNSt3__16__treeINS_12__value_typeIidEENS_19__map_value_compareIiS2_NS_4lessIiEELb1EEENS_9allocatorIS2_EEE5beginB8ue170006Ev, symObjAddr: 0x34DA8, symBinAddr: 0x1000388B4, symSize: 0x34 }
  - { offsetInCU: 0x4F1A0, offset: 0x4F1A0, size: 0x8, addend: 0x0, symName: __ZNSt3__114__map_iteratorINS_15__tree_iteratorINS_12__value_typeIidEEPNS_11__tree_nodeIS3_PvEElEEEC1B8ue170006ES8_, symObjAddr: 0x34DDC, symBinAddr: 0x1000388E8, symSize: 0x34 }
  - { offsetInCU: 0x4F1D9, offset: 0x4F1D9, size: 0x8, addend: 0x0, symName: __ZNSt3__115__tree_iteratorINS_12__value_typeIidEEPNS_11__tree_nodeIS2_PvEElEC1B8ue170006EPNS_15__tree_end_nodeIPNS_16__tree_node_baseIS4_EEEE, symObjAddr: 0x34E10, symBinAddr: 0x10003891C, symSize: 0x34 }
  - { offsetInCU: 0x4F212, offset: 0x4F212, size: 0x8, addend: 0x0, symName: __ZNSt3__115__tree_iteratorINS_12__value_typeIidEEPNS_11__tree_nodeIS2_PvEElEC2B8ue170006EPNS_15__tree_end_nodeIPNS_16__tree_node_baseIS4_EEEE, symObjAddr: 0x34E44, symBinAddr: 0x100038950, symSize: 0x20 }
  - { offsetInCU: 0x4F24B, offset: 0x4F24B, size: 0x8, addend: 0x0, symName: __ZNSt3__114__map_iteratorINS_15__tree_iteratorINS_12__value_typeIidEEPNS_11__tree_nodeIS3_PvEElEEEC2B8ue170006ES8_, symObjAddr: 0x34E64, symBinAddr: 0x100038970, symSize: 0x20 }
  - { offsetInCU: 0x4F284, offset: 0x4F284, size: 0x8, addend: 0x0, symName: __ZNSt3__16__treeINS_12__value_typeIidEENS_19__map_value_compareIiS2_NS_4lessIiEELb1EEENS_9allocatorIS2_EEE3endB8ue170006Ev, symObjAddr: 0x34E84, symBinAddr: 0x100038990, symSize: 0x34 }
  - { offsetInCU: 0x4F2AA, offset: 0x4F2AA, size: 0x8, addend: 0x0, symName: __ZNKSt3__115__tree_iteratorINS_12__value_typeIidEEPNS_11__tree_nodeIS2_PvEElEptB8ue170006Ev, symObjAddr: 0x34F1C, symBinAddr: 0x100038A28, symSize: 0x2C }
  - { offsetInCU: 0x4F2D0, offset: 0x4F2D0, size: 0x8, addend: 0x0, symName: __ZNSt3__114pointer_traitsIPNS_12__value_typeIidEEE10pointer_toB8ue170006ERS2_, symObjAddr: 0x34F48, symBinAddr: 0x100038A54, symSize: 0x14 }
  - { offsetInCU: 0x4F2F3, offset: 0x4F2F3, size: 0x8, addend: 0x0, symName: __ZNKSt3__115__tree_iteratorINS_12__value_typeIidEEPNS_11__tree_nodeIS2_PvEElE8__get_npB8ue170006Ev, symObjAddr: 0x34F5C, symBinAddr: 0x100038A68, symSize: 0x18 }
  - { offsetInCU: 0x4F319, offset: 0x4F319, size: 0x8, addend: 0x0, symName: __ZNSt3__115__tree_iteratorINS_12__value_typeIidEEPNS_11__tree_nodeIS2_PvEElEppB8ue170006Ev, symObjAddr: 0x34F74, symBinAddr: 0x100038A80, symSize: 0x38 }
  - { offsetInCU: 0x4F33F, offset: 0x4F33F, size: 0x8, addend: 0x0, symName: __ZNSt3__13mapIidNS_4lessIiEENS_9allocatorINS_4pairIKidEEEEED2B8ue170006Ev, symObjAddr: 0x34FAC, symBinAddr: 0x100038AB8, symSize: 0x2C }
  - { offsetInCU: 0x4F369, offset: 0x4F369, size: 0x8, addend: 0x0, symName: __ZNSt3__16__treeINS_12__value_typeIidEENS_19__map_value_compareIiS2_NS_4lessIiEELb1EEENS_9allocatorIS2_EEED1Ev, symObjAddr: 0x34FD8, symBinAddr: 0x100038AE4, symSize: 0x2C }
  - { offsetInCU: 0x4F395, offset: 0x4F395, size: 0x8, addend: 0x0, symName: __ZNSt3__16__treeINS_12__value_typeIidEENS_19__map_value_compareIiS2_NS_4lessIiEELb1EEENS_9allocatorIS2_EEED2Ev, symObjAddr: 0x35004, symBinAddr: 0x100038B10, symSize: 0x38 }
  - { offsetInCU: 0x4F3C1, offset: 0x4F3C1, size: 0x8, addend: 0x0, symName: __ZNSt3__16__treeINS_12__value_typeIidEENS_19__map_value_compareIiS2_NS_4lessIiEELb1EEENS_9allocatorIS2_EEE7destroyEPNS_11__tree_nodeIS2_PvEE, symObjAddr: 0x3503C, symBinAddr: 0x100038B48, symSize: 0xC0 }
  - { offsetInCU: 0x4F415, offset: 0x4F415, size: 0x8, addend: 0x0, symName: __ZNSt3__116allocator_traitsINS_9allocatorINS_11__tree_nodeINS_12__value_typeIidEEPvEEEEE7destroyB8ue170006INS_4pairIKidEEvvEEvRS7_PT_, symObjAddr: 0x350FC, symBinAddr: 0x100038C08, symSize: 0x14 }
  - { offsetInCU: 0x4F44F, offset: 0x4F44F, size: 0x8, addend: 0x0, symName: __ZNSt3__122__tree_key_value_typesINS_12__value_typeIidEEE9__get_ptrB8ue170006ERS2_, symObjAddr: 0x35110, symBinAddr: 0x100038C1C, symSize: 0x24 }
  - { offsetInCU: 0x4F473, offset: 0x4F473, size: 0x8, addend: 0x0, symName: __ZNSt3__13mapINS_4pairIiiEEdNS_4lessIS2_EENS_9allocatorINS1_IKS2_dEEEEED2B8ue170006Ev, symObjAddr: 0x35134, symBinAddr: 0x100038C40, symSize: 0x2C }
  - { offsetInCU: 0x4F49D, offset: 0x4F49D, size: 0x8, addend: 0x0, symName: __ZNSt3__16__treeINS_12__value_typeINS_4pairIiiEEdEENS_19__map_value_compareIS3_S4_NS_4lessIS3_EELb1EEENS_9allocatorIS4_EEED1Ev, symObjAddr: 0x35160, symBinAddr: 0x100038C6C, symSize: 0x2C }
  - { offsetInCU: 0x4F4C9, offset: 0x4F4C9, size: 0x8, addend: 0x0, symName: __ZNSt3__16__treeINS_12__value_typeINS_4pairIiiEEdEENS_19__map_value_compareIS3_S4_NS_4lessIS3_EELb1EEENS_9allocatorIS4_EEED2Ev, symObjAddr: 0x3518C, symBinAddr: 0x100038C98, symSize: 0x38 }
  - { offsetInCU: 0x4F4F5, offset: 0x4F4F5, size: 0x8, addend: 0x0, symName: __ZNSt3__16__treeINS_12__value_typeINS_4pairIiiEEdEENS_19__map_value_compareIS3_S4_NS_4lessIS3_EELb1EEENS_9allocatorIS4_EEE7destroyEPNS_11__tree_nodeIS4_PvEE, symObjAddr: 0x351C4, symBinAddr: 0x100038CD0, symSize: 0xC0 }
  - { offsetInCU: 0x4F549, offset: 0x4F549, size: 0x8, addend: 0x0, symName: __ZNSt3__116allocator_traitsINS_9allocatorINS_11__tree_nodeINS_12__value_typeINS_4pairIiiEEdEEPvEEEEE7destroyB8ue170006INS4_IKS5_dEEvvEEvRS9_PT_, symObjAddr: 0x35284, symBinAddr: 0x100038D90, symSize: 0x14 }
  - { offsetInCU: 0x4F583, offset: 0x4F583, size: 0x8, addend: 0x0, symName: __ZNSt3__122__tree_key_value_typesINS_12__value_typeINS_4pairIiiEEdEEE9__get_ptrB8ue170006ERS4_, symObjAddr: 0x35298, symBinAddr: 0x100038DA4, symSize: 0x24 }
  - { offsetInCU: 0x4F5A7, offset: 0x4F5A7, size: 0x8, addend: 0x0, symName: __ZN13HeuristicData10dotProductERKNSt3__16vectorIiNS0_9allocatorIiEEEES6_, symObjAddr: 0x352BC, symBinAddr: 0x100038DC8, symSize: 0xA8 }
  - { offsetInCU: 0x4F602, offset: 0x4F602, size: 0x8, addend: 0x0, symName: __ZN13HeuristicData9magnitudeERKNSt3__16vectorIiNS0_9allocatorIiEEEE, symObjAddr: 0x35364, symBinAddr: 0x100038E70, symSize: 0xA4 }
  - { offsetInCU: 0x4F683, offset: 0x4F683, size: 0x8, addend: 0x0, symName: __Z3absB8ue170006d, symObjAddr: 0x35408, symBinAddr: 0x100038F14, symSize: 0x18 }
  - { offsetInCU: 0x4F6B0, offset: 0x4F6B0, size: 0x8, addend: 0x0, symName: __ZNKSt3__16vectorIiNS_9allocatorIiEEE5beginB8ue170006Ev, symObjAddr: 0x35420, symBinAddr: 0x100038F2C, symSize: 0x30 }
  - { offsetInCU: 0x4F6D8, offset: 0x4F6D8, size: 0x8, addend: 0x0, symName: __ZNKSt3__16vectorIiNS_9allocatorIiEEE3endB8ue170006Ev, symObjAddr: 0x35450, symBinAddr: 0x100038F5C, symSize: 0x30 }
  - { offsetInCU: 0x4F700, offset: 0x4F700, size: 0x8, addend: 0x0, symName: __ZNKSt3__111__wrap_iterIPKiEdeB8ue170006Ev, symObjAddr: 0x354B4, symBinAddr: 0x100038FC0, symSize: 0x18 }
  - { offsetInCU: 0x4F726, offset: 0x4F726, size: 0x8, addend: 0x0, symName: __ZNSt3__111__wrap_iterIPKiEppB8ue170006Ev, symObjAddr: 0x354CC, symBinAddr: 0x100038FD8, symSize: 0x20 }
  - { offsetInCU: 0x4F74C, offset: 0x4F74C, size: 0x8, addend: 0x0, symName: __ZNKSt3__16vectorIiNS_9allocatorIiEEE11__make_iterB8ue170006EPKi, symObjAddr: 0x354EC, symBinAddr: 0x100038FF8, symSize: 0x30 }
  - { offsetInCU: 0x4F781, offset: 0x4F781, size: 0x8, addend: 0x0, symName: __ZNSt3__111__wrap_iterIPKiEC1B8ue170006ES2_, symObjAddr: 0x3551C, symBinAddr: 0x100039028, symSize: 0x34 }
  - { offsetInCU: 0x4F7B9, offset: 0x4F7B9, size: 0x8, addend: 0x0, symName: __ZNSt3__111__wrap_iterIPKiEC2B8ue170006ES2_, symObjAddr: 0x35550, symBinAddr: 0x10003905C, symSize: 0x20 }
  - { offsetInCU: 0x4F7F1, offset: 0x4F7F1, size: 0x8, addend: 0x0, symName: __ZNKSt3__111__wrap_iterIPKiE4baseB8ue170006Ev, symObjAddr: 0x355B8, symBinAddr: 0x1000390C4, symSize: 0x18 }
  - { offsetInCU: 0x4F817, offset: 0x4F817, size: 0x8, addend: 0x0, symName: __ZNSt3__16vectorINS0_IdNS_9allocatorIdEEEENS1_IS3_EEE9__end_capB8ue170006Ev, symObjAddr: 0x355D0, symBinAddr: 0x1000390DC, symSize: 0x28 }
  - { offsetInCU: 0x4F83D, offset: 0x4F83D, size: 0x8, addend: 0x0, symName: __ZNSt3__16vectorINS0_IdNS_9allocatorIdEEEENS1_IS3_EEE22__construct_one_at_endB8ue170006IJRKS3_EEEvDpOT_, symObjAddr: 0x355F8, symBinAddr: 0x100039104, symSize: 0x98 }
  - { offsetInCU: 0x4F88C, offset: 0x4F88C, size: 0x8, addend: 0x0, symName: __ZNSt3__16vectorINS0_IdNS_9allocatorIdEEEENS1_IS3_EEE21__push_back_slow_pathIRKS3_EEvOT_, symObjAddr: 0x35690, symBinAddr: 0x10003919C, symSize: 0xE0 }
  - { offsetInCU: 0x4F8EA, offset: 0x4F8EA, size: 0x8, addend: 0x0, symName: __ZNSt3__117__compressed_pairIPNS_6vectorIdNS_9allocatorIdEEEENS2_IS4_EEE5firstB8ue170006Ev, symObjAddr: 0x35770, symBinAddr: 0x10003927C, symSize: 0x24 }
  - { offsetInCU: 0x4F910, offset: 0x4F910, size: 0x8, addend: 0x0, symName: __ZNSt3__122__compressed_pair_elemIPNS_6vectorIdNS_9allocatorIdEEEELi0ELb0EE5__getB8ue170006Ev, symObjAddr: 0x35794, symBinAddr: 0x1000392A0, symSize: 0x14 }
  - { offsetInCU: 0x4F951, offset: 0x4F951, size: 0x8, addend: 0x0, symName: __ZNSt3__16vectorINS0_IdNS_9allocatorIdEEEENS1_IS3_EEE21_ConstructTransactionC1B8ue170006ERS5_m, symObjAddr: 0x357A8, symBinAddr: 0x1000392B4, symSize: 0x3C }
  - { offsetInCU: 0x4F999, offset: 0x4F999, size: 0x8, addend: 0x0, symName: __ZNSt3__116allocator_traitsINS_9allocatorINS_6vectorIdNS1_IdEEEEEEE9constructB8ue170006IS4_JRKS4_EvEEvRS5_PT_DpOT0_, symObjAddr: 0x357E4, symBinAddr: 0x1000392F0, symSize: 0x34 }
  - { offsetInCU: 0x4F9F0, offset: 0x4F9F0, size: 0x8, addend: 0x0, symName: __ZNSt3__16vectorINS0_IdNS_9allocatorIdEEEENS1_IS3_EEE7__allocB8ue170006Ev, symObjAddr: 0x35818, symBinAddr: 0x100039324, symSize: 0x28 }
  - { offsetInCU: 0x4FA16, offset: 0x4FA16, size: 0x8, addend: 0x0, symName: __ZNSt3__16vectorINS0_IdNS_9allocatorIdEEEENS1_IS3_EEE21_ConstructTransactionD1B8ue170006Ev, symObjAddr: 0x35854, symBinAddr: 0x100039360, symSize: 0x2C }
  - { offsetInCU: 0x4FA40, offset: 0x4FA40, size: 0x8, addend: 0x0, symName: __ZNSt3__16vectorINS0_IdNS_9allocatorIdEEEENS1_IS3_EEE21_ConstructTransactionC2B8ue170006ERS5_m, symObjAddr: 0x35880, symBinAddr: 0x10003938C, symSize: 0x4C }
  - { offsetInCU: 0x4FA88, offset: 0x4FA88, size: 0x8, addend: 0x0, symName: __ZNSt3__19allocatorINS_6vectorIdNS0_IdEEEEE9constructB8ue170006IS3_JRKS3_EEEvPT_DpOT0_, symObjAddr: 0x358CC, symBinAddr: 0x1000393D8, symSize: 0x30 }
  - { offsetInCU: 0x4FADE, offset: 0x4FADE, size: 0x8, addend: 0x0, symName: __ZNSt3__117__compressed_pairIPNS_6vectorIdNS_9allocatorIdEEEENS2_IS4_EEE6secondB8ue170006Ev, symObjAddr: 0x358FC, symBinAddr: 0x100039408, symSize: 0x24 }
  - { offsetInCU: 0x4FB04, offset: 0x4FB04, size: 0x8, addend: 0x0, symName: __ZNSt3__122__compressed_pair_elemINS_9allocatorINS_6vectorIdNS1_IdEEEEEELi1ELb1EE5__getB8ue170006Ev, symObjAddr: 0x35920, symBinAddr: 0x10003942C, symSize: 0x14 }
  - { offsetInCU: 0x4FB2A, offset: 0x4FB2A, size: 0x8, addend: 0x0, symName: __ZNSt3__16vectorINS0_IdNS_9allocatorIdEEEENS1_IS3_EEE21_ConstructTransactionD2B8ue170006Ev, symObjAddr: 0x35934, symBinAddr: 0x100039440, symSize: 0x20 }
  - { offsetInCU: 0x4FB54, offset: 0x4FB54, size: 0x8, addend: 0x0, symName: __ZNKSt3__16vectorINS0_IdNS_9allocatorIdEEEENS1_IS3_EEE11__recommendB8ue170006Em, symObjAddr: 0x35954, symBinAddr: 0x100039460, symSize: 0xB4 }
  - { offsetInCU: 0x4FBA9, offset: 0x4FBA9, size: 0x8, addend: 0x0, symName: __ZNKSt3__16vectorINS0_IdNS_9allocatorIdEEEENS1_IS3_EEE4sizeB8ue170006Ev, symObjAddr: 0x35A08, symBinAddr: 0x100039514, symSize: 0x28 }
  - { offsetInCU: 0x4FBCF, offset: 0x4FBCF, size: 0x8, addend: 0x0, symName: __ZNSt3__114__split_bufferINS_6vectorIdNS_9allocatorIdEEEERNS2_IS4_EEEC1EmmS6_, symObjAddr: 0x35A30, symBinAddr: 0x10003953C, symSize: 0x44 }
  - { offsetInCU: 0x4FC25, offset: 0x4FC25, size: 0x8, addend: 0x0, symName: __ZNSt3__114__split_bufferINS_6vectorIdNS_9allocatorIdEEEERNS2_IS4_EEED1Ev, symObjAddr: 0x35B84, symBinAddr: 0x100039690, symSize: 0x2C }
  - { offsetInCU: 0x4FC51, offset: 0x4FC51, size: 0x8, addend: 0x0, symName: __ZNKSt3__16vectorINS0_IdNS_9allocatorIdEEEENS1_IS3_EEE8max_sizeEv, symObjAddr: 0x35BB0, symBinAddr: 0x1000396BC, symSize: 0x74 }
  - { offsetInCU: 0x4FC79, offset: 0x4FC79, size: 0x8, addend: 0x0, symName: __ZNKSt3__16vectorINS0_IdNS_9allocatorIdEEEENS1_IS3_EEE20__throw_length_errorB8ue170006Ev, symObjAddr: 0x35C24, symBinAddr: 0x100039730, symSize: 0x1C }
  - { offsetInCU: 0x4FC9F, offset: 0x4FC9F, size: 0x8, addend: 0x0, symName: __ZNKSt3__16vectorINS0_IdNS_9allocatorIdEEEENS1_IS3_EEE8capacityB8ue170006Ev, symObjAddr: 0x35C40, symBinAddr: 0x10003974C, symSize: 0x40 }
  - { offsetInCU: 0x4FCD0, offset: 0x4FCD0, size: 0x8, addend: 0x0, symName: __ZNSt3__116allocator_traitsINS_9allocatorINS_6vectorIdNS1_IdEEEEEEE8max_sizeB8ue170006IS5_vEEmRKS5_, symObjAddr: 0x35C80, symBinAddr: 0x10003978C, symSize: 0x24 }
  - { offsetInCU: 0x4FCFE, offset: 0x4FCFE, size: 0x8, addend: 0x0, symName: __ZNKSt3__16vectorINS0_IdNS_9allocatorIdEEEENS1_IS3_EEE7__allocB8ue170006Ev, symObjAddr: 0x35CA4, symBinAddr: 0x1000397B0, symSize: 0x28 }
  - { offsetInCU: 0x4FD24, offset: 0x4FD24, size: 0x8, addend: 0x0, symName: __ZNKSt3__19allocatorINS_6vectorIdNS0_IdEEEEE8max_sizeB8ue170006Ev, symObjAddr: 0x35CCC, symBinAddr: 0x1000397D8, symSize: 0x18 }
  - { offsetInCU: 0x4FD4A, offset: 0x4FD4A, size: 0x8, addend: 0x0, symName: __ZNKSt3__117__compressed_pairIPNS_6vectorIdNS_9allocatorIdEEEENS2_IS4_EEE6secondB8ue170006Ev, symObjAddr: 0x35CE4, symBinAddr: 0x1000397F0, symSize: 0x24 }
  - { offsetInCU: 0x4FD70, offset: 0x4FD70, size: 0x8, addend: 0x0, symName: __ZNKSt3__122__compressed_pair_elemINS_9allocatorINS_6vectorIdNS1_IdEEEEEELi1ELb1EE5__getB8ue170006Ev, symObjAddr: 0x35D08, symBinAddr: 0x100039814, symSize: 0x14 }
  - { offsetInCU: 0x4FD96, offset: 0x4FD96, size: 0x8, addend: 0x0, symName: __ZNKSt3__16vectorINS0_IdNS_9allocatorIdEEEENS1_IS3_EEE9__end_capB8ue170006Ev, symObjAddr: 0x35D1C, symBinAddr: 0x100039828, symSize: 0x28 }
  - { offsetInCU: 0x4FDBC, offset: 0x4FDBC, size: 0x8, addend: 0x0, symName: __ZNKSt3__117__compressed_pairIPNS_6vectorIdNS_9allocatorIdEEEENS2_IS4_EEE5firstB8ue170006Ev, symObjAddr: 0x35D44, symBinAddr: 0x100039850, symSize: 0x24 }
  - { offsetInCU: 0x4FDE2, offset: 0x4FDE2, size: 0x8, addend: 0x0, symName: __ZNKSt3__122__compressed_pair_elemIPNS_6vectorIdNS_9allocatorIdEEEELi0ELb0EE5__getB8ue170006Ev, symObjAddr: 0x35D68, symBinAddr: 0x100039874, symSize: 0x14 }
  - { offsetInCU: 0x4FE08, offset: 0x4FE08, size: 0x8, addend: 0x0, symName: __ZNSt3__114__split_bufferINS_6vectorIdNS_9allocatorIdEEEERNS2_IS4_EEEC2EmmS6_, symObjAddr: 0x35D7C, symBinAddr: 0x100039888, symSize: 0xE0 }
  - { offsetInCU: 0x4FE7B, offset: 0x4FE7B, size: 0x8, addend: 0x0, symName: __ZNSt3__117__compressed_pairIPNS_6vectorIdNS_9allocatorIdEEEERNS2_IS4_EEEC1B8ue170006IDnS7_EEOT_OT0_, symObjAddr: 0x35E5C, symBinAddr: 0x100039968, symSize: 0x3C }
  - { offsetInCU: 0x4FED3, offset: 0x4FED3, size: 0x8, addend: 0x0, symName: __ZNSt3__114__split_bufferINS_6vectorIdNS_9allocatorIdEEEERNS2_IS4_EEE7__allocB8ue170006Ev, symObjAddr: 0x35ED8, symBinAddr: 0x1000399E4, symSize: 0x28 }
  - { offsetInCU: 0x4FEF9, offset: 0x4FEF9, size: 0x8, addend: 0x0, symName: __ZNSt3__114__split_bufferINS_6vectorIdNS_9allocatorIdEEEERNS2_IS4_EEE9__end_capB8ue170006Ev, symObjAddr: 0x35F00, symBinAddr: 0x100039A0C, symSize: 0x28 }
  - { offsetInCU: 0x4FF1F, offset: 0x4FF1F, size: 0x8, addend: 0x0, symName: __ZNSt3__117__compressed_pairIPNS_6vectorIdNS_9allocatorIdEEEERNS2_IS4_EEEC2B8ue170006IDnS7_EEOT_OT0_, symObjAddr: 0x35F28, symBinAddr: 0x100039A34, symSize: 0x48 }
  - { offsetInCU: 0x4FF77, offset: 0x4FF77, size: 0x8, addend: 0x0, symName: __ZNSt3__122__compressed_pair_elemIRNS_9allocatorINS_6vectorIdNS1_IdEEEEEELi1ELb0EEC2B8ue170006IS6_vEEOT_, symObjAddr: 0x35F70, symBinAddr: 0x100039A7C, symSize: 0x20 }
  - { offsetInCU: 0x4FFB9, offset: 0x4FFB9, size: 0x8, addend: 0x0, symName: __ZNSt3__19allocatorINS_6vectorIdNS0_IdEEEEE8allocateB8ue170006Em, symObjAddr: 0x35F90, symBinAddr: 0x100039A9C, symSize: 0x8C }
  - { offsetInCU: 0x4FFED, offset: 0x4FFED, size: 0x8, addend: 0x0, symName: __ZNSt3__117__compressed_pairIPNS_6vectorIdNS_9allocatorIdEEEERNS2_IS4_EEE6secondB8ue170006Ev, symObjAddr: 0x3601C, symBinAddr: 0x100039B28, symSize: 0x28 }
  - { offsetInCU: 0x50013, offset: 0x50013, size: 0x8, addend: 0x0, symName: __ZNSt3__122__compressed_pair_elemIRNS_9allocatorINS_6vectorIdNS1_IdEEEEEELi1ELb0EE5__getB8ue170006Ev, symObjAddr: 0x36044, symBinAddr: 0x100039B50, symSize: 0x18 }
  - { offsetInCU: 0x50039, offset: 0x50039, size: 0x8, addend: 0x0, symName: __ZNSt3__117__compressed_pairIPNS_6vectorIdNS_9allocatorIdEEEERNS2_IS4_EEE5firstB8ue170006Ev, symObjAddr: 0x3605C, symBinAddr: 0x100039B68, symSize: 0x24 }
  - { offsetInCU: 0x5005F, offset: 0x5005F, size: 0x8, addend: 0x0, symName: __ZNKSt3__16vectorINS0_IdNS_9allocatorIdEEEENS1_IS3_EEE17__annotate_deleteB8ue170006Ev, symObjAddr: 0x36080, symBinAddr: 0x100039B8C, symSize: 0xD4 }
  - { offsetInCU: 0x50085, offset: 0x50085, size: 0x8, addend: 0x0, symName: __ZNSt3__116reverse_iteratorIPNS_6vectorIdNS_9allocatorIdEEEEEC1B8ue170006ES5_, symObjAddr: 0x36288, symBinAddr: 0x100039D94, symSize: 0x34 }
  - { offsetInCU: 0x500BD, offset: 0x500BD, size: 0x8, addend: 0x0, symName: __ZNKSt3__116reverse_iteratorIPNS_6vectorIdNS_9allocatorIdEEEEE4baseB8ue170006Ev, symObjAddr: 0x362BC, symBinAddr: 0x100039DC8, symSize: 0x18 }
  - { offsetInCU: 0x500E3, offset: 0x500E3, size: 0x8, addend: 0x0, symName: __ZNKSt3__16vectorINS0_IdNS_9allocatorIdEEEENS1_IS3_EEE14__annotate_newB8ue170006Em, symObjAddr: 0x36310, symBinAddr: 0x100039E1C, symSize: 0xC8 }
  - { offsetInCU: 0x50118, offset: 0x50118, size: 0x8, addend: 0x0, symName: __ZNKSt3__16vectorINS0_IdNS_9allocatorIdEEEENS1_IS3_EEE31__annotate_contiguous_containerB8ue170006EPKvS7_S7_S7_, symObjAddr: 0x363D8, symBinAddr: 0x100039EE4, symSize: 0x20 }
  - { offsetInCU: 0x5016A, offset: 0x5016A, size: 0x8, addend: 0x0, symName: __ZNKSt3__16vectorINS0_IdNS_9allocatorIdEEEENS1_IS3_EEE4dataB8ue170006Ev, symObjAddr: 0x363F8, symBinAddr: 0x100039F04, symSize: 0x28 }
  - { offsetInCU: 0x50190, offset: 0x50190, size: 0x8, addend: 0x0, symName: __ZNSt3__129_AllocatorDestroyRangeReverseINS_9allocatorINS_6vectorIdNS1_IdEEEEEENS_16reverse_iteratorIPS4_EEEC1B8ue170006ERS5_RS8_SB_, symObjAddr: 0x3646C, symBinAddr: 0x100039F78, symSize: 0x44 }
  - { offsetInCU: 0x501E7, offset: 0x501E7, size: 0x8, addend: 0x0, symName: __ZNKSt3__116reverse_iteratorIPNS_6vectorIdNS_9allocatorIdEEEEEdeB8ue170006Ev, symObjAddr: 0x3651C, symBinAddr: 0x10003A028, symSize: 0x28 }
  - { offsetInCU: 0x5021B, offset: 0x5021B, size: 0x8, addend: 0x0, symName: __ZNSt3__116reverse_iteratorIPNS_6vectorIdNS_9allocatorIdEEEEEppB8ue170006Ev, symObjAddr: 0x36544, symBinAddr: 0x10003A050, symSize: 0x20 }
  - { offsetInCU: 0x50241, offset: 0x50241, size: 0x8, addend: 0x0, symName: __ZNSt3__128__exception_guard_exceptionsINS_29_AllocatorDestroyRangeReverseINS_9allocatorINS_6vectorIdNS2_IdEEEEEENS_16reverse_iteratorIPS5_EEEEE10__completeB8ue170006Ev, symObjAddr: 0x36564, symBinAddr: 0x10003A070, symSize: 0x1C }
  - { offsetInCU: 0x50267, offset: 0x50267, size: 0x8, addend: 0x0, symName: __ZNSt3__128__exception_guard_exceptionsINS_29_AllocatorDestroyRangeReverseINS_9allocatorINS_6vectorIdNS2_IdEEEEEENS_16reverse_iteratorIPS5_EEEEED1B8ue170006Ev, symObjAddr: 0x36580, symBinAddr: 0x10003A08C, symSize: 0x2C }
  - { offsetInCU: 0x50291, offset: 0x50291, size: 0x8, addend: 0x0, symName: __ZNSt3__128__exception_guard_exceptionsINS_29_AllocatorDestroyRangeReverseINS_9allocatorINS_6vectorIdNS2_IdEEEEEENS_16reverse_iteratorIPS5_EEEEEC1B8ue170006ESA_, symObjAddr: 0x365AC, symBinAddr: 0x10003A0B8, symSize: 0x34 }
  - { offsetInCU: 0x502CA, offset: 0x502CA, size: 0x8, addend: 0x0, symName: __ZNSt3__128__exception_guard_exceptionsINS_29_AllocatorDestroyRangeReverseINS_9allocatorINS_6vectorIdNS2_IdEEEEEENS_16reverse_iteratorIPS5_EEEEEC2B8ue170006ESA_, symObjAddr: 0x365E0, symBinAddr: 0x10003A0EC, symSize: 0x30 }
  - { offsetInCU: 0x50303, offset: 0x50303, size: 0x8, addend: 0x0, symName: __ZNSt3__129_AllocatorDestroyRangeReverseINS_9allocatorINS_6vectorIdNS1_IdEEEEEENS_16reverse_iteratorIPS4_EEEC2B8ue170006ERS5_RS8_SB_, symObjAddr: 0x36610, symBinAddr: 0x10003A11C, symSize: 0x38 }
  - { offsetInCU: 0x50360, offset: 0x50360, size: 0x8, addend: 0x0, symName: __ZNSt3__119__to_address_helperINS_16reverse_iteratorIPNS_6vectorIdNS_9allocatorIdEEEEEEvE6__callB8ue170006ERKS7_, symObjAddr: 0x36648, symBinAddr: 0x10003A154, symSize: 0x4C }
  - { offsetInCU: 0x50383, offset: 0x50383, size: 0x8, addend: 0x0, symName: __ZNKSt3__116reverse_iteratorIPNS_6vectorIdNS_9allocatorIdEEEEEptB8ue170006Ev, symObjAddr: 0x36694, symBinAddr: 0x10003A1A0, symSize: 0x24 }
  - { offsetInCU: 0x503A9, offset: 0x503A9, size: 0x8, addend: 0x0, symName: __ZNSt3__128__exception_guard_exceptionsINS_29_AllocatorDestroyRangeReverseINS_9allocatorINS_6vectorIdNS2_IdEEEEEENS_16reverse_iteratorIPS5_EEEEED2B8ue170006Ev, symObjAddr: 0x366B8, symBinAddr: 0x10003A1C4, symSize: 0x48 }
  - { offsetInCU: 0x503D3, offset: 0x503D3, size: 0x8, addend: 0x0, symName: __ZNKSt3__129_AllocatorDestroyRangeReverseINS_9allocatorINS_6vectorIdNS1_IdEEEEEENS_16reverse_iteratorIPS4_EEEclB8ue170006Ev, symObjAddr: 0x36700, symBinAddr: 0x10003A20C, symSize: 0xB4 }
  - { offsetInCU: 0x503FA, offset: 0x503FA, size: 0x8, addend: 0x0, symName: __ZNSt3__116reverse_iteratorINS0_IPNS_6vectorIdNS_9allocatorIdEEEEEEEC1B8ue170006ES6_, symObjAddr: 0x36824, symBinAddr: 0x10003A330, symSize: 0x3C }
  - { offsetInCU: 0x50432, offset: 0x50432, size: 0x8, addend: 0x0, symName: __ZNSt3__116allocator_traitsINS_9allocatorINS_6vectorIdNS1_IdEEEEEEE7destroyB8ue170006IS4_vEEvRS5_PT_, symObjAddr: 0x368C0, symBinAddr: 0x10003A3CC, symSize: 0x2C }
  - { offsetInCU: 0x5046F, offset: 0x5046F, size: 0x8, addend: 0x0, symName: __ZNSt3__116reverse_iteratorINS0_IPNS_6vectorIdNS_9allocatorIdEEEEEEEppB8ue170006Ev, symObjAddr: 0x36910, symBinAddr: 0x10003A41C, symSize: 0x30 }
  - { offsetInCU: 0x50495, offset: 0x50495, size: 0x8, addend: 0x0, symName: __ZNKSt3__116reverse_iteratorINS0_IPNS_6vectorIdNS_9allocatorIdEEEEEEE4baseB8ue170006Ev, symObjAddr: 0x36940, symBinAddr: 0x10003A44C, symSize: 0x24 }
  - { offsetInCU: 0x504BB, offset: 0x504BB, size: 0x8, addend: 0x0, symName: __ZNSt3__19allocatorINS_6vectorIdNS0_IdEEEEE7destroyB8ue170006EPS3_, symObjAddr: 0x36964, symBinAddr: 0x10003A470, symSize: 0x28 }
  - { offsetInCU: 0x504F5, offset: 0x504F5, size: 0x8, addend: 0x0, symName: __ZNSt3__119__to_address_helperINS_16reverse_iteratorINS1_IPNS_6vectorIdNS_9allocatorIdEEEEEEEEvE6__callB8ue170006ERKS8_, symObjAddr: 0x3698C, symBinAddr: 0x10003A498, symSize: 0x4C }
  - { offsetInCU: 0x50518, offset: 0x50518, size: 0x8, addend: 0x0, symName: __ZNKSt3__116reverse_iteratorINS0_IPNS_6vectorIdNS_9allocatorIdEEEEEEEptB8ue170006Ev, symObjAddr: 0x369D8, symBinAddr: 0x10003A4E4, symSize: 0x24 }
  - { offsetInCU: 0x5053E, offset: 0x5053E, size: 0x8, addend: 0x0, symName: __ZNKSt3__116reverse_iteratorINS0_IPNS_6vectorIdNS_9allocatorIdEEEEEEEdeB8ue170006Ev, symObjAddr: 0x369FC, symBinAddr: 0x10003A508, symSize: 0x34 }
  - { offsetInCU: 0x50572, offset: 0x50572, size: 0x8, addend: 0x0, symName: __ZNSt3__116reverse_iteratorIPNS_6vectorIdNS_9allocatorIdEEEEEmmB8ue170006Ev, symObjAddr: 0x36A30, symBinAddr: 0x10003A53C, symSize: 0x20 }
  - { offsetInCU: 0x50598, offset: 0x50598, size: 0x8, addend: 0x0, symName: __ZNSt3__116reverse_iteratorINS0_IPNS_6vectorIdNS_9allocatorIdEEEEEEEC2B8ue170006ES6_, symObjAddr: 0x36A50, symBinAddr: 0x10003A55C, symSize: 0x2C }
  - { offsetInCU: 0x505D0, offset: 0x505D0, size: 0x8, addend: 0x0, symName: __ZNSt3__116reverse_iteratorIPNS_6vectorIdNS_9allocatorIdEEEEEC2B8ue170006ES5_, symObjAddr: 0x36A7C, symBinAddr: 0x10003A588, symSize: 0x28 }
  - { offsetInCU: 0x50608, offset: 0x50608, size: 0x8, addend: 0x0, symName: __ZNSt3__114__split_bufferINS_6vectorIdNS_9allocatorIdEEEERNS2_IS4_EEED2Ev, symObjAddr: 0x36AA4, symBinAddr: 0x10003A5B0, symSize: 0x80 }
  - { offsetInCU: 0x50634, offset: 0x50634, size: 0x8, addend: 0x0, symName: __ZNSt3__114__split_bufferINS_6vectorIdNS_9allocatorIdEEEERNS2_IS4_EEE5clearB8ue170006Ev, symObjAddr: 0x36B24, symBinAddr: 0x10003A630, symSize: 0x28 }
  - { offsetInCU: 0x5065A, offset: 0x5065A, size: 0x8, addend: 0x0, symName: __ZNSt3__116allocator_traitsINS_9allocatorINS_6vectorIdNS1_IdEEEEEEE10deallocateB8ue170006ERS5_PS4_m, symObjAddr: 0x36B4C, symBinAddr: 0x10003A658, symSize: 0x34 }
  - { offsetInCU: 0x5069C, offset: 0x5069C, size: 0x8, addend: 0x0, symName: __ZNKSt3__114__split_bufferINS_6vectorIdNS_9allocatorIdEEEERNS2_IS4_EEE8capacityB8ue170006Ev, symObjAddr: 0x36B80, symBinAddr: 0x10003A68C, symSize: 0x40 }
  - { offsetInCU: 0x506C2, offset: 0x506C2, size: 0x8, addend: 0x0, symName: __ZNSt3__114__split_bufferINS_6vectorIdNS_9allocatorIdEEEERNS2_IS4_EEE17__destruct_at_endB8ue170006EPS4_, symObjAddr: 0x36BC0, symBinAddr: 0x10003A6CC, symSize: 0x2C }
  - { offsetInCU: 0x506F6, offset: 0x506F6, size: 0x8, addend: 0x0, symName: __ZNSt3__114__split_bufferINS_6vectorIdNS_9allocatorIdEEEERNS2_IS4_EEE17__destruct_at_endB8ue170006EPS4_NS_17integral_constantIbLb0EEE, symObjAddr: 0x36BEC, symBinAddr: 0x10003A6F8, symSize: 0x94 }
  - { offsetInCU: 0x50736, offset: 0x50736, size: 0x8, addend: 0x0, symName: __ZNSt3__19allocatorINS_6vectorIdNS0_IdEEEEE10deallocateB8ue170006EPS3_m, symObjAddr: 0x36C80, symBinAddr: 0x10003A78C, symSize: 0x74 }
  - { offsetInCU: 0x50778, offset: 0x50778, size: 0x8, addend: 0x0, symName: __ZNKSt3__114__split_bufferINS_6vectorIdNS_9allocatorIdEEEERNS2_IS4_EEE9__end_capB8ue170006Ev, symObjAddr: 0x36CF4, symBinAddr: 0x10003A800, symSize: 0x28 }
  - { offsetInCU: 0x5079E, offset: 0x5079E, size: 0x8, addend: 0x0, symName: __ZNKSt3__117__compressed_pairIPNS_6vectorIdNS_9allocatorIdEEEERNS2_IS4_EEE5firstB8ue170006Ev, symObjAddr: 0x36D1C, symBinAddr: 0x10003A828, symSize: 0x24 }
  - { offsetInCU: 0x507C4, offset: 0x507C4, size: 0x8, addend: 0x0, symName: __ZNSt3__16vectorINS0_IdNS_9allocatorIdEEEENS1_IS3_EEED2B8ue170006Ev, symObjAddr: 0x36D40, symBinAddr: 0x10003A84C, symSize: 0x3C }
  - { offsetInCU: 0x507EE, offset: 0x507EE, size: 0x8, addend: 0x0, symName: __ZNSt3__16vectorINS0_IdNS_9allocatorIdEEEENS1_IS3_EEE16__destroy_vectorC1B8ue170006ERS5_, symObjAddr: 0x36D7C, symBinAddr: 0x10003A888, symSize: 0x34 }
  - { offsetInCU: 0x50827, offset: 0x50827, size: 0x8, addend: 0x0, symName: __ZNSt3__16vectorINS0_IdNS_9allocatorIdEEEENS1_IS3_EEE16__destroy_vectorclB8ue170006Ev, symObjAddr: 0x36DB0, symBinAddr: 0x10003A8BC, symSize: 0x90 }
  - { offsetInCU: 0x5084D, offset: 0x5084D, size: 0x8, addend: 0x0, symName: __ZNSt3__16vectorINS0_IdNS_9allocatorIdEEEENS1_IS3_EEE16__destroy_vectorC2B8ue170006ERS5_, symObjAddr: 0x36E40, symBinAddr: 0x10003A94C, symSize: 0x20 }
  - { offsetInCU: 0x50886, offset: 0x50886, size: 0x8, addend: 0x0, symName: __ZNSt3__16vectorINS0_IdNS_9allocatorIdEEEENS1_IS3_EEE7__clearB8ue170006Ev, symObjAddr: 0x36E60, symBinAddr: 0x10003A96C, symSize: 0x28 }
  - { offsetInCU: 0x508AC, offset: 0x508AC, size: 0x8, addend: 0x0, symName: __ZNSt3__16vectorINS0_IdNS_9allocatorIdEEEENS1_IS3_EEE22__base_destruct_at_endB8ue170006EPS3_, symObjAddr: 0x36E88, symBinAddr: 0x10003A994, symSize: 0xA0 }
  - { offsetInCU: 0x508F0, offset: 0x508F0, size: 0x8, addend: 0x0, symName: __ZN14ProgramOptionsC2Ev, symObjAddr: 0x36F28, symBinAddr: 0x10003AA34, symSize: 0x4C }
  - { offsetInCU: 0x5091C, offset: 0x5091C, size: 0x8, addend: 0x0, symName: __ZNKSt3__16chrono8durationIxNS_5ratioILl1ELl1000000000EEEE5countB8ue170006Ev, symObjAddr: 0x36FFC, symBinAddr: 0x10003AB08, symSize: 0x18 }
  - { offsetInCU: 0x5094C, offset: 0x5094C, size: 0x8, addend: 0x0, symName: __ZNKSt3__16chrono15__duration_castINS0_8durationIxNS_5ratioILl1ELl1000000000EEEEES5_NS3_ILl1ELl1EEELb1ELb1EEclB8ue170006ERKS5_, symObjAddr: 0x37014, symBinAddr: 0x10003AB20, symSize: 0x40 }
  - { offsetInCU: 0x50985, offset: 0x50985, size: 0x8, addend: 0x0, symName: __ZNSt3__16chrono8durationIxNS_5ratioILl1ELl1000000000EEEEC1B8ue170006IxEERKT_PNS_9enable_ifIXaasr14is_convertibleIS8_xEE5valueooL_ZNS_17integral_constantIbLb0EE5valueEEntsr23treat_as_floating_pointIS6_EE5valueEvE4typeE, symObjAddr: 0x37054, symBinAddr: 0x10003AB60, symSize: 0x3C }
  - { offsetInCU: 0x509D1, offset: 0x509D1, size: 0x8, addend: 0x0, symName: __ZNSt3__16chrono8durationIxNS_5ratioILl1ELl1000000000EEEEC2B8ue170006IxEERKT_PNS_9enable_ifIXaasr14is_convertibleIS8_xEE5valueooL_ZNS_17integral_constantIbLb0EE5valueEEntsr23treat_as_floating_pointIS6_EE5valueEvE4typeE, symObjAddr: 0x37090, symBinAddr: 0x10003AB9C, symSize: 0x28 }
  - { offsetInCU: 0x50A1D, offset: 0x50A1D, size: 0x8, addend: 0x0, symName: __ZNKSt3__16chrono10time_pointINS0_12steady_clockENS0_8durationIxNS_5ratioILl1ELl1000000000EEEEEE16time_since_epochB8ue170006Ev, symObjAddr: 0x37128, symBinAddr: 0x10003AC34, symSize: 0x20 }
  - { offsetInCU: 0x50A43, offset: 0x50A43, size: 0x8, addend: 0x0, symName: __ZN13HeuristicDataD2Ev, symObjAddr: 0x37148, symBinAddr: 0x10003AC54, symSize: 0x170 }
